ARM GAS  C:\Users\Matthew\AppData\Local\Temp\ccXxauDk.s 			page 1


   1              		.syntax unified
   2              		.cpu cortex-m3
   3              		.fpu softvfp
   4              		.eabi_attribute 20, 1
   5              		.eabi_attribute 21, 1
   6              		.eabi_attribute 23, 3
   7              		.eabi_attribute 24, 1
   8              		.eabi_attribute 25, 1
   9              		.eabi_attribute 26, 1
  10              		.eabi_attribute 30, 6
  11              		.eabi_attribute 34, 1
  12              		.eabi_attribute 18, 4
  13              		.thumb
  14              		.syntax unified
  15              		.file	"ADC_DelSig.c"
  16              		.text
  17              	.Ltext0:
  18              		.cfi_sections	.debug_frame
  19              		.global	ADC_DelSig_convDone
  20              		.bss
  21              		.type	ADC_DelSig_convDone, %object
  22              		.size	ADC_DelSig_convDone, 1
  23              	ADC_DelSig_convDone:
  24 0000 00       		.space	1
  25              		.global	ADC_DelSig_stopConversion
  26              		.type	ADC_DelSig_stopConversion, %object
  27              		.size	ADC_DelSig_stopConversion, 1
  28              	ADC_DelSig_stopConversion:
  29 0001 00       		.space	1
  30              		.global	ADC_DelSig_initVar
  31              		.type	ADC_DelSig_initVar, %object
  32              		.size	ADC_DelSig_initVar, 1
  33              	ADC_DelSig_initVar:
  34 0002 00       		.space	1
  35              		.global	ADC_DelSig_started
  36              		.type	ADC_DelSig_started, %object
  37              		.size	ADC_DelSig_started, 1
  38              	ADC_DelSig_started:
  39 0003 00       		.space	1
  40              		.global	ADC_DelSig_Config
  41              		.data
  42              		.type	ADC_DelSig_Config, %object
  43              		.size	ADC_DelSig_Config, 1
  44              	ADC_DelSig_Config:
  45 0000 01       		.byte	1
  46              		.comm	ADC_DelSig_Offset,4,4
  47              		.comm	ADC_DelSig_CountsPerVolt,4,4
  48              		.bss
  49              		.align	2
  50              	ADC_DelSig_gcor:
  51 0004 00000000 		.space	4
  52              		.section	.text.ADC_DelSig_Init,"ax",%progbits
  53              		.align	2
  54              		.global	ADC_DelSig_Init
  55              		.thumb
  56              		.thumb_func
  57              		.type	ADC_DelSig_Init, %function
ARM GAS  C:\Users\Matthew\AppData\Local\Temp\ccXxauDk.s 			page 2


  58              	ADC_DelSig_Init:
  59              	.LFB0:
  60              		.file 1 "Generated_Source\\PSoC5\\ADC_DelSig.c"
   1:Generated_Source\PSoC5/ADC_DelSig.c **** /*******************************************************************************
   2:Generated_Source\PSoC5/ADC_DelSig.c **** * File Name: ADC_DelSig.c
   3:Generated_Source\PSoC5/ADC_DelSig.c **** * Version 3.20
   4:Generated_Source\PSoC5/ADC_DelSig.c **** *
   5:Generated_Source\PSoC5/ADC_DelSig.c **** * Description:
   6:Generated_Source\PSoC5/ADC_DelSig.c **** *  This file provides the source code to the API for the Delta-Sigma ADC
   7:Generated_Source\PSoC5/ADC_DelSig.c **** *  Component.
   8:Generated_Source\PSoC5/ADC_DelSig.c **** *
   9:Generated_Source\PSoC5/ADC_DelSig.c **** * Note:
  10:Generated_Source\PSoC5/ADC_DelSig.c **** *
  11:Generated_Source\PSoC5/ADC_DelSig.c **** ********************************************************************************
  12:Generated_Source\PSoC5/ADC_DelSig.c **** * Copyright 2008-2015, Cypress Semiconductor Corporation.  All rights reserved.
  13:Generated_Source\PSoC5/ADC_DelSig.c **** * You may use this file only in accordance with the license, terms, conditions,
  14:Generated_Source\PSoC5/ADC_DelSig.c **** * disclaimers, and limitations in the end user license agreement accompanying
  15:Generated_Source\PSoC5/ADC_DelSig.c **** * the software package with which this file was provided.
  16:Generated_Source\PSoC5/ADC_DelSig.c **** *******************************************************************************/
  17:Generated_Source\PSoC5/ADC_DelSig.c **** 
  18:Generated_Source\PSoC5/ADC_DelSig.c **** #include "ADC_DelSig.h"
  19:Generated_Source\PSoC5/ADC_DelSig.c **** 
  20:Generated_Source\PSoC5/ADC_DelSig.c **** #if(ADC_DelSig_DEFAULT_INTERNAL_CLK)
  21:Generated_Source\PSoC5/ADC_DelSig.c ****     #include "ADC_DelSig_theACLK.h"
  22:Generated_Source\PSoC5/ADC_DelSig.c **** #endif /* ADC_DelSig_DEFAULT_INTERNAL_CLK */
  23:Generated_Source\PSoC5/ADC_DelSig.c **** 
  24:Generated_Source\PSoC5/ADC_DelSig.c **** #include "ADC_DelSig_Ext_CP_Clk.h"
  25:Generated_Source\PSoC5/ADC_DelSig.c **** 
  26:Generated_Source\PSoC5/ADC_DelSig.c **** #if(ADC_DelSig_DEFAULT_INPUT_MODE)
  27:Generated_Source\PSoC5/ADC_DelSig.c ****     #include "ADC_DelSig_AMux.h"
  28:Generated_Source\PSoC5/ADC_DelSig.c **** #endif /* ADC_DelSig_DEFAULT_INPUT_MODE */
  29:Generated_Source\PSoC5/ADC_DelSig.c **** 
  30:Generated_Source\PSoC5/ADC_DelSig.c **** 
  31:Generated_Source\PSoC5/ADC_DelSig.c **** /***************************************
  32:Generated_Source\PSoC5/ADC_DelSig.c **** * Global data allocation
  33:Generated_Source\PSoC5/ADC_DelSig.c **** ***************************************/
  34:Generated_Source\PSoC5/ADC_DelSig.c **** 
  35:Generated_Source\PSoC5/ADC_DelSig.c **** /* Software flag for checking conversion completed or not */
  36:Generated_Source\PSoC5/ADC_DelSig.c **** volatile uint8 ADC_DelSig_convDone = 0u;
  37:Generated_Source\PSoC5/ADC_DelSig.c **** 
  38:Generated_Source\PSoC5/ADC_DelSig.c **** /* Software flag to stop conversion for single sample conversion mode
  39:Generated_Source\PSoC5/ADC_DelSig.c **** *   with resolution above 16 bits 
  40:Generated_Source\PSoC5/ADC_DelSig.c **** */
  41:Generated_Source\PSoC5/ADC_DelSig.c **** volatile uint8 ADC_DelSig_stopConversion = 0u;
  42:Generated_Source\PSoC5/ADC_DelSig.c **** 
  43:Generated_Source\PSoC5/ADC_DelSig.c **** /* To run the initialization block only at the start up */
  44:Generated_Source\PSoC5/ADC_DelSig.c **** uint8 ADC_DelSig_initVar = 0u;
  45:Generated_Source\PSoC5/ADC_DelSig.c **** 
  46:Generated_Source\PSoC5/ADC_DelSig.c **** /* To check whether ADC started or not before switching the configuration */
  47:Generated_Source\PSoC5/ADC_DelSig.c **** volatile uint8 ADC_DelSig_started = 0u;
  48:Generated_Source\PSoC5/ADC_DelSig.c **** 
  49:Generated_Source\PSoC5/ADC_DelSig.c **** /* Flag to hold ADC config number. By default active config is 1. */
  50:Generated_Source\PSoC5/ADC_DelSig.c **** volatile uint8 ADC_DelSig_Config = 1u;
  51:Generated_Source\PSoC5/ADC_DelSig.c **** 
  52:Generated_Source\PSoC5/ADC_DelSig.c **** volatile int32 ADC_DelSig_Offset;
  53:Generated_Source\PSoC5/ADC_DelSig.c **** volatile int32 ADC_DelSig_CountsPerVolt;
  54:Generated_Source\PSoC5/ADC_DelSig.c **** 
ARM GAS  C:\Users\Matthew\AppData\Local\Temp\ccXxauDk.s 			page 3


  55:Generated_Source\PSoC5/ADC_DelSig.c **** 
  56:Generated_Source\PSoC5/ADC_DelSig.c **** /***************************************
  57:Generated_Source\PSoC5/ADC_DelSig.c **** * Local data allocation
  58:Generated_Source\PSoC5/ADC_DelSig.c **** ***************************************/
  59:Generated_Source\PSoC5/ADC_DelSig.c **** 
  60:Generated_Source\PSoC5/ADC_DelSig.c **** /* The array with precalculated gain compensation coefficients */
  61:Generated_Source\PSoC5/ADC_DelSig.c **** static ADC_DelSig_GCOR_STRUCT ADC_DelSig_gcor[ADC_DelSig_DEFAULT_NUM_CONFIGS];
  62:Generated_Source\PSoC5/ADC_DelSig.c **** 
  63:Generated_Source\PSoC5/ADC_DelSig.c **** 
  64:Generated_Source\PSoC5/ADC_DelSig.c **** 
  65:Generated_Source\PSoC5/ADC_DelSig.c **** /***************************************
  66:Generated_Source\PSoC5/ADC_DelSig.c **** * Forward function references
  67:Generated_Source\PSoC5/ADC_DelSig.c **** ***************************************/
  68:Generated_Source\PSoC5/ADC_DelSig.c **** static void ADC_DelSig_InitConfig(uint8 config) ;
  69:Generated_Source\PSoC5/ADC_DelSig.c **** static void ADC_DelSig_GainCompensation(uint8 inputRange, uint16 idealDecGain, uint16 idealOddDecGa
  70:Generated_Source\PSoC5/ADC_DelSig.c ****                             uint8 resolution, uint8 config) ;
  71:Generated_Source\PSoC5/ADC_DelSig.c **** static void ADC_DelSig_SetDSMRef0Reg(uint8 value) ;
  72:Generated_Source\PSoC5/ADC_DelSig.c **** 
  73:Generated_Source\PSoC5/ADC_DelSig.c **** 
  74:Generated_Source\PSoC5/ADC_DelSig.c **** /******************************************************************************
  75:Generated_Source\PSoC5/ADC_DelSig.c **** * Function Name: ADC_DelSig_Init
  76:Generated_Source\PSoC5/ADC_DelSig.c **** *******************************************************************************
  77:Generated_Source\PSoC5/ADC_DelSig.c **** *
  78:Generated_Source\PSoC5/ADC_DelSig.c **** * Summary:
  79:Generated_Source\PSoC5/ADC_DelSig.c **** *  Initialize component's parameters to the parameters set by user in the
  80:Generated_Source\PSoC5/ADC_DelSig.c **** *  customizer of the component placed onto schematic. Usually called in
  81:Generated_Source\PSoC5/ADC_DelSig.c **** * ADC_DelSig_Start().
  82:Generated_Source\PSoC5/ADC_DelSig.c **** *
  83:Generated_Source\PSoC5/ADC_DelSig.c **** *
  84:Generated_Source\PSoC5/ADC_DelSig.c **** * Parameters:
  85:Generated_Source\PSoC5/ADC_DelSig.c **** *  None
  86:Generated_Source\PSoC5/ADC_DelSig.c **** *
  87:Generated_Source\PSoC5/ADC_DelSig.c **** * Return:
  88:Generated_Source\PSoC5/ADC_DelSig.c **** *  None
  89:Generated_Source\PSoC5/ADC_DelSig.c **** *
  90:Generated_Source\PSoC5/ADC_DelSig.c **** *******************************************************************************/
  91:Generated_Source\PSoC5/ADC_DelSig.c **** void ADC_DelSig_Init(void) 
  92:Generated_Source\PSoC5/ADC_DelSig.c **** {
  61              		.loc 1 92 0
  62              		.cfi_startproc
  63              		@ args = 0, pretend = 0, frame = 0
  64              		@ frame_needed = 1, uses_anonymous_args = 0
  65 0000 80B5     		push	{r7, lr}
  66              		.cfi_def_cfa_offset 8
  67              		.cfi_offset 7, -8
  68              		.cfi_offset 14, -4
  69 0002 82B0     		sub	sp, sp, #8
  70              		.cfi_def_cfa_offset 16
  71 0004 02AF     		add	r7, sp, #8
  72              		.cfi_def_cfa 7, 8
  93:Generated_Source\PSoC5/ADC_DelSig.c **** 
  94:Generated_Source\PSoC5/ADC_DelSig.c ****     ADC_DelSig_Config = 1u;
  73              		.loc 1 94 0
  74 0006 324B     		ldr	r3, .L2
  75 0008 0122     		movs	r2, #1
  76 000a 1A70     		strb	r2, [r3]
  95:Generated_Source\PSoC5/ADC_DelSig.c ****     ADC_DelSig_convDone = 0u;
ARM GAS  C:\Users\Matthew\AppData\Local\Temp\ccXxauDk.s 			page 4


  77              		.loc 1 95 0
  78 000c 314B     		ldr	r3, .L2+4
  79 000e 0022     		movs	r2, #0
  80 0010 1A70     		strb	r2, [r3]
  96:Generated_Source\PSoC5/ADC_DelSig.c **** 
  97:Generated_Source\PSoC5/ADC_DelSig.c ****     ADC_DelSig_Ext_CP_Clk_SetMode(CYCLK_DUTY);
  81              		.loc 1 97 0
  82 0012 1020     		movs	r0, #16
  83 0014 FFF7FEFF 		bl	ADC_DelSig_Ext_CP_Clk_SetModeRegister
  98:Generated_Source\PSoC5/ADC_DelSig.c **** 
  99:Generated_Source\PSoC5/ADC_DelSig.c ****     /* This is only valid if there is an internal clock */
 100:Generated_Source\PSoC5/ADC_DelSig.c ****     #if(ADC_DelSig_DEFAULT_INTERNAL_CLK)
 101:Generated_Source\PSoC5/ADC_DelSig.c ****         ADC_DelSig_theACLK_SetMode(CYCLK_DUTY);
  84              		.loc 1 101 0
  85 0018 1020     		movs	r0, #16
  86 001a FFF7FEFF 		bl	ADC_DelSig_theACLK_SetModeRegister
 102:Generated_Source\PSoC5/ADC_DelSig.c ****     #endif /* ADC_DelSig_DEFAULT_INTERNAL_CLK */
 103:Generated_Source\PSoC5/ADC_DelSig.c **** 
 104:Generated_Source\PSoC5/ADC_DelSig.c ****     #if(ADC_DelSig_IRQ_REMOVE == 0u)
 105:Generated_Source\PSoC5/ADC_DelSig.c ****         /* Set interrupt priority */
 106:Generated_Source\PSoC5/ADC_DelSig.c ****         CyIntSetPriority(ADC_DelSig_INTC_NUMBER, ADC_DelSig_INTC_PRIOR_NUMBER);
  87              		.loc 1 106 0
  88 001e 0721     		movs	r1, #7
  89 0020 1D20     		movs	r0, #29
  90 0022 FFF7FEFF 		bl	CyIntSetPriority
 107:Generated_Source\PSoC5/ADC_DelSig.c ****     #endif   /* End ADC_DelSig_IRQ_REMOVE */
 108:Generated_Source\PSoC5/ADC_DelSig.c **** 
 109:Generated_Source\PSoC5/ADC_DelSig.c ****     /* Init static registers with common configuration */
 110:Generated_Source\PSoC5/ADC_DelSig.c ****     ADC_DelSig_DSM_DEM0_REG    = ADC_DelSig_CFG1_DSM_DEM0;
  91              		.loc 1 110 0
  92 0026 2C4B     		ldr	r3, .L2+8
  93 0028 0422     		movs	r2, #4
  94 002a 1A70     		strb	r2, [r3]
 111:Generated_Source\PSoC5/ADC_DelSig.c ****     ADC_DelSig_DSM_DEM1_REG    = ADC_DelSig_CFG1_DSM_DEM1;
  95              		.loc 1 111 0
  96 002c 2B4B     		ldr	r3, .L2+12
  97 002e 0022     		movs	r2, #0
  98 0030 1A70     		strb	r2, [r3]
 112:Generated_Source\PSoC5/ADC_DelSig.c ****     ADC_DelSig_DSM_MISC_REG    = ADC_DelSig_CFG1_DSM_MISC;
  99              		.loc 1 112 0
 100 0032 2B4B     		ldr	r3, .L2+16
 101 0034 0022     		movs	r2, #0
 102 0036 1A70     		strb	r2, [r3]
 113:Generated_Source\PSoC5/ADC_DelSig.c ****     ADC_DelSig_DSM_CLK_REG    |= ADC_DelSig_CFG1_DSM_CLK;
 103              		.loc 1 113 0
 104 0038 2A4A     		ldr	r2, .L2+20
 105 003a 2A4B     		ldr	r3, .L2+20
 106 003c 1B78     		ldrb	r3, [r3]
 107 003e DBB2     		uxtb	r3, r3
 108 0040 43F01803 		orr	r3, r3, #24
 109 0044 DBB2     		uxtb	r3, r3
 110 0046 1370     		strb	r3, [r2]
 114:Generated_Source\PSoC5/ADC_DelSig.c ****     ADC_DelSig_DSM_REF1_REG    = ADC_DelSig_CFG1_DSM_REF1;
 111              		.loc 1 114 0
 112 0048 274B     		ldr	r3, .L2+24
 113 004a 0022     		movs	r2, #0
 114 004c 1A70     		strb	r2, [r3]
ARM GAS  C:\Users\Matthew\AppData\Local\Temp\ccXxauDk.s 			page 5


 115:Generated_Source\PSoC5/ADC_DelSig.c **** 
 116:Generated_Source\PSoC5/ADC_DelSig.c ****     ADC_DelSig_DSM_OUT0_REG    = ADC_DelSig_CFG1_DSM_OUT0;
 115              		.loc 1 116 0
 116 004e 274B     		ldr	r3, .L2+28
 117 0050 0022     		movs	r2, #0
 118 0052 1A70     		strb	r2, [r3]
 117:Generated_Source\PSoC5/ADC_DelSig.c ****     ADC_DelSig_DSM_OUT1_REG    = ADC_DelSig_CFG1_DSM_OUT1;
 119              		.loc 1 117 0
 120 0054 264B     		ldr	r3, .L2+32
 121 0056 0022     		movs	r2, #0
 122 0058 1A70     		strb	r2, [r3]
 118:Generated_Source\PSoC5/ADC_DelSig.c **** 
 119:Generated_Source\PSoC5/ADC_DelSig.c ****     ADC_DelSig_DSM_CR0_REG     = ADC_DelSig_CFG1_DSM_CR0;
 123              		.loc 1 119 0
 124 005a 264B     		ldr	r3, .L2+36
 125 005c 0A22     		movs	r2, #10
 126 005e 1A70     		strb	r2, [r3]
 120:Generated_Source\PSoC5/ADC_DelSig.c ****     ADC_DelSig_DSM_CR1_REG     = ADC_DelSig_CFG1_DSM_CR1;
 127              		.loc 1 120 0
 128 0060 254B     		ldr	r3, .L2+40
 129 0062 0022     		movs	r2, #0
 130 0064 1A70     		strb	r2, [r3]
 121:Generated_Source\PSoC5/ADC_DelSig.c **** #if(ADC_DelSig_MI_ENABLE != 0u) /* Enable Modulator Input */
 122:Generated_Source\PSoC5/ADC_DelSig.c ****     ADC_DelSig_DSM_CR3_REG     |= ADC_DelSig_DSM_MODBIT_EN;
 123:Generated_Source\PSoC5/ADC_DelSig.c **** #else
 124:Generated_Source\PSoC5/ADC_DelSig.c ****     ADC_DelSig_DSM_CR3_REG     = ADC_DelSig_CFG1_DSM_CR3;
 131              		.loc 1 124 0
 132 0066 254B     		ldr	r3, .L2+44
 133 0068 0022     		movs	r2, #0
 134 006a 1A70     		strb	r2, [r3]
 125:Generated_Source\PSoC5/ADC_DelSig.c **** #endif /* ADC_DelSig_MI_ENABLE != 0u*/    
 126:Generated_Source\PSoC5/ADC_DelSig.c ****     ADC_DelSig_DSM_CR8_REG     = ADC_DelSig_CFG1_DSM_CR8;
 135              		.loc 1 126 0
 136 006c 244B     		ldr	r3, .L2+48
 137 006e 1222     		movs	r2, #18
 138 0070 1A70     		strb	r2, [r3]
 127:Generated_Source\PSoC5/ADC_DelSig.c ****     ADC_DelSig_DSM_CR9_REG     = ADC_DelSig_CFG1_DSM_CR9;
 139              		.loc 1 127 0
 140 0072 244B     		ldr	r3, .L2+52
 141 0074 1322     		movs	r2, #19
 142 0076 1A70     		strb	r2, [r3]
 128:Generated_Source\PSoC5/ADC_DelSig.c ****     ADC_DelSig_DSM_CR13_REG    = ADC_DelSig_CFG1_DSM_CR13;
 143              		.loc 1 128 0
 144 0078 234B     		ldr	r3, .L2+56
 145 007a 0022     		movs	r2, #0
 146 007c 1A70     		strb	r2, [r3]
 129:Generated_Source\PSoC5/ADC_DelSig.c **** 
 130:Generated_Source\PSoC5/ADC_DelSig.c ****     ADC_DelSig_DEC_SR_REG      = ADC_DelSig_CFG1_DEC_SR;
 147              		.loc 1 130 0
 148 007e 234B     		ldr	r3, .L2+60
 149 0080 1422     		movs	r2, #20
 150 0082 1A70     		strb	r2, [r3]
 131:Generated_Source\PSoC5/ADC_DelSig.c **** 
 132:Generated_Source\PSoC5/ADC_DelSig.c ****     /* Calculate Gain compensation coefficients for all configurations */
 133:Generated_Source\PSoC5/ADC_DelSig.c ****     ADC_DelSig_GainCompensation(ADC_DelSig_CFG1_INPUT_RANGE,
 151              		.loc 1 133 0
 152 0084 0123     		movs	r3, #1
ARM GAS  C:\Users\Matthew\AppData\Local\Temp\ccXxauDk.s 			page 6


 153 0086 0093     		str	r3, [sp]
 154 0088 0A23     		movs	r3, #10
 155 008a 47F60602 		movw	r2, #30726
 156 008e 4FF40041 		mov	r1, #32768
 157 0092 0320     		movs	r0, #3
 158 0094 FFF7FEFF 		bl	ADC_DelSig_GainCompensation
 134:Generated_Source\PSoC5/ADC_DelSig.c ****                                       ADC_DelSig_CFG1_IDEAL_DEC_GAIN,
 135:Generated_Source\PSoC5/ADC_DelSig.c ****                                       ADC_DelSig_CFG1_IDEAL_ODDDEC_GAIN,
 136:Generated_Source\PSoC5/ADC_DelSig.c ****                                       ADC_DelSig_CFG1_RESOLUTION,
 137:Generated_Source\PSoC5/ADC_DelSig.c ****                                       ADC_DelSig_CFG1);
 138:Generated_Source\PSoC5/ADC_DelSig.c ****     #if(ADC_DelSig_DEFAULT_NUM_CONFIGS > 1)
 139:Generated_Source\PSoC5/ADC_DelSig.c ****         ADC_DelSig_GainCompensation(ADC_DelSig_CFG2_INPUT_RANGE,
 140:Generated_Source\PSoC5/ADC_DelSig.c ****                                           ADC_DelSig_CFG2_IDEAL_DEC_GAIN,
 141:Generated_Source\PSoC5/ADC_DelSig.c ****                                           ADC_DelSig_CFG2_IDEAL_ODDDEC_GAIN,
 142:Generated_Source\PSoC5/ADC_DelSig.c ****                                           ADC_DelSig_CFG2_RESOLUTION,
 143:Generated_Source\PSoC5/ADC_DelSig.c ****                                           ADC_DelSig_CFG2);
 144:Generated_Source\PSoC5/ADC_DelSig.c ****     #endif /* ADC_DelSig_DEFAULT_NUM_CONFIGS > 1 */
 145:Generated_Source\PSoC5/ADC_DelSig.c ****     #if(ADC_DelSig_DEFAULT_NUM_CONFIGS > 2)
 146:Generated_Source\PSoC5/ADC_DelSig.c ****         ADC_DelSig_GainCompensation(ADC_DelSig_CFG3_INPUT_RANGE,
 147:Generated_Source\PSoC5/ADC_DelSig.c ****                                           ADC_DelSig_CFG3_IDEAL_DEC_GAIN,
 148:Generated_Source\PSoC5/ADC_DelSig.c ****                                           ADC_DelSig_CFG3_IDEAL_ODDDEC_GAIN,
 149:Generated_Source\PSoC5/ADC_DelSig.c ****                                           ADC_DelSig_CFG3_RESOLUTION,
 150:Generated_Source\PSoC5/ADC_DelSig.c ****                                           ADC_DelSig_CFG3);
 151:Generated_Source\PSoC5/ADC_DelSig.c ****     #endif /* ADC_DelSig_DEFAULT_NUM_CONFIGS > 2 */
 152:Generated_Source\PSoC5/ADC_DelSig.c ****     #if(ADC_DelSig_DEFAULT_NUM_CONFIGS > 3)
 153:Generated_Source\PSoC5/ADC_DelSig.c ****         ADC_DelSig_GainCompensation(ADC_DelSig_CFG4_INPUT_RANGE,
 154:Generated_Source\PSoC5/ADC_DelSig.c ****                                           ADC_DelSig_CFG4_IDEAL_DEC_GAIN,
 155:Generated_Source\PSoC5/ADC_DelSig.c ****                                           ADC_DelSig_CFG4_IDEAL_ODDDEC_GAIN,
 156:Generated_Source\PSoC5/ADC_DelSig.c ****                                           ADC_DelSig_CFG4_RESOLUTION,
 157:Generated_Source\PSoC5/ADC_DelSig.c ****                                           ADC_DelSig_CFG4);
 158:Generated_Source\PSoC5/ADC_DelSig.c ****     #endif /* ADC_DelSig_DEFAULT_NUM_CONFIGS > 3 */
 159:Generated_Source\PSoC5/ADC_DelSig.c **** 
 160:Generated_Source\PSoC5/ADC_DelSig.c ****     /* Set GCOR register for config1 */
 161:Generated_Source\PSoC5/ADC_DelSig.c ****     ADC_DelSig_DEC_GVAL_REG = ADC_DelSig_gcor[ADC_DelSig_Config - 1u].gval;
 159              		.loc 1 161 0
 160 0098 1D4A     		ldr	r2, .L2+64
 161 009a 0D4B     		ldr	r3, .L2
 162 009c 1B78     		ldrb	r3, [r3]
 163 009e DBB2     		uxtb	r3, r3
 164 00a0 013B     		subs	r3, r3, #1
 165 00a2 1C49     		ldr	r1, .L2+68
 166 00a4 9B00     		lsls	r3, r3, #2
 167 00a6 0B44     		add	r3, r3, r1
 168 00a8 9B78     		ldrb	r3, [r3, #2]	@ zero_extendqisi2
 169 00aa 1370     		strb	r3, [r2]
 162:Generated_Source\PSoC5/ADC_DelSig.c ****     CY_SET_REG16(ADC_DelSig_DEC_GCOR_16B_PTR, ADC_DelSig_gcor[ADC_DelSig_Config - 1u].gcor);
 170              		.loc 1 162 0
 171 00ac 1A4A     		ldr	r2, .L2+72
 172 00ae 084B     		ldr	r3, .L2
 173 00b0 1B78     		ldrb	r3, [r3]
 174 00b2 DBB2     		uxtb	r3, r3
 175 00b4 013B     		subs	r3, r3, #1
 176 00b6 1749     		ldr	r1, .L2+68
 177 00b8 31F82330 		ldrh	r3, [r1, r3, lsl #2]
 178 00bc 1380     		strh	r3, [r2]	@ movhi
 163:Generated_Source\PSoC5/ADC_DelSig.c **** 
 164:Generated_Source\PSoC5/ADC_DelSig.c ****     /* Initialize the registers with default customizer settings for config1 */
ARM GAS  C:\Users\Matthew\AppData\Local\Temp\ccXxauDk.s 			page 7


 165:Generated_Source\PSoC5/ADC_DelSig.c ****     ADC_DelSig_InitConfig(ADC_DelSig_Config);
 179              		.loc 1 165 0
 180 00be 044B     		ldr	r3, .L2
 181 00c0 1B78     		ldrb	r3, [r3]
 182 00c2 DBB2     		uxtb	r3, r3
 183 00c4 1846     		mov	r0, r3
 184 00c6 FFF7FEFF 		bl	ADC_DelSig_InitConfig
 166:Generated_Source\PSoC5/ADC_DelSig.c **** }
 185              		.loc 1 166 0
 186 00ca 00BF     		nop
 187 00cc BD46     		mov	sp, r7
 188              		.cfi_def_cfa_register 13
 189              		@ sp needed
 190 00ce 80BD     		pop	{r7, pc}
 191              	.L3:
 192              		.align	2
 193              	.L2:
 194 00d0 00000000 		.word	ADC_DelSig_Config
 195 00d4 00000000 		.word	ADC_DelSig_convDone
 196 00d8 96580040 		.word	1073764502
 197 00dc 97580040 		.word	1073764503
 198 00e0 9E580040 		.word	1073764510
 199 00e4 075B0040 		.word	1073765127
 200 00e8 93580040 		.word	1073764499
 201 00ec 885B0040 		.word	1073765256
 202 00f0 895B0040 		.word	1073765257
 203 00f4 80580040 		.word	1073764480
 204 00f8 81580040 		.word	1073764481
 205 00fc 83580040 		.word	1073764483
 206 0100 88580040 		.word	1073764488
 207 0104 89580040 		.word	1073764489
 208 0108 8D580040 		.word	1073764493
 209 010c 014E0040 		.word	1073761793
 210 0110 0E4E0040 		.word	1073761806
 211 0114 04000000 		.word	ADC_DelSig_gcor
 212 0118 0C4E0040 		.word	1073761804
 213              		.cfi_endproc
 214              	.LFE0:
 215              		.size	ADC_DelSig_Init, .-ADC_DelSig_Init
 216              		.section	.text.ADC_DelSig_Enable,"ax",%progbits
 217              		.align	2
 218              		.global	ADC_DelSig_Enable
 219              		.thumb
 220              		.thumb_func
 221              		.type	ADC_DelSig_Enable, %function
 222              	ADC_DelSig_Enable:
 223              	.LFB1:
 167:Generated_Source\PSoC5/ADC_DelSig.c **** 
 168:Generated_Source\PSoC5/ADC_DelSig.c **** 
 169:Generated_Source\PSoC5/ADC_DelSig.c **** /******************************************************************************
 170:Generated_Source\PSoC5/ADC_DelSig.c **** * Function Name: ADC_DelSig_Enable
 171:Generated_Source\PSoC5/ADC_DelSig.c **** *******************************************************************************
 172:Generated_Source\PSoC5/ADC_DelSig.c **** *
 173:Generated_Source\PSoC5/ADC_DelSig.c **** * Summary:
 174:Generated_Source\PSoC5/ADC_DelSig.c **** *  Enables the ADC DelSig block operation.
 175:Generated_Source\PSoC5/ADC_DelSig.c **** *
 176:Generated_Source\PSoC5/ADC_DelSig.c **** *
ARM GAS  C:\Users\Matthew\AppData\Local\Temp\ccXxauDk.s 			page 8


 177:Generated_Source\PSoC5/ADC_DelSig.c **** * Parameters:
 178:Generated_Source\PSoC5/ADC_DelSig.c **** *  None
 179:Generated_Source\PSoC5/ADC_DelSig.c **** *
 180:Generated_Source\PSoC5/ADC_DelSig.c **** * Return:
 181:Generated_Source\PSoC5/ADC_DelSig.c **** *  None
 182:Generated_Source\PSoC5/ADC_DelSig.c **** *
 183:Generated_Source\PSoC5/ADC_DelSig.c **** *******************************************************************************/
 184:Generated_Source\PSoC5/ADC_DelSig.c **** void ADC_DelSig_Enable(void) 
 185:Generated_Source\PSoC5/ADC_DelSig.c **** {
 224              		.loc 1 185 0
 225              		.cfi_startproc
 226              		@ args = 0, pretend = 0, frame = 8
 227              		@ frame_needed = 1, uses_anonymous_args = 0
 228 0000 80B5     		push	{r7, lr}
 229              		.cfi_def_cfa_offset 8
 230              		.cfi_offset 7, -8
 231              		.cfi_offset 14, -4
 232 0002 82B0     		sub	sp, sp, #8
 233              		.cfi_def_cfa_offset 16
 234 0004 00AF     		add	r7, sp, #0
 235              		.cfi_def_cfa_register 7
 186:Generated_Source\PSoC5/ADC_DelSig.c **** 	uint8 config;
 187:Generated_Source\PSoC5/ADC_DelSig.c ****     uint8 enableInterrupts;
 188:Generated_Source\PSoC5/ADC_DelSig.c ****     enableInterrupts = CyEnterCriticalSection();
 236              		.loc 1 188 0
 237 0006 FFF7FEFF 		bl	CyEnterCriticalSection
 238 000a 0346     		mov	r3, r0
 239 000c FB71     		strb	r3, [r7, #7]
 189:Generated_Source\PSoC5/ADC_DelSig.c **** 
 190:Generated_Source\PSoC5/ADC_DelSig.c ****     /* Read volatile variable to the local variable */
 191:Generated_Source\PSoC5/ADC_DelSig.c ****     config = ADC_DelSig_Config;
 240              		.loc 1 191 0
 241 000e 444B     		ldr	r3, .L5
 242 0010 1B78     		ldrb	r3, [r3]
 243 0012 BB71     		strb	r3, [r7, #6]
 192:Generated_Source\PSoC5/ADC_DelSig.c ****     
 193:Generated_Source\PSoC5/ADC_DelSig.c ****     /* Enable active mode power for ADC */
 194:Generated_Source\PSoC5/ADC_DelSig.c ****     ADC_DelSig_PWRMGR_DEC_REG |= ADC_DelSig_ACT_PWR_DEC_EN;
 244              		.loc 1 194 0
 245 0014 434A     		ldr	r2, .L5+4
 246 0016 434B     		ldr	r3, .L5+4
 247 0018 1B78     		ldrb	r3, [r3]
 248 001a DBB2     		uxtb	r3, r3
 249 001c 43F00103 		orr	r3, r3, #1
 250 0020 DBB2     		uxtb	r3, r3
 251 0022 1370     		strb	r3, [r2]
 195:Generated_Source\PSoC5/ADC_DelSig.c ****     ADC_DelSig_PWRMGR_DSM_REG |= ADC_DelSig_ACT_PWR_DSM_EN;
 252              		.loc 1 195 0
 253 0024 3F4A     		ldr	r2, .L5+4
 254 0026 3F4B     		ldr	r3, .L5+4
 255 0028 1B78     		ldrb	r3, [r3]
 256 002a DBB2     		uxtb	r3, r3
 257 002c 43F01003 		orr	r3, r3, #16
 258 0030 DBB2     		uxtb	r3, r3
 259 0032 1370     		strb	r3, [r2]
 196:Generated_Source\PSoC5/ADC_DelSig.c **** 
 197:Generated_Source\PSoC5/ADC_DelSig.c ****      /* Enable alternative active mode power for ADC */
ARM GAS  C:\Users\Matthew\AppData\Local\Temp\ccXxauDk.s 			page 9


 198:Generated_Source\PSoC5/ADC_DelSig.c ****     ADC_DelSig_STBY_PWRMGR_DEC_REG |= ADC_DelSig_STBY_PWR_DEC_EN;
 260              		.loc 1 198 0
 261 0034 3C4A     		ldr	r2, .L5+8
 262 0036 3C4B     		ldr	r3, .L5+8
 263 0038 1B78     		ldrb	r3, [r3]
 264 003a DBB2     		uxtb	r3, r3
 265 003c 43F00103 		orr	r3, r3, #1
 266 0040 DBB2     		uxtb	r3, r3
 267 0042 1370     		strb	r3, [r2]
 199:Generated_Source\PSoC5/ADC_DelSig.c ****     ADC_DelSig_STBY_PWRMGR_DSM_REG |= ADC_DelSig_STBY_PWR_DSM_EN;
 268              		.loc 1 199 0
 269 0044 384A     		ldr	r2, .L5+8
 270 0046 384B     		ldr	r3, .L5+8
 271 0048 1B78     		ldrb	r3, [r3]
 272 004a DBB2     		uxtb	r3, r3
 273 004c 43F01003 		orr	r3, r3, #16
 274 0050 DBB2     		uxtb	r3, r3
 275 0052 1370     		strb	r3, [r2]
 200:Generated_Source\PSoC5/ADC_DelSig.c **** 
 201:Generated_Source\PSoC5/ADC_DelSig.c ****     /* Disable PRES, Enable power to VCMBUF0, REFBUF0 and REFBUF1, enable PRES */
 202:Generated_Source\PSoC5/ADC_DelSig.c ****     ADC_DelSig_RESET_CR4_REG |= ADC_DelSig_IGNORE_PRESA1;
 276              		.loc 1 202 0
 277 0054 354A     		ldr	r2, .L5+12
 278 0056 354B     		ldr	r3, .L5+12
 279 0058 1B78     		ldrb	r3, [r3]
 280 005a DBB2     		uxtb	r3, r3
 281 005c 43F00203 		orr	r3, r3, #2
 282 0060 DBB2     		uxtb	r3, r3
 283 0062 1370     		strb	r3, [r2]
 203:Generated_Source\PSoC5/ADC_DelSig.c ****     ADC_DelSig_RESET_CR5_REG |= ADC_DelSig_IGNORE_PRESA2;
 284              		.loc 1 203 0
 285 0064 324A     		ldr	r2, .L5+16
 286 0066 324B     		ldr	r3, .L5+16
 287 0068 1B78     		ldrb	r3, [r3]
 288 006a DBB2     		uxtb	r3, r3
 289 006c 43F00203 		orr	r3, r3, #2
 290 0070 DBB2     		uxtb	r3, r3
 291 0072 1370     		strb	r3, [r2]
 204:Generated_Source\PSoC5/ADC_DelSig.c **** 
 205:Generated_Source\PSoC5/ADC_DelSig.c ****     ADC_DelSig_DSM_CR17_REG |= (ADC_DelSig_DSM_EN_BUF_VREF | ADC_DelSig_DSM_EN_BUF_VCM);
 292              		.loc 1 205 0
 293 0074 2F4A     		ldr	r2, .L5+20
 294 0076 2F4B     		ldr	r3, .L5+20
 295 0078 1B78     		ldrb	r3, [r3]
 296 007a DBB2     		uxtb	r3, r3
 297 007c 43F00303 		orr	r3, r3, #3
 298 0080 DBB2     		uxtb	r3, r3
 299 0082 1370     		strb	r3, [r2]
 206:Generated_Source\PSoC5/ADC_DelSig.c **** 
 207:Generated_Source\PSoC5/ADC_DelSig.c ****     /* Code to disable the REFBUF0 if reference chosen is External ref */
 208:Generated_Source\PSoC5/ADC_DelSig.c ****     #if (((ADC_DelSig_CFG1_REFERENCE == ADC_DelSig_EXT_REF_ON_P03) || \
 209:Generated_Source\PSoC5/ADC_DelSig.c ****           (ADC_DelSig_CFG1_REFERENCE == ADC_DelSig_EXT_REF_ON_P32)) || \
 210:Generated_Source\PSoC5/ADC_DelSig.c ****          ((ADC_DelSig_DEFAULT_NUM_CONFIGS > 1) && \
 211:Generated_Source\PSoC5/ADC_DelSig.c ****           ((ADC_DelSig_CFG2_REFERENCE == ADC_DelSig_EXT_REF_ON_P03) ||  \
 212:Generated_Source\PSoC5/ADC_DelSig.c ****            (ADC_DelSig_CFG2_REFERENCE == ADC_DelSig_EXT_REF_ON_P32))) || \
 213:Generated_Source\PSoC5/ADC_DelSig.c ****          ((ADC_DelSig_DEFAULT_NUM_CONFIGS > 2) && \
 214:Generated_Source\PSoC5/ADC_DelSig.c ****           ((ADC_DelSig_CFG3_REFERENCE == ADC_DelSig_EXT_REF_ON_P03) ||  \
ARM GAS  C:\Users\Matthew\AppData\Local\Temp\ccXxauDk.s 			page 10


 215:Generated_Source\PSoC5/ADC_DelSig.c ****            (ADC_DelSig_CFG3_REFERENCE == ADC_DelSig_EXT_REF_ON_P32))) || \
 216:Generated_Source\PSoC5/ADC_DelSig.c ****          ((ADC_DelSig_DEFAULT_NUM_CONFIGS > 3) && \
 217:Generated_Source\PSoC5/ADC_DelSig.c ****           ((ADC_DelSig_CFG4_REFERENCE == ADC_DelSig_EXT_REF_ON_P03) || \
 218:Generated_Source\PSoC5/ADC_DelSig.c ****            (ADC_DelSig_CFG4_REFERENCE == ADC_DelSig_EXT_REF_ON_P32))))
 219:Generated_Source\PSoC5/ADC_DelSig.c ****         if (((config == 1u) &&
 220:Generated_Source\PSoC5/ADC_DelSig.c ****             ((ADC_DelSig_CFG1_REFERENCE == ADC_DelSig_EXT_REF_ON_P03) ||
 221:Generated_Source\PSoC5/ADC_DelSig.c ****              (ADC_DelSig_CFG1_REFERENCE == ADC_DelSig_EXT_REF_ON_P32))) ||
 222:Generated_Source\PSoC5/ADC_DelSig.c ****             ((config == 2u) &&
 223:Generated_Source\PSoC5/ADC_DelSig.c ****             ((ADC_DelSig_CFG2_REFERENCE == ADC_DelSig_EXT_REF_ON_P03) ||
 224:Generated_Source\PSoC5/ADC_DelSig.c ****              (ADC_DelSig_CFG2_REFERENCE == ADC_DelSig_EXT_REF_ON_P32))) ||
 225:Generated_Source\PSoC5/ADC_DelSig.c ****             ((config == 3u) &&
 226:Generated_Source\PSoC5/ADC_DelSig.c ****             ((ADC_DelSig_CFG3_REFERENCE == ADC_DelSig_EXT_REF_ON_P03) ||
 227:Generated_Source\PSoC5/ADC_DelSig.c ****              (ADC_DelSig_CFG3_REFERENCE == ADC_DelSig_EXT_REF_ON_P32))) ||
 228:Generated_Source\PSoC5/ADC_DelSig.c ****             ((config == 4u) &&
 229:Generated_Source\PSoC5/ADC_DelSig.c ****             ((ADC_DelSig_CFG4_REFERENCE == ADC_DelSig_EXT_REF_ON_P03) ||
 230:Generated_Source\PSoC5/ADC_DelSig.c ****              (ADC_DelSig_CFG4_REFERENCE == ADC_DelSig_EXT_REF_ON_P32))))
 231:Generated_Source\PSoC5/ADC_DelSig.c ****         {
 232:Generated_Source\PSoC5/ADC_DelSig.c ****             /* Disable the REFBUF0 */
 233:Generated_Source\PSoC5/ADC_DelSig.c ****             ADC_DelSig_DSM_CR17_REG &= (uint8)~ADC_DelSig_DSM_EN_BUF_VREF;
 234:Generated_Source\PSoC5/ADC_DelSig.c ****         }
 235:Generated_Source\PSoC5/ADC_DelSig.c ****     #endif /* External ref */
 236:Generated_Source\PSoC5/ADC_DelSig.c **** 
 237:Generated_Source\PSoC5/ADC_DelSig.c ****     #if (((ADC_DelSig_CFG1_INPUT_RANGE == ADC_DelSig_IR_VSSA_TO_2VREF) || \
 238:Generated_Source\PSoC5/ADC_DelSig.c ****          ((ADC_DelSig_DEFAULT_NUM_CONFIGS > 1) && \
 239:Generated_Source\PSoC5/ADC_DelSig.c ****           (ADC_DelSig_CFG2_INPUT_RANGE == ADC_DelSig_IR_VSSA_TO_2VREF)) || \
 240:Generated_Source\PSoC5/ADC_DelSig.c ****          ((ADC_DelSig_DEFAULT_NUM_CONFIGS > 2) && \
 241:Generated_Source\PSoC5/ADC_DelSig.c ****           (ADC_DelSig_CFG3_INPUT_RANGE == ADC_DelSig_IR_VSSA_TO_2VREF)) || \
 242:Generated_Source\PSoC5/ADC_DelSig.c ****          ((ADC_DelSig_DEFAULT_NUM_CONFIGS > 3) && \
 243:Generated_Source\PSoC5/ADC_DelSig.c ****           (ADC_DelSig_CFG4_INPUT_RANGE == ADC_DelSig_IR_VSSA_TO_2VREF))))
 244:Generated_Source\PSoC5/ADC_DelSig.c ****         if(((config == 1u) &&
 245:Generated_Source\PSoC5/ADC_DelSig.c ****             (ADC_DelSig_CFG1_INPUT_RANGE == ADC_DelSig_IR_VSSA_TO_2VREF) &&
 246:Generated_Source\PSoC5/ADC_DelSig.c ****             ((ADC_DelSig_CFG1_REFERENCE != ADC_DelSig_EXT_REF_ON_P03) &&
 247:Generated_Source\PSoC5/ADC_DelSig.c ****              (ADC_DelSig_CFG1_REFERENCE != ADC_DelSig_EXT_REF_ON_P32))) ||
 248:Generated_Source\PSoC5/ADC_DelSig.c ****              ((config == 2u) &&
 249:Generated_Source\PSoC5/ADC_DelSig.c ****               (ADC_DelSig_CFG2_INPUT_RANGE == ADC_DelSig_IR_VSSA_TO_2VREF) &&
 250:Generated_Source\PSoC5/ADC_DelSig.c ****              ((ADC_DelSig_CFG2_REFERENCE != ADC_DelSig_EXT_REF_ON_P03) &&
 251:Generated_Source\PSoC5/ADC_DelSig.c ****              (ADC_DelSig_CFG2_REFERENCE != ADC_DelSig_EXT_REF_ON_P32))) ||
 252:Generated_Source\PSoC5/ADC_DelSig.c ****              ((config == 3u) &&
 253:Generated_Source\PSoC5/ADC_DelSig.c ****               (ADC_DelSig_CFG3_INPUT_RANGE == ADC_DelSig_IR_VSSA_TO_2VREF) &&
 254:Generated_Source\PSoC5/ADC_DelSig.c ****              ((ADC_DelSig_CFG3_REFERENCE != ADC_DelSig_EXT_REF_ON_P03) &&
 255:Generated_Source\PSoC5/ADC_DelSig.c ****              (ADC_DelSig_CFG3_REFERENCE != ADC_DelSig_EXT_REF_ON_P32))) ||
 256:Generated_Source\PSoC5/ADC_DelSig.c ****              ((config == 4u) &&
 257:Generated_Source\PSoC5/ADC_DelSig.c ****               (ADC_DelSig_CFG4_INPUT_RANGE == ADC_DelSig_IR_VSSA_TO_2VREF) &&
 258:Generated_Source\PSoC5/ADC_DelSig.c ****              ((ADC_DelSig_CFG4_REFERENCE != ADC_DelSig_EXT_REF_ON_P03) &&
 259:Generated_Source\PSoC5/ADC_DelSig.c ****              (ADC_DelSig_CFG4_REFERENCE != ADC_DelSig_EXT_REF_ON_P32))))
 260:Generated_Source\PSoC5/ADC_DelSig.c ****         {
 261:Generated_Source\PSoC5/ADC_DelSig.c ****             /* Enable the REFBUF1 */
 262:Generated_Source\PSoC5/ADC_DelSig.c ****             ADC_DelSig_DSM_REF0_REG |= ADC_DelSig_DSM_EN_BUF_VREF_INN;
 263:Generated_Source\PSoC5/ADC_DelSig.c ****         }
 264:Generated_Source\PSoC5/ADC_DelSig.c ****     #endif /* VSSA_TO_2VREF */
 265:Generated_Source\PSoC5/ADC_DelSig.c ****     if(config != 0u)
 266:Generated_Source\PSoC5/ADC_DelSig.c ****     {
 267:Generated_Source\PSoC5/ADC_DelSig.c ****         /* Suppress compiler warning */
 268:Generated_Source\PSoC5/ADC_DelSig.c ****     }
 269:Generated_Source\PSoC5/ADC_DelSig.c **** 
 270:Generated_Source\PSoC5/ADC_DelSig.c ****     /* Wait for 3 microseconds */
 271:Generated_Source\PSoC5/ADC_DelSig.c ****     CyDelayUs(ADC_DelSig_PRES_DELAY_TIME);
ARM GAS  C:\Users\Matthew\AppData\Local\Temp\ccXxauDk.s 			page 11


 300              		.loc 1 271 0
 301 0084 0320     		movs	r0, #3
 302 0086 FFF7FEFF 		bl	CyDelayUs
 272:Generated_Source\PSoC5/ADC_DelSig.c **** 
 273:Generated_Source\PSoC5/ADC_DelSig.c ****     /* Enable the press circuit */
 274:Generated_Source\PSoC5/ADC_DelSig.c ****     ADC_DelSig_RESET_CR4_REG &= (uint8)~ADC_DelSig_IGNORE_PRESA1;
 303              		.loc 1 274 0
 304 008a 284A     		ldr	r2, .L5+12
 305 008c 274B     		ldr	r3, .L5+12
 306 008e 1B78     		ldrb	r3, [r3]
 307 0090 DBB2     		uxtb	r3, r3
 308 0092 23F00203 		bic	r3, r3, #2
 309 0096 DBB2     		uxtb	r3, r3
 310 0098 1370     		strb	r3, [r2]
 275:Generated_Source\PSoC5/ADC_DelSig.c ****     ADC_DelSig_RESET_CR5_REG &= (uint8)~ADC_DelSig_IGNORE_PRESA2;
 311              		.loc 1 275 0
 312 009a 254A     		ldr	r2, .L5+16
 313 009c 244B     		ldr	r3, .L5+16
 314 009e 1B78     		ldrb	r3, [r3]
 315 00a0 DBB2     		uxtb	r3, r3
 316 00a2 23F00203 		bic	r3, r3, #2
 317 00a6 DBB2     		uxtb	r3, r3
 318 00a8 1370     		strb	r3, [r2]
 276:Generated_Source\PSoC5/ADC_DelSig.c **** 
 277:Generated_Source\PSoC5/ADC_DelSig.c ****     /* Enable negative pumps for DSM  */
 278:Generated_Source\PSoC5/ADC_DelSig.c ****     ADC_DelSig_PUMP_CR1_REG  |= ( ADC_DelSig_PUMP_CR1_CLKSEL | ADC_DelSig_PUMP_CR1_FORCE );
 319              		.loc 1 278 0
 320 00aa 234A     		ldr	r2, .L5+24
 321 00ac 224B     		ldr	r3, .L5+24
 322 00ae 1B78     		ldrb	r3, [r3]
 323 00b0 DBB2     		uxtb	r3, r3
 324 00b2 43F00603 		orr	r3, r3, #6
 325 00b6 DBB2     		uxtb	r3, r3
 326 00b8 1370     		strb	r3, [r2]
 279:Generated_Source\PSoC5/ADC_DelSig.c **** 
 280:Generated_Source\PSoC5/ADC_DelSig.c ****     /* Enable Modulator Chopping if required */
 281:Generated_Source\PSoC5/ADC_DelSig.c ****     ADC_DelSig_DSM_CR2_REG = ADC_DelSig_CFG1_DSM_CR2;
 327              		.loc 1 281 0
 328 00ba 204B     		ldr	r3, .L5+28
 329 00bc 7A22     		movs	r2, #122
 330 00be 1A70     		strb	r2, [r3]
 282:Generated_Source\PSoC5/ADC_DelSig.c **** 
 283:Generated_Source\PSoC5/ADC_DelSig.c ****     /* This is only valid if there is an internal clock */
 284:Generated_Source\PSoC5/ADC_DelSig.c ****     #if(ADC_DelSig_DEFAULT_INTERNAL_CLK)
 285:Generated_Source\PSoC5/ADC_DelSig.c ****         ADC_DelSig_PWRMGR_CLK_REG |= ADC_DelSig_ACT_PWR_CLK_EN;
 331              		.loc 1 285 0
 332 00c0 1F4A     		ldr	r2, .L5+32
 333 00c2 1F4B     		ldr	r3, .L5+32
 334 00c4 1B78     		ldrb	r3, [r3]
 335 00c6 DBB2     		uxtb	r3, r3
 336 00c8 43F00203 		orr	r3, r3, #2
 337 00cc DBB2     		uxtb	r3, r3
 338 00ce 1370     		strb	r3, [r2]
 286:Generated_Source\PSoC5/ADC_DelSig.c ****         ADC_DelSig_STBY_PWRMGR_CLK_REG |= ADC_DelSig_STBY_PWR_CLK_EN;
 339              		.loc 1 286 0
 340 00d0 1C4A     		ldr	r2, .L5+36
 341 00d2 1C4B     		ldr	r3, .L5+36
ARM GAS  C:\Users\Matthew\AppData\Local\Temp\ccXxauDk.s 			page 12


 342 00d4 1B78     		ldrb	r3, [r3]
 343 00d6 DBB2     		uxtb	r3, r3
 344 00d8 43F00203 		orr	r3, r3, #2
 345 00dc DBB2     		uxtb	r3, r3
 346 00de 1370     		strb	r3, [r2]
 287:Generated_Source\PSoC5/ADC_DelSig.c ****     #endif /* ADC_DelSig_DEFAULT_INTERNAL_CLK */
 288:Generated_Source\PSoC5/ADC_DelSig.c **** 
 289:Generated_Source\PSoC5/ADC_DelSig.c ****     /* Enable the active and alternate active power for charge pump clock */
 290:Generated_Source\PSoC5/ADC_DelSig.c ****     ADC_DelSig_PWRMGR_CHARGE_PUMP_CLK_REG |= ADC_DelSig_ACT_PWR_CHARGE_PUMP_CLK_EN;
 347              		.loc 1 290 0
 348 00e0 194A     		ldr	r2, .L5+40
 349 00e2 194B     		ldr	r3, .L5+40
 350 00e4 1B78     		ldrb	r3, [r3]
 351 00e6 DBB2     		uxtb	r3, r3
 352 00e8 43F00103 		orr	r3, r3, #1
 353 00ec DBB2     		uxtb	r3, r3
 354 00ee 1370     		strb	r3, [r2]
 291:Generated_Source\PSoC5/ADC_DelSig.c ****     ADC_DelSig_STBY_PWRMGR_CHARGE_PUMP_CLK_REG |= ADC_DelSig_STBY_PWR_CHARGE_PUMP_CLK_EN;
 355              		.loc 1 291 0
 356 00f0 164A     		ldr	r2, .L5+44
 357 00f2 164B     		ldr	r3, .L5+44
 358 00f4 1B78     		ldrb	r3, [r3]
 359 00f6 DBB2     		uxtb	r3, r3
 360 00f8 43F00103 		orr	r3, r3, #1
 361 00fc DBB2     		uxtb	r3, r3
 362 00fe 1370     		strb	r3, [r2]
 292:Generated_Source\PSoC5/ADC_DelSig.c **** 
 293:Generated_Source\PSoC5/ADC_DelSig.c ****     #if(ADC_DelSig_IRQ_REMOVE == 0u)
 294:Generated_Source\PSoC5/ADC_DelSig.c ****         /* Clear a pending interrupt */
 295:Generated_Source\PSoC5/ADC_DelSig.c ****         CyIntClearPending(ADC_DelSig_INTC_NUMBER);
 363              		.loc 1 295 0
 364 0100 134B     		ldr	r3, .L5+48
 365 0102 4FF00052 		mov	r2, #536870912
 366 0106 1A60     		str	r2, [r3]
 296:Generated_Source\PSoC5/ADC_DelSig.c ****         /* Enable interrupt */
 297:Generated_Source\PSoC5/ADC_DelSig.c ****         CyIntEnable(ADC_DelSig_INTC_NUMBER);
 367              		.loc 1 297 0
 368 0108 124B     		ldr	r3, .L5+52
 369 010a 4FF00052 		mov	r2, #536870912
 370 010e 1A60     		str	r2, [r3]
 298:Generated_Source\PSoC5/ADC_DelSig.c ****     #endif   /* End ADC_DelSig_IRQ_REMOVE */
 299:Generated_Source\PSoC5/ADC_DelSig.c **** 
 300:Generated_Source\PSoC5/ADC_DelSig.c ****     CyExitCriticalSection(enableInterrupts);
 371              		.loc 1 300 0
 372 0110 FB79     		ldrb	r3, [r7, #7]	@ zero_extendqisi2
 373 0112 1846     		mov	r0, r3
 374 0114 FFF7FEFF 		bl	CyExitCriticalSection
 301:Generated_Source\PSoC5/ADC_DelSig.c **** 
 302:Generated_Source\PSoC5/ADC_DelSig.c **** }
 375              		.loc 1 302 0
 376 0118 00BF     		nop
 377 011a 0837     		adds	r7, r7, #8
 378              		.cfi_def_cfa_offset 8
 379 011c BD46     		mov	sp, r7
 380              		.cfi_def_cfa_register 13
 381              		@ sp needed
 382 011e 80BD     		pop	{r7, pc}
ARM GAS  C:\Users\Matthew\AppData\Local\Temp\ccXxauDk.s 			page 13


 383              	.L6:
 384              		.align	2
 385              	.L5:
 386 0120 00000000 		.word	ADC_DelSig_Config
 387 0124 AA430040 		.word	1073759146
 388 0128 BA430040 		.word	1073759162
 389 012c F8460040 		.word	1073759992
 390 0130 F9460040 		.word	1073759993
 391 0134 91580040 		.word	1073764497
 392 0138 77580040 		.word	1073764471
 393 013c 82580040 		.word	1073764482
 394 0140 A1430040 		.word	1073759137
 395 0144 B1430040 		.word	1073759153
 396 0148 A2430040 		.word	1073759138
 397 014c B2430040 		.word	1073759154
 398 0150 80E200E0 		.word	-536812928
 399 0154 00E100E0 		.word	-536813312
 400              		.cfi_endproc
 401              	.LFE1:
 402              		.size	ADC_DelSig_Enable, .-ADC_DelSig_Enable
 403              		.section	.text.ADC_DelSig_Start,"ax",%progbits
 404              		.align	2
 405              		.global	ADC_DelSig_Start
 406              		.thumb
 407              		.thumb_func
 408              		.type	ADC_DelSig_Start, %function
 409              	ADC_DelSig_Start:
 410              	.LFB2:
 303:Generated_Source\PSoC5/ADC_DelSig.c **** 
 304:Generated_Source\PSoC5/ADC_DelSig.c **** 
 305:Generated_Source\PSoC5/ADC_DelSig.c **** /*******************************************************************************
 306:Generated_Source\PSoC5/ADC_DelSig.c **** * Function Name: ADC_DelSig_Start
 307:Generated_Source\PSoC5/ADC_DelSig.c **** ********************************************************************************
 308:Generated_Source\PSoC5/ADC_DelSig.c **** *
 309:Generated_Source\PSoC5/ADC_DelSig.c **** * Summary:
 310:Generated_Source\PSoC5/ADC_DelSig.c **** *  Performs all required initialization for this component and enables
 311:Generated_Source\PSoC5/ADC_DelSig.c **** *  the power. It configure all the register the first time it is called.
 312:Generated_Source\PSoC5/ADC_DelSig.c **** *  Subsequent calls of the Start function only enable the ADC and turn
 313:Generated_Source\PSoC5/ADC_DelSig.c **** *  on the power. If multiple configurations are selected, it will
 314:Generated_Source\PSoC5/ADC_DelSig.c **** *  configure the ADC for configuration 1 by default, unless the
 315:Generated_Source\PSoC5/ADC_DelSig.c **** *  ADC_DelSig_SelectConfiguration( ) function has been called to change
 316:Generated_Source\PSoC5/ADC_DelSig.c **** *  the default setting.
 317:Generated_Source\PSoC5/ADC_DelSig.c **** *
 318:Generated_Source\PSoC5/ADC_DelSig.c **** * Parameters:
 319:Generated_Source\PSoC5/ADC_DelSig.c **** *  None
 320:Generated_Source\PSoC5/ADC_DelSig.c **** *
 321:Generated_Source\PSoC5/ADC_DelSig.c **** * Return:
 322:Generated_Source\PSoC5/ADC_DelSig.c **** *  None
 323:Generated_Source\PSoC5/ADC_DelSig.c **** *
 324:Generated_Source\PSoC5/ADC_DelSig.c **** * Global variables:
 325:Generated_Source\PSoC5/ADC_DelSig.c **** *  ADC_DelSig_initVar:  Used to check the initial configuration,
 326:Generated_Source\PSoC5/ADC_DelSig.c **** *  modified when this function is called for the first time.
 327:Generated_Source\PSoC5/ADC_DelSig.c **** *
 328:Generated_Source\PSoC5/ADC_DelSig.c **** *******************************************************************************/
 329:Generated_Source\PSoC5/ADC_DelSig.c **** void ADC_DelSig_Start(void) 
 330:Generated_Source\PSoC5/ADC_DelSig.c **** {
 411              		.loc 1 330 0
ARM GAS  C:\Users\Matthew\AppData\Local\Temp\ccXxauDk.s 			page 14


 412              		.cfi_startproc
 413              		@ args = 0, pretend = 0, frame = 0
 414              		@ frame_needed = 1, uses_anonymous_args = 0
 415 0000 80B5     		push	{r7, lr}
 416              		.cfi_def_cfa_offset 8
 417              		.cfi_offset 7, -8
 418              		.cfi_offset 14, -4
 419 0002 00AF     		add	r7, sp, #0
 420              		.cfi_def_cfa_register 7
 331:Generated_Source\PSoC5/ADC_DelSig.c ****     if(ADC_DelSig_initVar == 0u)
 421              		.loc 1 331 0
 422 0004 084B     		ldr	r3, .L10
 423 0006 1B78     		ldrb	r3, [r3]	@ zero_extendqisi2
 424 0008 002B     		cmp	r3, #0
 425 000a 09D1     		bne	.L8
 332:Generated_Source\PSoC5/ADC_DelSig.c ****     {
 333:Generated_Source\PSoC5/ADC_DelSig.c ****         if(ADC_DelSig_started == 0u)
 426              		.loc 1 333 0
 427 000c 074B     		ldr	r3, .L10+4
 428 000e 1B78     		ldrb	r3, [r3]
 429 0010 DBB2     		uxtb	r3, r3
 430 0012 002B     		cmp	r3, #0
 431 0014 01D1     		bne	.L9
 334:Generated_Source\PSoC5/ADC_DelSig.c ****         {
 335:Generated_Source\PSoC5/ADC_DelSig.c ****             ADC_DelSig_Init();
 432              		.loc 1 335 0
 433 0016 FFF7FEFF 		bl	ADC_DelSig_Init
 434              	.L9:
 336:Generated_Source\PSoC5/ADC_DelSig.c ****         }
 337:Generated_Source\PSoC5/ADC_DelSig.c ****         ADC_DelSig_initVar = 1u;
 435              		.loc 1 337 0
 436 001a 034B     		ldr	r3, .L10
 437 001c 0122     		movs	r2, #1
 438 001e 1A70     		strb	r2, [r3]
 439              	.L8:
 338:Generated_Source\PSoC5/ADC_DelSig.c ****     }
 339:Generated_Source\PSoC5/ADC_DelSig.c **** 
 340:Generated_Source\PSoC5/ADC_DelSig.c ****     /* Enable the ADC */
 341:Generated_Source\PSoC5/ADC_DelSig.c ****     ADC_DelSig_Enable();
 440              		.loc 1 341 0
 441 0020 FFF7FEFF 		bl	ADC_DelSig_Enable
 342:Generated_Source\PSoC5/ADC_DelSig.c **** }
 442              		.loc 1 342 0
 443 0024 00BF     		nop
 444 0026 80BD     		pop	{r7, pc}
 445              	.L11:
 446              		.align	2
 447              	.L10:
 448 0028 00000000 		.word	ADC_DelSig_initVar
 449 002c 00000000 		.word	ADC_DelSig_started
 450              		.cfi_endproc
 451              	.LFE2:
 452              		.size	ADC_DelSig_Start, .-ADC_DelSig_Start
 453              		.section	.text.ADC_DelSig_Stop,"ax",%progbits
 454              		.align	2
 455              		.global	ADC_DelSig_Stop
 456              		.thumb
ARM GAS  C:\Users\Matthew\AppData\Local\Temp\ccXxauDk.s 			page 15


 457              		.thumb_func
 458              		.type	ADC_DelSig_Stop, %function
 459              	ADC_DelSig_Stop:
 460              	.LFB3:
 343:Generated_Source\PSoC5/ADC_DelSig.c **** 
 344:Generated_Source\PSoC5/ADC_DelSig.c **** 
 345:Generated_Source\PSoC5/ADC_DelSig.c **** /*******************************************************************************
 346:Generated_Source\PSoC5/ADC_DelSig.c **** * Function Name: ADC_DelSig_Stop
 347:Generated_Source\PSoC5/ADC_DelSig.c **** ********************************************************************************
 348:Generated_Source\PSoC5/ADC_DelSig.c **** *
 349:Generated_Source\PSoC5/ADC_DelSig.c **** * Summary:
 350:Generated_Source\PSoC5/ADC_DelSig.c **** *  This function stops and powers down the ADC component and the internal
 351:Generated_Source\PSoC5/ADC_DelSig.c **** *  clock if the external clock is not selected. If an external clock is
 352:Generated_Source\PSoC5/ADC_DelSig.c **** *  used, it is up to the designer to power down the external clock it
 353:Generated_Source\PSoC5/ADC_DelSig.c **** *  required.
 354:Generated_Source\PSoC5/ADC_DelSig.c **** *
 355:Generated_Source\PSoC5/ADC_DelSig.c **** * Parameters:
 356:Generated_Source\PSoC5/ADC_DelSig.c **** *  None
 357:Generated_Source\PSoC5/ADC_DelSig.c **** *
 358:Generated_Source\PSoC5/ADC_DelSig.c **** * Return:
 359:Generated_Source\PSoC5/ADC_DelSig.c **** *  None
 360:Generated_Source\PSoC5/ADC_DelSig.c **** *
 361:Generated_Source\PSoC5/ADC_DelSig.c **** *******************************************************************************/
 362:Generated_Source\PSoC5/ADC_DelSig.c **** void ADC_DelSig_Stop(void) 
 363:Generated_Source\PSoC5/ADC_DelSig.c **** {
 461              		.loc 1 363 0
 462              		.cfi_startproc
 463              		@ args = 0, pretend = 0, frame = 8
 464              		@ frame_needed = 1, uses_anonymous_args = 0
 465 0000 80B5     		push	{r7, lr}
 466              		.cfi_def_cfa_offset 8
 467              		.cfi_offset 7, -8
 468              		.cfi_offset 14, -4
 469 0002 82B0     		sub	sp, sp, #8
 470              		.cfi_def_cfa_offset 16
 471 0004 00AF     		add	r7, sp, #0
 472              		.cfi_def_cfa_register 7
 364:Generated_Source\PSoC5/ADC_DelSig.c ****     uint8 enableInterrupts;
 365:Generated_Source\PSoC5/ADC_DelSig.c ****     enableInterrupts = CyEnterCriticalSection();
 473              		.loc 1 365 0
 474 0006 FFF7FEFF 		bl	CyEnterCriticalSection
 475 000a 0346     		mov	r3, r0
 476 000c FB71     		strb	r3, [r7, #7]
 366:Generated_Source\PSoC5/ADC_DelSig.c **** 
 367:Generated_Source\PSoC5/ADC_DelSig.c ****     /* Stop conversions */
 368:Generated_Source\PSoC5/ADC_DelSig.c ****     ADC_DelSig_DEC_CR_REG &= (uint8)~ADC_DelSig_DEC_START_CONV;
 477              		.loc 1 368 0
 478 000e 4D4A     		ldr	r2, .L13
 479 0010 4C4B     		ldr	r3, .L13
 480 0012 1B78     		ldrb	r3, [r3]
 481 0014 DBB2     		uxtb	r3, r3
 482 0016 23F00103 		bic	r3, r3, #1
 483 001a DBB2     		uxtb	r3, r3
 484 001c 1370     		strb	r3, [r2]
 369:Generated_Source\PSoC5/ADC_DelSig.c ****     ADC_DelSig_DEC_SR_REG |=  ADC_DelSig_DEC_INTR_CLEAR;
 485              		.loc 1 369 0
 486 001e 4A4A     		ldr	r2, .L13+4
ARM GAS  C:\Users\Matthew\AppData\Local\Temp\ccXxauDk.s 			page 16


 487 0020 494B     		ldr	r3, .L13+4
 488 0022 1B78     		ldrb	r3, [r3]
 489 0024 DBB2     		uxtb	r3, r3
 490 0026 43F00403 		orr	r3, r3, #4
 491 002a DBB2     		uxtb	r3, r3
 492 002c 1370     		strb	r3, [r2]
 370:Generated_Source\PSoC5/ADC_DelSig.c **** 
 371:Generated_Source\PSoC5/ADC_DelSig.c ****     /* Disable PRES, Disable power to VCMBUF0, REFBUF0 and REFBUF1,
 372:Generated_Source\PSoC5/ADC_DelSig.c ****        enable PRES */
 373:Generated_Source\PSoC5/ADC_DelSig.c ****     ADC_DelSig_RESET_CR4_REG |= ADC_DelSig_IGNORE_PRESA1;
 493              		.loc 1 373 0
 494 002e 474A     		ldr	r2, .L13+8
 495 0030 464B     		ldr	r3, .L13+8
 496 0032 1B78     		ldrb	r3, [r3]
 497 0034 DBB2     		uxtb	r3, r3
 498 0036 43F00203 		orr	r3, r3, #2
 499 003a DBB2     		uxtb	r3, r3
 500 003c 1370     		strb	r3, [r2]
 374:Generated_Source\PSoC5/ADC_DelSig.c ****     ADC_DelSig_RESET_CR5_REG |= ADC_DelSig_IGNORE_PRESA2;
 501              		.loc 1 374 0
 502 003e 444A     		ldr	r2, .L13+12
 503 0040 434B     		ldr	r3, .L13+12
 504 0042 1B78     		ldrb	r3, [r3]
 505 0044 DBB2     		uxtb	r3, r3
 506 0046 43F00203 		orr	r3, r3, #2
 507 004a DBB2     		uxtb	r3, r3
 508 004c 1370     		strb	r3, [r2]
 375:Generated_Source\PSoC5/ADC_DelSig.c **** 
 376:Generated_Source\PSoC5/ADC_DelSig.c ****     ADC_DelSig_DSM_CR17_REG &= (uint8)~(ADC_DelSig_DSM_EN_BUF_VREF | ADC_DelSig_DSM_EN_BUF_VCM);
 509              		.loc 1 376 0
 510 004e 414A     		ldr	r2, .L13+16
 511 0050 404B     		ldr	r3, .L13+16
 512 0052 1B78     		ldrb	r3, [r3]
 513 0054 DBB2     		uxtb	r3, r3
 514 0056 23F00303 		bic	r3, r3, #3
 515 005a DBB2     		uxtb	r3, r3
 516 005c 1370     		strb	r3, [r2]
 377:Generated_Source\PSoC5/ADC_DelSig.c ****     ADC_DelSig_DSM_REF0_REG &= (uint8)~ADC_DelSig_DSM_EN_BUF_VREF_INN;
 517              		.loc 1 377 0
 518 005e 3E4A     		ldr	r2, .L13+20
 519 0060 3D4B     		ldr	r3, .L13+20
 520 0062 1B78     		ldrb	r3, [r3]
 521 0064 DBB2     		uxtb	r3, r3
 522 0066 23F00803 		bic	r3, r3, #8
 523 006a DBB2     		uxtb	r3, r3
 524 006c 1370     		strb	r3, [r2]
 378:Generated_Source\PSoC5/ADC_DelSig.c **** 
 379:Generated_Source\PSoC5/ADC_DelSig.c ****     /* Wait for 3 microseconds. */
 380:Generated_Source\PSoC5/ADC_DelSig.c ****     CyDelayUs(ADC_DelSig_PRES_DELAY_TIME);
 525              		.loc 1 380 0
 526 006e 0320     		movs	r0, #3
 527 0070 FFF7FEFF 		bl	CyDelayUs
 381:Generated_Source\PSoC5/ADC_DelSig.c **** 
 382:Generated_Source\PSoC5/ADC_DelSig.c ****     /* Enable the press circuit */
 383:Generated_Source\PSoC5/ADC_DelSig.c ****     ADC_DelSig_RESET_CR4_REG &= (uint8)~ADC_DelSig_IGNORE_PRESA1;
 528              		.loc 1 383 0
 529 0074 354A     		ldr	r2, .L13+8
ARM GAS  C:\Users\Matthew\AppData\Local\Temp\ccXxauDk.s 			page 17


 530 0076 354B     		ldr	r3, .L13+8
 531 0078 1B78     		ldrb	r3, [r3]
 532 007a DBB2     		uxtb	r3, r3
 533 007c 23F00203 		bic	r3, r3, #2
 534 0080 DBB2     		uxtb	r3, r3
 535 0082 1370     		strb	r3, [r2]
 384:Generated_Source\PSoC5/ADC_DelSig.c ****     ADC_DelSig_RESET_CR5_REG &= (uint8)~ADC_DelSig_IGNORE_PRESA2;
 536              		.loc 1 384 0
 537 0084 324A     		ldr	r2, .L13+12
 538 0086 324B     		ldr	r3, .L13+12
 539 0088 1B78     		ldrb	r3, [r3]
 540 008a DBB2     		uxtb	r3, r3
 541 008c 23F00203 		bic	r3, r3, #2
 542 0090 DBB2     		uxtb	r3, r3
 543 0092 1370     		strb	r3, [r2]
 385:Generated_Source\PSoC5/ADC_DelSig.c **** 
 386:Generated_Source\PSoC5/ADC_DelSig.c ****     /* Disable power to the ADC */
 387:Generated_Source\PSoC5/ADC_DelSig.c ****     ADC_DelSig_PWRMGR_DSM_REG &= (uint8)~ADC_DelSig_ACT_PWR_DSM_EN;
 544              		.loc 1 387 0
 545 0094 314A     		ldr	r2, .L13+24
 546 0096 314B     		ldr	r3, .L13+24
 547 0098 1B78     		ldrb	r3, [r3]
 548 009a DBB2     		uxtb	r3, r3
 549 009c 23F01003 		bic	r3, r3, #16
 550 00a0 DBB2     		uxtb	r3, r3
 551 00a2 1370     		strb	r3, [r2]
 388:Generated_Source\PSoC5/ADC_DelSig.c **** 
 389:Generated_Source\PSoC5/ADC_DelSig.c ****     /* Disable power to Decimator block */
 390:Generated_Source\PSoC5/ADC_DelSig.c ****     ADC_DelSig_PWRMGR_DEC_REG &= (uint8)~ADC_DelSig_ACT_PWR_DEC_EN;
 552              		.loc 1 390 0
 553 00a4 2D4A     		ldr	r2, .L13+24
 554 00a6 2D4B     		ldr	r3, .L13+24
 555 00a8 1B78     		ldrb	r3, [r3]
 556 00aa DBB2     		uxtb	r3, r3
 557 00ac 23F00103 		bic	r3, r3, #1
 558 00b0 DBB2     		uxtb	r3, r3
 559 00b2 1370     		strb	r3, [r2]
 391:Generated_Source\PSoC5/ADC_DelSig.c **** 
 392:Generated_Source\PSoC5/ADC_DelSig.c ****     /* Disable alternative active power to the ADC */
 393:Generated_Source\PSoC5/ADC_DelSig.c ****     ADC_DelSig_STBY_PWRMGR_DEC_REG &= (uint8)~ADC_DelSig_STBY_PWR_DEC_EN;
 560              		.loc 1 393 0
 561 00b4 2A4A     		ldr	r2, .L13+28
 562 00b6 2A4B     		ldr	r3, .L13+28
 563 00b8 1B78     		ldrb	r3, [r3]
 564 00ba DBB2     		uxtb	r3, r3
 565 00bc 23F00103 		bic	r3, r3, #1
 566 00c0 DBB2     		uxtb	r3, r3
 567 00c2 1370     		strb	r3, [r2]
 394:Generated_Source\PSoC5/ADC_DelSig.c ****     ADC_DelSig_STBY_PWRMGR_DSM_REG &= (uint8)~ADC_DelSig_STBY_PWR_DSM_EN;
 568              		.loc 1 394 0
 569 00c4 264A     		ldr	r2, .L13+28
 570 00c6 264B     		ldr	r3, .L13+28
 571 00c8 1B78     		ldrb	r3, [r3]
 572 00ca DBB2     		uxtb	r3, r3
 573 00cc 23F01003 		bic	r3, r3, #16
 574 00d0 DBB2     		uxtb	r3, r3
 575 00d2 1370     		strb	r3, [r2]
ARM GAS  C:\Users\Matthew\AppData\Local\Temp\ccXxauDk.s 			page 18


 395:Generated_Source\PSoC5/ADC_DelSig.c **** 
 396:Generated_Source\PSoC5/ADC_DelSig.c ****    /* Disable negative pumps for DSM  */
 397:Generated_Source\PSoC5/ADC_DelSig.c ****     ADC_DelSig_PUMP_CR1_REG &= (uint8)~(ADC_DelSig_PUMP_CR1_CLKSEL | ADC_DelSig_PUMP_CR1_FORCE );
 576              		.loc 1 397 0
 577 00d4 234A     		ldr	r2, .L13+32
 578 00d6 234B     		ldr	r3, .L13+32
 579 00d8 1B78     		ldrb	r3, [r3]
 580 00da DBB2     		uxtb	r3, r3
 581 00dc 23F00603 		bic	r3, r3, #6
 582 00e0 DBB2     		uxtb	r3, r3
 583 00e2 1370     		strb	r3, [r2]
 398:Generated_Source\PSoC5/ADC_DelSig.c **** 
 399:Generated_Source\PSoC5/ADC_DelSig.c ****     /* This is only valid if there is an internal clock */
 400:Generated_Source\PSoC5/ADC_DelSig.c ****     #if(ADC_DelSig_DEFAULT_INTERNAL_CLK)
 401:Generated_Source\PSoC5/ADC_DelSig.c ****         ADC_DelSig_PWRMGR_CLK_REG &= (uint8)~ADC_DelSig_ACT_PWR_CLK_EN;
 584              		.loc 1 401 0
 585 00e4 204A     		ldr	r2, .L13+36
 586 00e6 204B     		ldr	r3, .L13+36
 587 00e8 1B78     		ldrb	r3, [r3]
 588 00ea DBB2     		uxtb	r3, r3
 589 00ec 23F00203 		bic	r3, r3, #2
 590 00f0 DBB2     		uxtb	r3, r3
 591 00f2 1370     		strb	r3, [r2]
 402:Generated_Source\PSoC5/ADC_DelSig.c ****         ADC_DelSig_STBY_PWRMGR_CLK_REG &= (uint8)~ADC_DelSig_STBY_PWR_CLK_EN;
 592              		.loc 1 402 0
 593 00f4 1D4A     		ldr	r2, .L13+40
 594 00f6 1D4B     		ldr	r3, .L13+40
 595 00f8 1B78     		ldrb	r3, [r3]
 596 00fa DBB2     		uxtb	r3, r3
 597 00fc 23F00203 		bic	r3, r3, #2
 598 0100 DBB2     		uxtb	r3, r3
 599 0102 1370     		strb	r3, [r2]
 403:Generated_Source\PSoC5/ADC_DelSig.c ****     #endif /* ADC_DelSig_DEFAULT_INTERNAL_CLK */
 404:Generated_Source\PSoC5/ADC_DelSig.c **** 
 405:Generated_Source\PSoC5/ADC_DelSig.c ****     /* Disable Modulator Chopping */
 406:Generated_Source\PSoC5/ADC_DelSig.c ****     ADC_DelSig_DSM_CR2_REG &= (uint8)~ADC_DelSig_DSM_MOD_CHOP_EN;
 600              		.loc 1 406 0
 601 0104 1A4A     		ldr	r2, .L13+44
 602 0106 1A4B     		ldr	r3, .L13+44
 603 0108 1B78     		ldrb	r3, [r3]
 604 010a DBB2     		uxtb	r3, r3
 605 010c 23F00803 		bic	r3, r3, #8
 606 0110 DBB2     		uxtb	r3, r3
 607 0112 1370     		strb	r3, [r2]
 407:Generated_Source\PSoC5/ADC_DelSig.c ****     /* Disable power to charge pump clock */
 408:Generated_Source\PSoC5/ADC_DelSig.c ****     ADC_DelSig_PWRMGR_CHARGE_PUMP_CLK_REG &= (uint8)~ADC_DelSig_ACT_PWR_CHARGE_PUMP_CLK_EN;
 608              		.loc 1 408 0
 609 0114 174A     		ldr	r2, .L13+48
 610 0116 174B     		ldr	r3, .L13+48
 611 0118 1B78     		ldrb	r3, [r3]
 612 011a DBB2     		uxtb	r3, r3
 613 011c 23F00103 		bic	r3, r3, #1
 614 0120 DBB2     		uxtb	r3, r3
 615 0122 1370     		strb	r3, [r2]
 409:Generated_Source\PSoC5/ADC_DelSig.c ****     ADC_DelSig_STBY_PWRMGR_CHARGE_PUMP_CLK_REG &= (uint8)~ADC_DelSig_STBY_PWR_CHARGE_PUMP_CLK_EN;
 616              		.loc 1 409 0
 617 0124 144A     		ldr	r2, .L13+52
ARM GAS  C:\Users\Matthew\AppData\Local\Temp\ccXxauDk.s 			page 19


 618 0126 144B     		ldr	r3, .L13+52
 619 0128 1B78     		ldrb	r3, [r3]
 620 012a DBB2     		uxtb	r3, r3
 621 012c 23F00103 		bic	r3, r3, #1
 622 0130 DBB2     		uxtb	r3, r3
 623 0132 1370     		strb	r3, [r2]
 410:Generated_Source\PSoC5/ADC_DelSig.c ****     
 411:Generated_Source\PSoC5/ADC_DelSig.c ****     CyExitCriticalSection(enableInterrupts);
 624              		.loc 1 411 0
 625 0134 FB79     		ldrb	r3, [r7, #7]	@ zero_extendqisi2
 626 0136 1846     		mov	r0, r3
 627 0138 FFF7FEFF 		bl	CyExitCriticalSection
 412:Generated_Source\PSoC5/ADC_DelSig.c **** }
 628              		.loc 1 412 0
 629 013c 00BF     		nop
 630 013e 0837     		adds	r7, r7, #8
 631              		.cfi_def_cfa_offset 8
 632 0140 BD46     		mov	sp, r7
 633              		.cfi_def_cfa_register 13
 634              		@ sp needed
 635 0142 80BD     		pop	{r7, pc}
 636              	.L14:
 637              		.align	2
 638              	.L13:
 639 0144 004E0040 		.word	1073761792
 640 0148 014E0040 		.word	1073761793
 641 014c F8460040 		.word	1073759992
 642 0150 F9460040 		.word	1073759993
 643 0154 91580040 		.word	1073764497
 644 0158 92580040 		.word	1073764498
 645 015c AA430040 		.word	1073759146
 646 0160 BA430040 		.word	1073759162
 647 0164 77580040 		.word	1073764471
 648 0168 A1430040 		.word	1073759137
 649 016c B1430040 		.word	1073759153
 650 0170 82580040 		.word	1073764482
 651 0174 A2430040 		.word	1073759138
 652 0178 B2430040 		.word	1073759154
 653              		.cfi_endproc
 654              	.LFE3:
 655              		.size	ADC_DelSig_Stop, .-ADC_DelSig_Stop
 656              		.section	.text.ADC_DelSig_SetBufferGain,"ax",%progbits
 657              		.align	2
 658              		.global	ADC_DelSig_SetBufferGain
 659              		.thumb
 660              		.thumb_func
 661              		.type	ADC_DelSig_SetBufferGain, %function
 662              	ADC_DelSig_SetBufferGain:
 663              	.LFB4:
 413:Generated_Source\PSoC5/ADC_DelSig.c **** 
 414:Generated_Source\PSoC5/ADC_DelSig.c **** 
 415:Generated_Source\PSoC5/ADC_DelSig.c **** /*******************************************************************************
 416:Generated_Source\PSoC5/ADC_DelSig.c **** * Function Name: ADC_DelSig_SetBufferGain
 417:Generated_Source\PSoC5/ADC_DelSig.c **** ********************************************************************************
 418:Generated_Source\PSoC5/ADC_DelSig.c **** *
 419:Generated_Source\PSoC5/ADC_DelSig.c **** * Summary:
 420:Generated_Source\PSoC5/ADC_DelSig.c **** *  Sets input buffer gain.
ARM GAS  C:\Users\Matthew\AppData\Local\Temp\ccXxauDk.s 			page 20


 421:Generated_Source\PSoC5/ADC_DelSig.c **** *
 422:Generated_Source\PSoC5/ADC_DelSig.c **** * Parameters:
 423:Generated_Source\PSoC5/ADC_DelSig.c **** *  gain:  Two bit value to select a gain of 1, 2, 4, or 8.
 424:Generated_Source\PSoC5/ADC_DelSig.c **** *
 425:Generated_Source\PSoC5/ADC_DelSig.c **** * Return:
 426:Generated_Source\PSoC5/ADC_DelSig.c **** *  None
 427:Generated_Source\PSoC5/ADC_DelSig.c **** *
 428:Generated_Source\PSoC5/ADC_DelSig.c **** *******************************************************************************/
 429:Generated_Source\PSoC5/ADC_DelSig.c **** void ADC_DelSig_SetBufferGain(uint8 gain) 
 430:Generated_Source\PSoC5/ADC_DelSig.c **** {
 664              		.loc 1 430 0
 665              		.cfi_startproc
 666              		@ args = 0, pretend = 0, frame = 16
 667              		@ frame_needed = 1, uses_anonymous_args = 0
 668              		@ link register save eliminated.
 669 0000 80B4     		push	{r7}
 670              		.cfi_def_cfa_offset 4
 671              		.cfi_offset 7, -4
 672 0002 85B0     		sub	sp, sp, #20
 673              		.cfi_def_cfa_offset 24
 674 0004 00AF     		add	r7, sp, #0
 675              		.cfi_def_cfa_register 7
 676 0006 0346     		mov	r3, r0
 677 0008 FB71     		strb	r3, [r7, #7]
 431:Generated_Source\PSoC5/ADC_DelSig.c ****     uint8 tmpReg;
 432:Generated_Source\PSoC5/ADC_DelSig.c ****     tmpReg = ADC_DelSig_DSM_BUF1_REG & (uint8)~ADC_DelSig_DSM_GAIN_MASK;
 678              		.loc 1 432 0
 679 000a 0B4B     		ldr	r3, .L16
 680 000c 1B78     		ldrb	r3, [r3]
 681 000e DBB2     		uxtb	r3, r3
 682 0010 23F00C03 		bic	r3, r3, #12
 683 0014 FB73     		strb	r3, [r7, #15]
 433:Generated_Source\PSoC5/ADC_DelSig.c ****     tmpReg |= (uint8)(gain << ADC_DelSig_DSM_GAIN_SHIFT) & ADC_DelSig_DSM_GAIN_MASK;
 684              		.loc 1 433 0
 685 0016 FB79     		ldrb	r3, [r7, #7]
 686 0018 9B00     		lsls	r3, r3, #2
 687 001a DBB2     		uxtb	r3, r3
 688 001c 03F00C03 		and	r3, r3, #12
 689 0020 DAB2     		uxtb	r2, r3
 690 0022 FB7B     		ldrb	r3, [r7, #15]
 691 0024 1343     		orrs	r3, r3, r2
 692 0026 FB73     		strb	r3, [r7, #15]
 434:Generated_Source\PSoC5/ADC_DelSig.c ****     ADC_DelSig_DSM_BUF1_REG = tmpReg;
 693              		.loc 1 434 0
 694 0028 034A     		ldr	r2, .L16
 695 002a FB7B     		ldrb	r3, [r7, #15]
 696 002c 1370     		strb	r3, [r2]
 435:Generated_Source\PSoC5/ADC_DelSig.c **** }
 697              		.loc 1 435 0
 698 002e 00BF     		nop
 699 0030 1437     		adds	r7, r7, #20
 700              		.cfi_def_cfa_offset 4
 701 0032 BD46     		mov	sp, r7
 702              		.cfi_def_cfa_register 13
 703              		@ sp needed
 704 0034 80BC     		pop	{r7}
 705              		.cfi_restore 7
ARM GAS  C:\Users\Matthew\AppData\Local\Temp\ccXxauDk.s 			page 21


 706              		.cfi_def_cfa_offset 0
 707 0036 7047     		bx	lr
 708              	.L17:
 709              		.align	2
 710              	.L16:
 711 0038 9B580040 		.word	1073764507
 712              		.cfi_endproc
 713              	.LFE4:
 714              		.size	ADC_DelSig_SetBufferGain, .-ADC_DelSig_SetBufferGain
 715              		.section	.text.ADC_DelSig_SetCoherency,"ax",%progbits
 716              		.align	2
 717              		.global	ADC_DelSig_SetCoherency
 718              		.thumb
 719              		.thumb_func
 720              		.type	ADC_DelSig_SetCoherency, %function
 721              	ADC_DelSig_SetCoherency:
 722              	.LFB5:
 436:Generated_Source\PSoC5/ADC_DelSig.c **** 
 437:Generated_Source\PSoC5/ADC_DelSig.c **** 
 438:Generated_Source\PSoC5/ADC_DelSig.c **** /*******************************************************************************
 439:Generated_Source\PSoC5/ADC_DelSig.c **** * Function Name: ADC_DelSig_SetCoherency
 440:Generated_Source\PSoC5/ADC_DelSig.c **** ********************************************************************************
 441:Generated_Source\PSoC5/ADC_DelSig.c **** *
 442:Generated_Source\PSoC5/ADC_DelSig.c **** * Summary:
 443:Generated_Source\PSoC5/ADC_DelSig.c **** *  This function allows the user to change which of the ADC's 3 word
 444:Generated_Source\PSoC5/ADC_DelSig.c **** *  result will trigger a coherency unlock. The ADC's result will not be
 445:Generated_Source\PSoC5/ADC_DelSig.c **** *  updated until the set byte is read either by the ADC or DMA. 
 446:Generated_Source\PSoC5/ADC_DelSig.c **** *  By default the LSB is the coherency byte for right alignment data format. 
 447:Generated_Source\PSoC5/ADC_DelSig.c **** *  The middle or high byte is set automatically depend on left alignment 
 448:Generated_Source\PSoC5/ADC_DelSig.c **** *  configuration for DMA data transfer.
 449:Generated_Source\PSoC5/ADC_DelSig.c **** *  If DMA or if a custom API requires different byte to be read the last,
 450:Generated_Source\PSoC5/ADC_DelSig.c **** *  this API should be used to set the last byte of the ADC result that is read. 
 451:Generated_Source\PSoC5/ADC_DelSig.c **** *  If a multibyte read is performed either by DMA or the ARM processor, the
 452:Generated_Source\PSoC5/ADC_DelSig.c **** *  coherency can be set to any byte in the last word read.
 453:Generated_Source\PSoC5/ADC_DelSig.c **** *
 454:Generated_Source\PSoC5/ADC_DelSig.c **** * Parameters:
 455:Generated_Source\PSoC5/ADC_DelSig.c **** *  coherency:  Two bit value to set the coherency bit.
 456:Generated_Source\PSoC5/ADC_DelSig.c **** *           00-Coherency checking off
 457:Generated_Source\PSoC5/ADC_DelSig.c **** *           01-low byte is key byte
 458:Generated_Source\PSoC5/ADC_DelSig.c **** *           02-middle byte is the key byte
 459:Generated_Source\PSoC5/ADC_DelSig.c **** *           03-high byte is the key byte
 460:Generated_Source\PSoC5/ADC_DelSig.c **** *
 461:Generated_Source\PSoC5/ADC_DelSig.c **** * Return:
 462:Generated_Source\PSoC5/ADC_DelSig.c **** *  None
 463:Generated_Source\PSoC5/ADC_DelSig.c **** *
 464:Generated_Source\PSoC5/ADC_DelSig.c **** *******************************************************************************/
 465:Generated_Source\PSoC5/ADC_DelSig.c **** void ADC_DelSig_SetCoherency(uint8 coherency) 
 466:Generated_Source\PSoC5/ADC_DelSig.c **** {
 723              		.loc 1 466 0
 724              		.cfi_startproc
 725              		@ args = 0, pretend = 0, frame = 16
 726              		@ frame_needed = 1, uses_anonymous_args = 0
 727              		@ link register save eliminated.
 728 0000 80B4     		push	{r7}
 729              		.cfi_def_cfa_offset 4
 730              		.cfi_offset 7, -4
 731 0002 85B0     		sub	sp, sp, #20
ARM GAS  C:\Users\Matthew\AppData\Local\Temp\ccXxauDk.s 			page 22


 732              		.cfi_def_cfa_offset 24
 733 0004 00AF     		add	r7, sp, #0
 734              		.cfi_def_cfa_register 7
 735 0006 0346     		mov	r3, r0
 736 0008 FB71     		strb	r3, [r7, #7]
 467:Generated_Source\PSoC5/ADC_DelSig.c ****     uint8 tmpReg;
 468:Generated_Source\PSoC5/ADC_DelSig.c **** 
 469:Generated_Source\PSoC5/ADC_DelSig.c ****     tmpReg = ADC_DelSig_DEC_COHER_REG & (uint8)~ADC_DelSig_DEC_SAMP_KEY_MASK;
 737              		.loc 1 469 0
 738 000a 0A4B     		ldr	r3, .L19
 739 000c 1B78     		ldrb	r3, [r3]
 740 000e DBB2     		uxtb	r3, r3
 741 0010 23F00303 		bic	r3, r3, #3
 742 0014 FB73     		strb	r3, [r7, #15]
 470:Generated_Source\PSoC5/ADC_DelSig.c ****     tmpReg |= coherency & ADC_DelSig_DEC_SAMP_KEY_MASK;
 743              		.loc 1 470 0
 744 0016 FB79     		ldrb	r3, [r7, #7]
 745 0018 03F00303 		and	r3, r3, #3
 746 001c DAB2     		uxtb	r2, r3
 747 001e FB7B     		ldrb	r3, [r7, #15]
 748 0020 1343     		orrs	r3, r3, r2
 749 0022 FB73     		strb	r3, [r7, #15]
 471:Generated_Source\PSoC5/ADC_DelSig.c ****     ADC_DelSig_DEC_COHER_REG = tmpReg;
 750              		.loc 1 471 0
 751 0024 034A     		ldr	r2, .L19
 752 0026 FB7B     		ldrb	r3, [r7, #15]
 753 0028 1370     		strb	r3, [r2]
 472:Generated_Source\PSoC5/ADC_DelSig.c **** }
 754              		.loc 1 472 0
 755 002a 00BF     		nop
 756 002c 1437     		adds	r7, r7, #20
 757              		.cfi_def_cfa_offset 4
 758 002e BD46     		mov	sp, r7
 759              		.cfi_def_cfa_register 13
 760              		@ sp needed
 761 0030 80BC     		pop	{r7}
 762              		.cfi_restore 7
 763              		.cfi_def_cfa_offset 0
 764 0032 7047     		bx	lr
 765              	.L20:
 766              		.align	2
 767              	.L19:
 768 0034 144E0040 		.word	1073761812
 769              		.cfi_endproc
 770              	.LFE5:
 771              		.size	ADC_DelSig_SetCoherency, .-ADC_DelSig_SetCoherency
 772              		.global	__aeabi_ui2f
 773              		.global	__aeabi_fdiv
 774              		.global	__aeabi_fmul
 775              		.global	__aeabi_f2d
 776              		.global	__aeabi_dcmpgt
 777              		.global	__aeabi_f2uiz
 778              		.section	.text.ADC_DelSig_SetGCOR,"ax",%progbits
 779              		.align	2
 780              		.global	ADC_DelSig_SetGCOR
 781              		.thumb
 782              		.thumb_func
ARM GAS  C:\Users\Matthew\AppData\Local\Temp\ccXxauDk.s 			page 23


 783              		.type	ADC_DelSig_SetGCOR, %function
 784              	ADC_DelSig_SetGCOR:
 785              	.LFB6:
 473:Generated_Source\PSoC5/ADC_DelSig.c **** 
 474:Generated_Source\PSoC5/ADC_DelSig.c **** 
 475:Generated_Source\PSoC5/ADC_DelSig.c **** /*******************************************************************************
 476:Generated_Source\PSoC5/ADC_DelSig.c **** * Function Name: ADC_DelSig_SetGCOR
 477:Generated_Source\PSoC5/ADC_DelSig.c **** ********************************************************************************
 478:Generated_Source\PSoC5/ADC_DelSig.c **** *
 479:Generated_Source\PSoC5/ADC_DelSig.c **** * Summary:
 480:Generated_Source\PSoC5/ADC_DelSig.c **** *  Calculates a new GCOR value and writes it into the GCOR register. 
 481:Generated_Source\PSoC5/ADC_DelSig.c **** *  The GCOR value is a 16-bit value that represents a gain of 0 to 2. 
 482:Generated_Source\PSoC5/ADC_DelSig.c **** *  The ADC result is multiplied by this value before it is placed in the ADC 
 483:Generated_Source\PSoC5/ADC_DelSig.c **** *  output registers. The numerical format for the GCOR value is:
 484:Generated_Source\PSoC5/ADC_DelSig.c **** *  0x0000 -> 0.000
 485:Generated_Source\PSoC5/ADC_DelSig.c **** *  0x8000 -> 1.000
 486:Generated_Source\PSoC5/ADC_DelSig.c **** *  0xFFFF -> 1.99997
 487:Generated_Source\PSoC5/ADC_DelSig.c **** *  When executing the function, the old GCOR value is multiplied by
 488:Generated_Source\PSoC5/ADC_DelSig.c **** *  gainAdjust and reloaded into the GCOR register.
 489:Generated_Source\PSoC5/ADC_DelSig.c **** *
 490:Generated_Source\PSoC5/ADC_DelSig.c **** * Parameters:
 491:Generated_Source\PSoC5/ADC_DelSig.c **** *  gainAdjust:  floating point value to set GCOR registers.
 492:Generated_Source\PSoC5/ADC_DelSig.c **** *
 493:Generated_Source\PSoC5/ADC_DelSig.c **** * Return:
 494:Generated_Source\PSoC5/ADC_DelSig.c **** *  uint8: 0 - if GCOR value is within the expected range.
 495:Generated_Source\PSoC5/ADC_DelSig.c **** *         1 - the correction value is outside GCOR value range of
 496:Generated_Source\PSoC5/ADC_DelSig.c **** *             0.00 to 1.9999.
 497:Generated_Source\PSoC5/ADC_DelSig.c **** *
 498:Generated_Source\PSoC5/ADC_DelSig.c **** * Side Effects:  The GVAL register is set to the amount of valid bits in the
 499:Generated_Source\PSoC5/ADC_DelSig.c **** *                GCOR  register minus one. If GVAL is 15 (0x0F), all 16 bits
 500:Generated_Source\PSoC5/ADC_DelSig.c **** *                of the GCOR registers will be valid. If for example GVAL is
 501:Generated_Source\PSoC5/ADC_DelSig.c **** *                11 (0x0B) only 12 bits will be valid. The least 4 bits will
 502:Generated_Source\PSoC5/ADC_DelSig.c **** *                be lost when the GCOR value is shifted 4 places to the right.
 503:Generated_Source\PSoC5/ADC_DelSig.c **** *
 504:Generated_Source\PSoC5/ADC_DelSig.c **** ******************************************************************************/
 505:Generated_Source\PSoC5/ADC_DelSig.c **** uint8 ADC_DelSig_SetGCOR(float32 gainAdjust) 
 506:Generated_Source\PSoC5/ADC_DelSig.c **** {
 786              		.loc 1 506 0
 787              		.cfi_startproc
 788              		@ args = 0, pretend = 0, frame = 16
 789              		@ frame_needed = 1, uses_anonymous_args = 0
 790 0000 80B5     		push	{r7, lr}
 791              		.cfi_def_cfa_offset 8
 792              		.cfi_offset 7, -8
 793              		.cfi_offset 14, -4
 794 0002 84B0     		sub	sp, sp, #16
 795              		.cfi_def_cfa_offset 24
 796 0004 00AF     		add	r7, sp, #0
 797              		.cfi_def_cfa_register 7
 798 0006 7860     		str	r0, [r7, #4]	@ float
 507:Generated_Source\PSoC5/ADC_DelSig.c ****     uint16 tmpReg;
 508:Generated_Source\PSoC5/ADC_DelSig.c ****     uint8 status;
 509:Generated_Source\PSoC5/ADC_DelSig.c ****     float32 tmpValue;
 510:Generated_Source\PSoC5/ADC_DelSig.c **** 
 511:Generated_Source\PSoC5/ADC_DelSig.c ****     tmpReg = ADC_DelSig_gcor[ADC_DelSig_Config - 1u].gcor;
 799              		.loc 1 511 0
 800 0008 254B     		ldr	r3, .L28+8
ARM GAS  C:\Users\Matthew\AppData\Local\Temp\ccXxauDk.s 			page 24


 801 000a 1B78     		ldrb	r3, [r3]
 802 000c DBB2     		uxtb	r3, r3
 803 000e 013B     		subs	r3, r3, #1
 804 0010 244A     		ldr	r2, .L28+12
 805 0012 32F82330 		ldrh	r3, [r2, r3, lsl #2]	@ movhi
 806 0016 BB81     		strh	r3, [r7, #12]	@ movhi
 512:Generated_Source\PSoC5/ADC_DelSig.c ****     tmpValue = ((float32)tmpReg / (float32)ADC_DelSig_IDEAL_GAIN_CONST);
 807              		.loc 1 512 0
 808 0018 BB89     		ldrh	r3, [r7, #12]
 809 001a 1846     		mov	r0, r3
 810 001c FFF7FEFF 		bl	__aeabi_ui2f
 811 0020 0346     		mov	r3, r0
 812 0022 4FF08E41 		mov	r1, #1191182336
 813 0026 1846     		mov	r0, r3
 814 0028 FFF7FEFF 		bl	__aeabi_fdiv
 815 002c 0346     		mov	r3, r0
 816 002e BB60     		str	r3, [r7, #8]	@ float
 513:Generated_Source\PSoC5/ADC_DelSig.c ****     tmpValue = tmpValue * gainAdjust;
 817              		.loc 1 513 0
 818 0030 7968     		ldr	r1, [r7, #4]	@ float
 819 0032 B868     		ldr	r0, [r7, #8]	@ float
 820 0034 FFF7FEFF 		bl	__aeabi_fmul
 821 0038 0346     		mov	r3, r0
 822 003a BB60     		str	r3, [r7, #8]	@ float
 514:Generated_Source\PSoC5/ADC_DelSig.c **** 
 515:Generated_Source\PSoC5/ADC_DelSig.c ****     if (tmpValue > 1.9999)
 823              		.loc 1 515 0
 824 003c B868     		ldr	r0, [r7, #8]	@ float
 825 003e FFF7FEFF 		bl	__aeabi_f2d
 826 0042 15A3     		adr	r3, .L28
 827 0044 D3E90023 		ldrd	r2, [r3]
 828 0048 FFF7FEFF 		bl	__aeabi_dcmpgt
 829 004c 0346     		mov	r3, r0
 830 004e 002B     		cmp	r3, #0
 831 0050 02D0     		beq	.L27
 516:Generated_Source\PSoC5/ADC_DelSig.c ****     {
 517:Generated_Source\PSoC5/ADC_DelSig.c ****         status = 1u;
 832              		.loc 1 517 0
 833 0052 0123     		movs	r3, #1
 834 0054 FB73     		strb	r3, [r7, #15]
 835 0056 18E0     		b	.L24
 836              	.L27:
 518:Generated_Source\PSoC5/ADC_DelSig.c ****     }
 519:Generated_Source\PSoC5/ADC_DelSig.c ****     else
 520:Generated_Source\PSoC5/ADC_DelSig.c ****     {
 521:Generated_Source\PSoC5/ADC_DelSig.c ****         tmpValue *= (float32)ADC_DelSig_IDEAL_GAIN_CONST;
 837              		.loc 1 521 0
 838 0058 4FF08E41 		mov	r1, #1191182336
 839 005c B868     		ldr	r0, [r7, #8]	@ float
 840 005e FFF7FEFF 		bl	__aeabi_fmul
 841 0062 0346     		mov	r3, r0
 842 0064 BB60     		str	r3, [r7, #8]	@ float
 522:Generated_Source\PSoC5/ADC_DelSig.c **** 		tmpReg = (uint16)tmpValue;
 843              		.loc 1 522 0
 844 0066 B868     		ldr	r0, [r7, #8]	@ float
 845 0068 FFF7FEFF 		bl	__aeabi_f2uiz
 846 006c 0346     		mov	r3, r0
ARM GAS  C:\Users\Matthew\AppData\Local\Temp\ccXxauDk.s 			page 25


 847 006e BB81     		strh	r3, [r7, #12]	@ movhi
 523:Generated_Source\PSoC5/ADC_DelSig.c ****         CY_SET_REG16(ADC_DelSig_DEC_GCOR_16B_PTR, tmpReg);
 848              		.loc 1 523 0
 849 0070 0D4A     		ldr	r2, .L28+16
 850 0072 BB89     		ldrh	r3, [r7, #12]	@ movhi
 851 0074 1380     		strh	r3, [r2]	@ movhi
 524:Generated_Source\PSoC5/ADC_DelSig.c ****         /* Update gain array to be used by SelectConfiguration() API */
 525:Generated_Source\PSoC5/ADC_DelSig.c ****        ADC_DelSig_gcor[ADC_DelSig_Config - 1u].gcor = tmpReg;
 852              		.loc 1 525 0
 853 0076 0A4B     		ldr	r3, .L28+8
 854 0078 1B78     		ldrb	r3, [r3]
 855 007a DBB2     		uxtb	r3, r3
 856 007c 013B     		subs	r3, r3, #1
 857 007e 0949     		ldr	r1, .L28+12
 858 0080 BA89     		ldrh	r2, [r7, #12]	@ movhi
 859 0082 21F82320 		strh	r2, [r1, r3, lsl #2]	@ movhi
 526:Generated_Source\PSoC5/ADC_DelSig.c **** 
 527:Generated_Source\PSoC5/ADC_DelSig.c ****         status = 0u;
 860              		.loc 1 527 0
 861 0086 0023     		movs	r3, #0
 862 0088 FB73     		strb	r3, [r7, #15]
 863              	.L24:
 528:Generated_Source\PSoC5/ADC_DelSig.c **** 
 529:Generated_Source\PSoC5/ADC_DelSig.c ****     }
 530:Generated_Source\PSoC5/ADC_DelSig.c ****     return(status);
 864              		.loc 1 530 0
 865 008a FB7B     		ldrb	r3, [r7, #15]	@ zero_extendqisi2
 531:Generated_Source\PSoC5/ADC_DelSig.c **** }
 866              		.loc 1 531 0
 867 008c 1846     		mov	r0, r3
 868 008e 1037     		adds	r7, r7, #16
 869              		.cfi_def_cfa_offset 8
 870 0090 BD46     		mov	sp, r7
 871              		.cfi_def_cfa_register 13
 872              		@ sp needed
 873 0092 80BD     		pop	{r7, pc}
 874              	.L29:
 875 0094 AFF30080 		.align	3
 876              	.L28:
 877 0098 8F537424 		.word	611603343
 878 009c 97FFFF3F 		.word	1073741719
 879 00a0 00000000 		.word	ADC_DelSig_Config
 880 00a4 04000000 		.word	ADC_DelSig_gcor
 881 00a8 0C4E0040 		.word	1073761804
 882              		.cfi_endproc
 883              	.LFE6:
 884              		.size	ADC_DelSig_SetGCOR, .-ADC_DelSig_SetGCOR
 885              		.section	.text.ADC_DelSig_ReadGCOR,"ax",%progbits
 886              		.align	2
 887              		.global	ADC_DelSig_ReadGCOR
 888              		.thumb
 889              		.thumb_func
 890              		.type	ADC_DelSig_ReadGCOR, %function
 891              	ADC_DelSig_ReadGCOR:
 892              	.LFB7:
 532:Generated_Source\PSoC5/ADC_DelSig.c **** 
 533:Generated_Source\PSoC5/ADC_DelSig.c **** 
ARM GAS  C:\Users\Matthew\AppData\Local\Temp\ccXxauDk.s 			page 26


 534:Generated_Source\PSoC5/ADC_DelSig.c **** /******************************************************************************
 535:Generated_Source\PSoC5/ADC_DelSig.c **** * Function Name: ADC_DelSig_ReadGCOR
 536:Generated_Source\PSoC5/ADC_DelSig.c **** *******************************************************************************
 537:Generated_Source\PSoC5/ADC_DelSig.c **** *
 538:Generated_Source\PSoC5/ADC_DelSig.c **** * Summary:
 539:Generated_Source\PSoC5/ADC_DelSig.c **** *  This API returns the current GCOR register value, normalized based on the
 540:Generated_Source\PSoC5/ADC_DelSig.c **** *  GVAL register settings.
 541:Generated_Source\PSoC5/ADC_DelSig.c **** *  For example, if the GCOR value is 0x0812 and the GVAL register is set to 
 542:Generated_Source\PSoC5/ADC_DelSig.c **** *  11 (0x0B) then the returned value will be shifted by for bits to the left.
 543:Generated_Source\PSoC5/ADC_DelSig.c **** *  (Actual GCOR value = 0x0812, returned value = 0x8120)
 544:Generated_Source\PSoC5/ADC_DelSig.c **** *
 545:Generated_Source\PSoC5/ADC_DelSig.c **** * Parameters:
 546:Generated_Source\PSoC5/ADC_DelSig.c **** *  None
 547:Generated_Source\PSoC5/ADC_DelSig.c **** *
 548:Generated_Source\PSoC5/ADC_DelSig.c **** * Return:
 549:Generated_Source\PSoC5/ADC_DelSig.c **** *  uint16:  Normalized GCOR value.
 550:Generated_Source\PSoC5/ADC_DelSig.c **** *
 551:Generated_Source\PSoC5/ADC_DelSig.c **** *******************************************************************************/
 552:Generated_Source\PSoC5/ADC_DelSig.c **** uint16 ADC_DelSig_ReadGCOR(void) 
 553:Generated_Source\PSoC5/ADC_DelSig.c **** {
 893              		.loc 1 553 0
 894              		.cfi_startproc
 895              		@ args = 0, pretend = 0, frame = 8
 896              		@ frame_needed = 1, uses_anonymous_args = 0
 897              		@ link register save eliminated.
 898 0000 80B4     		push	{r7}
 899              		.cfi_def_cfa_offset 4
 900              		.cfi_offset 7, -4
 901 0002 83B0     		sub	sp, sp, #12
 902              		.cfi_def_cfa_offset 16
 903 0004 00AF     		add	r7, sp, #0
 904              		.cfi_def_cfa_register 7
 554:Generated_Source\PSoC5/ADC_DelSig.c ****     uint8 gValue;
 555:Generated_Source\PSoC5/ADC_DelSig.c ****     uint16 gcorValue;
 556:Generated_Source\PSoC5/ADC_DelSig.c **** 
 557:Generated_Source\PSoC5/ADC_DelSig.c ****     gValue = ADC_DelSig_DEC_GVAL_REG;
 905              		.loc 1 557 0
 906 0006 0B4B     		ldr	r3, .L33
 907 0008 1B78     		ldrb	r3, [r3]
 908 000a 7B71     		strb	r3, [r7, #5]
 558:Generated_Source\PSoC5/ADC_DelSig.c ****     gcorValue = CY_GET_REG16(ADC_DelSig_DEC_GCOR_16B_PTR);
 909              		.loc 1 558 0
 910 000c 0A4B     		ldr	r3, .L33+4
 911 000e 1B88     		ldrh	r3, [r3]	@ movhi
 912 0010 FB80     		strh	r3, [r7, #6]	@ movhi
 559:Generated_Source\PSoC5/ADC_DelSig.c **** 
 560:Generated_Source\PSoC5/ADC_DelSig.c ****     if (gValue < ADC_DelSig_MAX_GVAL)
 913              		.loc 1 560 0
 914 0012 7B79     		ldrb	r3, [r7, #5]	@ zero_extendqisi2
 915 0014 0E2B     		cmp	r3, #14
 916 0016 06D8     		bhi	.L31
 561:Generated_Source\PSoC5/ADC_DelSig.c ****     {
 562:Generated_Source\PSoC5/ADC_DelSig.c ****         gcorValue <<= ADC_DelSig_MAX_GVAL - gValue;
 917              		.loc 1 562 0
 918 0018 FA88     		ldrh	r2, [r7, #6]
 919 001a 7B79     		ldrb	r3, [r7, #5]	@ zero_extendqisi2
 920 001c C3F10F03 		rsb	r3, r3, #15
ARM GAS  C:\Users\Matthew\AppData\Local\Temp\ccXxauDk.s 			page 27


 921 0020 02FA03F3 		lsl	r3, r2, r3
 922 0024 FB80     		strh	r3, [r7, #6]	@ movhi
 923              	.L31:
 563:Generated_Source\PSoC5/ADC_DelSig.c ****     }
 564:Generated_Source\PSoC5/ADC_DelSig.c **** 
 565:Generated_Source\PSoC5/ADC_DelSig.c ****     return gcorValue;
 924              		.loc 1 565 0
 925 0026 FB88     		ldrh	r3, [r7, #6]
 566:Generated_Source\PSoC5/ADC_DelSig.c **** }
 926              		.loc 1 566 0
 927 0028 1846     		mov	r0, r3
 928 002a 0C37     		adds	r7, r7, #12
 929              		.cfi_def_cfa_offset 4
 930 002c BD46     		mov	sp, r7
 931              		.cfi_def_cfa_register 13
 932              		@ sp needed
 933 002e 80BC     		pop	{r7}
 934              		.cfi_restore 7
 935              		.cfi_def_cfa_offset 0
 936 0030 7047     		bx	lr
 937              	.L34:
 938 0032 00BF     		.align	2
 939              	.L33:
 940 0034 0E4E0040 		.word	1073761806
 941 0038 0C4E0040 		.word	1073761804
 942              		.cfi_endproc
 943              	.LFE7:
 944              		.size	ADC_DelSig_ReadGCOR, .-ADC_DelSig_ReadGCOR
 945              		.section	.text.ADC_DelSig_StartConvert,"ax",%progbits
 946              		.align	2
 947              		.global	ADC_DelSig_StartConvert
 948              		.thumb
 949              		.thumb_func
 950              		.type	ADC_DelSig_StartConvert, %function
 951              	ADC_DelSig_StartConvert:
 952              	.LFB8:
 567:Generated_Source\PSoC5/ADC_DelSig.c **** 
 568:Generated_Source\PSoC5/ADC_DelSig.c **** 
 569:Generated_Source\PSoC5/ADC_DelSig.c **** /*******************************************************************************
 570:Generated_Source\PSoC5/ADC_DelSig.c **** * Function Name: ADC_DelSig_StartConvert
 571:Generated_Source\PSoC5/ADC_DelSig.c **** ********************************************************************************
 572:Generated_Source\PSoC5/ADC_DelSig.c **** *
 573:Generated_Source\PSoC5/ADC_DelSig.c **** * Summary:
 574:Generated_Source\PSoC5/ADC_DelSig.c **** *  Forces the ADC to initiate a conversion. If in the "Single Sample"
 575:Generated_Source\PSoC5/ADC_DelSig.c **** *  mode, one conversion will be performed then the ADC will halt. If in
 576:Generated_Source\PSoC5/ADC_DelSig.c **** *  one of the other three conversion modes, the ADC will run
 577:Generated_Source\PSoC5/ADC_DelSig.c **** *  continuously until the ADC_Stop() or ADC_StopConvert() is called.
 578:Generated_Source\PSoC5/ADC_DelSig.c **** *
 579:Generated_Source\PSoC5/ADC_DelSig.c **** * Parameters:
 580:Generated_Source\PSoC5/ADC_DelSig.c **** *  None
 581:Generated_Source\PSoC5/ADC_DelSig.c **** *
 582:Generated_Source\PSoC5/ADC_DelSig.c **** * Return:
 583:Generated_Source\PSoC5/ADC_DelSig.c **** *  None
 584:Generated_Source\PSoC5/ADC_DelSig.c **** *
 585:Generated_Source\PSoC5/ADC_DelSig.c **** *******************************************************************************/
 586:Generated_Source\PSoC5/ADC_DelSig.c **** void ADC_DelSig_StartConvert(void) 
 587:Generated_Source\PSoC5/ADC_DelSig.c **** {
ARM GAS  C:\Users\Matthew\AppData\Local\Temp\ccXxauDk.s 			page 28


 953              		.loc 1 587 0
 954              		.cfi_startproc
 955              		@ args = 0, pretend = 0, frame = 0
 956              		@ frame_needed = 1, uses_anonymous_args = 0
 957              		@ link register save eliminated.
 958 0000 80B4     		push	{r7}
 959              		.cfi_def_cfa_offset 4
 960              		.cfi_offset 7, -4
 961 0002 00AF     		add	r7, sp, #0
 962              		.cfi_def_cfa_register 7
 588:Generated_Source\PSoC5/ADC_DelSig.c ****     /* Start the conversion */
 589:Generated_Source\PSoC5/ADC_DelSig.c ****     ADC_DelSig_DEC_CR_REG |= ADC_DelSig_DEC_START_CONV;
 963              		.loc 1 589 0
 964 0004 054A     		ldr	r2, .L36
 965 0006 054B     		ldr	r3, .L36
 966 0008 1B78     		ldrb	r3, [r3]
 967 000a DBB2     		uxtb	r3, r3
 968 000c 43F00103 		orr	r3, r3, #1
 969 0010 DBB2     		uxtb	r3, r3
 970 0012 1370     		strb	r3, [r2]
 590:Generated_Source\PSoC5/ADC_DelSig.c **** }
 971              		.loc 1 590 0
 972 0014 00BF     		nop
 973 0016 BD46     		mov	sp, r7
 974              		.cfi_def_cfa_register 13
 975              		@ sp needed
 976 0018 80BC     		pop	{r7}
 977              		.cfi_restore 7
 978              		.cfi_def_cfa_offset 0
 979 001a 7047     		bx	lr
 980              	.L37:
 981              		.align	2
 982              	.L36:
 983 001c 004E0040 		.word	1073761792
 984              		.cfi_endproc
 985              	.LFE8:
 986              		.size	ADC_DelSig_StartConvert, .-ADC_DelSig_StartConvert
 987              		.section	.text.ADC_DelSig_StopConvert,"ax",%progbits
 988              		.align	2
 989              		.global	ADC_DelSig_StopConvert
 990              		.thumb
 991              		.thumb_func
 992              		.type	ADC_DelSig_StopConvert, %function
 993              	ADC_DelSig_StopConvert:
 994              	.LFB9:
 591:Generated_Source\PSoC5/ADC_DelSig.c **** 
 592:Generated_Source\PSoC5/ADC_DelSig.c **** 
 593:Generated_Source\PSoC5/ADC_DelSig.c **** /*******************************************************************************
 594:Generated_Source\PSoC5/ADC_DelSig.c **** * Function Name: ADC_DelSig_StopConvert
 595:Generated_Source\PSoC5/ADC_DelSig.c **** ********************************************************************************
 596:Generated_Source\PSoC5/ADC_DelSig.c **** *
 597:Generated_Source\PSoC5/ADC_DelSig.c **** * Summary:
 598:Generated_Source\PSoC5/ADC_DelSig.c **** *  Forces the ADC to stop all conversions. If the ADC is in the middle of a
 599:Generated_Source\PSoC5/ADC_DelSig.c **** *  conversion, the ADC will be reset and not provide a result for that partial
 600:Generated_Source\PSoC5/ADC_DelSig.c **** *  conversion.
 601:Generated_Source\PSoC5/ADC_DelSig.c **** *
 602:Generated_Source\PSoC5/ADC_DelSig.c **** * Parameters:
ARM GAS  C:\Users\Matthew\AppData\Local\Temp\ccXxauDk.s 			page 29


 603:Generated_Source\PSoC5/ADC_DelSig.c **** *  None
 604:Generated_Source\PSoC5/ADC_DelSig.c **** *
 605:Generated_Source\PSoC5/ADC_DelSig.c **** * Return:
 606:Generated_Source\PSoC5/ADC_DelSig.c **** *  None
 607:Generated_Source\PSoC5/ADC_DelSig.c **** *
 608:Generated_Source\PSoC5/ADC_DelSig.c **** *******************************************************************************/
 609:Generated_Source\PSoC5/ADC_DelSig.c **** void ADC_DelSig_StopConvert(void) 
 610:Generated_Source\PSoC5/ADC_DelSig.c **** {
 995              		.loc 1 610 0
 996              		.cfi_startproc
 997              		@ args = 0, pretend = 0, frame = 0
 998              		@ frame_needed = 1, uses_anonymous_args = 0
 999              		@ link register save eliminated.
 1000 0000 80B4     		push	{r7}
 1001              		.cfi_def_cfa_offset 4
 1002              		.cfi_offset 7, -4
 1003 0002 00AF     		add	r7, sp, #0
 1004              		.cfi_def_cfa_register 7
 611:Generated_Source\PSoC5/ADC_DelSig.c ****     /* Stop all conversions */
 612:Generated_Source\PSoC5/ADC_DelSig.c ****     ADC_DelSig_DEC_CR_REG &= (uint8)~ADC_DelSig_DEC_START_CONV;
 1005              		.loc 1 612 0
 1006 0004 054A     		ldr	r2, .L39
 1007 0006 054B     		ldr	r3, .L39
 1008 0008 1B78     		ldrb	r3, [r3]
 1009 000a DBB2     		uxtb	r3, r3
 1010 000c 23F00103 		bic	r3, r3, #1
 1011 0010 DBB2     		uxtb	r3, r3
 1012 0012 1370     		strb	r3, [r2]
 613:Generated_Source\PSoC5/ADC_DelSig.c **** }
 1013              		.loc 1 613 0
 1014 0014 00BF     		nop
 1015 0016 BD46     		mov	sp, r7
 1016              		.cfi_def_cfa_register 13
 1017              		@ sp needed
 1018 0018 80BC     		pop	{r7}
 1019              		.cfi_restore 7
 1020              		.cfi_def_cfa_offset 0
 1021 001a 7047     		bx	lr
 1022              	.L40:
 1023              		.align	2
 1024              	.L39:
 1025 001c 004E0040 		.word	1073761792
 1026              		.cfi_endproc
 1027              	.LFE9:
 1028              		.size	ADC_DelSig_StopConvert, .-ADC_DelSig_StopConvert
 1029              		.section	.text.ADC_DelSig_IsEndConversion,"ax",%progbits
 1030              		.align	2
 1031              		.global	ADC_DelSig_IsEndConversion
 1032              		.thumb
 1033              		.thumb_func
 1034              		.type	ADC_DelSig_IsEndConversion, %function
 1035              	ADC_DelSig_IsEndConversion:
 1036              	.LFB10:
 614:Generated_Source\PSoC5/ADC_DelSig.c **** 
 615:Generated_Source\PSoC5/ADC_DelSig.c **** 
 616:Generated_Source\PSoC5/ADC_DelSig.c **** /*******************************************************************************
 617:Generated_Source\PSoC5/ADC_DelSig.c **** * Function Name: ADC_DelSig_IsEndConversion
ARM GAS  C:\Users\Matthew\AppData\Local\Temp\ccXxauDk.s 			page 30


 618:Generated_Source\PSoC5/ADC_DelSig.c **** ********************************************************************************
 619:Generated_Source\PSoC5/ADC_DelSig.c **** *
 620:Generated_Source\PSoC5/ADC_DelSig.c **** * Summary:
 621:Generated_Source\PSoC5/ADC_DelSig.c **** *  Checks the status that the most recently started conversion has completed.
 622:Generated_Source\PSoC5/ADC_DelSig.c **** *  The status is cleared by any of ADC_GetResult8(), ADC_GetResult16() or 
 623:Generated_Source\PSoC5/ADC_DelSig.c **** *  ADC_GetResult32() API.
 624:Generated_Source\PSoC5/ADC_DelSig.c **** *  This function provides the programmer with two options. In one mode this 
 625:Generated_Source\PSoC5/ADC_DelSig.c **** *  function immediately returns with the conversion status. In the other mode,
 626:Generated_Source\PSoC5/ADC_DelSig.c **** *  the function does not return (blocking) until the conversion has completed.
 627:Generated_Source\PSoC5/ADC_DelSig.c **** *
 628:Generated_Source\PSoC5/ADC_DelSig.c **** * Parameters:
 629:Generated_Source\PSoC5/ADC_DelSig.c **** *  retMode: Check conversion return mode. See the following table for options.
 630:Generated_Source\PSoC5/ADC_DelSig.c **** *   ADC_DelSig_RETURN_STATUS -   Immediately returns conversion result
 631:Generated_Source\PSoC5/ADC_DelSig.c **** *                                      status.
 632:Generated_Source\PSoC5/ADC_DelSig.c **** *   ADC_DelSig_WAIT_FOR_RESULT - Does not return until ADC conversion
 633:Generated_Source\PSoC5/ADC_DelSig.c **** *                                      is complete.
 634:Generated_Source\PSoC5/ADC_DelSig.c **** *
 635:Generated_Source\PSoC5/ADC_DelSig.c **** * Return:
 636:Generated_Source\PSoC5/ADC_DelSig.c **** *  If a nonzero value is returned, the last conversion has completed.
 637:Generated_Source\PSoC5/ADC_DelSig.c **** *  If the returned value is zero, the ADC is still calculating the last result.
 638:Generated_Source\PSoC5/ADC_DelSig.c **** *
 639:Generated_Source\PSoC5/ADC_DelSig.c **** * Global variables:
 640:Generated_Source\PSoC5/ADC_DelSig.c **** *  ADC_DelSig_convDone:  Used to check whether conversion is complete
 641:Generated_Source\PSoC5/ADC_DelSig.c **** *  or not for single sample mode with resolution is above 16
 642:Generated_Source\PSoC5/ADC_DelSig.c **** *
 643:Generated_Source\PSoC5/ADC_DelSig.c **** *******************************************************************************/
 644:Generated_Source\PSoC5/ADC_DelSig.c **** uint8 ADC_DelSig_IsEndConversion(uint8 retMode) 
 645:Generated_Source\PSoC5/ADC_DelSig.c **** {
 1037              		.loc 1 645 0
 1038              		.cfi_startproc
 1039              		@ args = 0, pretend = 0, frame = 16
 1040              		@ frame_needed = 1, uses_anonymous_args = 0
 1041              		@ link register save eliminated.
 1042 0000 80B4     		push	{r7}
 1043              		.cfi_def_cfa_offset 4
 1044              		.cfi_offset 7, -4
 1045 0002 85B0     		sub	sp, sp, #20
 1046              		.cfi_def_cfa_offset 24
 1047 0004 00AF     		add	r7, sp, #0
 1048              		.cfi_def_cfa_register 7
 1049 0006 0346     		mov	r3, r0
 1050 0008 FB71     		strb	r3, [r7, #7]
 1051              	.L45:
 646:Generated_Source\PSoC5/ADC_DelSig.c ****     uint8 status;
 647:Generated_Source\PSoC5/ADC_DelSig.c **** 
 648:Generated_Source\PSoC5/ADC_DelSig.c ****     do
 649:Generated_Source\PSoC5/ADC_DelSig.c ****     {
 650:Generated_Source\PSoC5/ADC_DelSig.c ****         /* Check for stop convert if conversion mode is Single Sample with
 651:Generated_Source\PSoC5/ADC_DelSig.c ****         *   resolution above 16 bit
 652:Generated_Source\PSoC5/ADC_DelSig.c ****         */
 653:Generated_Source\PSoC5/ADC_DelSig.c ****         if(ADC_DelSig_stopConversion != 0u)
 1052              		.loc 1 653 0
 1053 000a 0D4B     		ldr	r3, .L47
 1054 000c 1B78     		ldrb	r3, [r3]
 1055 000e DBB2     		uxtb	r3, r3
 1056 0010 002B     		cmp	r3, #0
 1057 0012 03D0     		beq	.L42
ARM GAS  C:\Users\Matthew\AppData\Local\Temp\ccXxauDk.s 			page 31


 654:Generated_Source\PSoC5/ADC_DelSig.c ****         {
 655:Generated_Source\PSoC5/ADC_DelSig.c ****             status = ADC_DelSig_convDone;
 1058              		.loc 1 655 0
 1059 0014 0B4B     		ldr	r3, .L47+4
 1060 0016 1B78     		ldrb	r3, [r3]
 1061 0018 FB73     		strb	r3, [r7, #15]
 1062 001a 05E0     		b	.L43
 1063              	.L42:
 656:Generated_Source\PSoC5/ADC_DelSig.c ****         }
 657:Generated_Source\PSoC5/ADC_DelSig.c ****         else
 658:Generated_Source\PSoC5/ADC_DelSig.c ****         {
 659:Generated_Source\PSoC5/ADC_DelSig.c ****             status = ADC_DelSig_DEC_SR_REG & ADC_DelSig_DEC_CONV_DONE;
 1064              		.loc 1 659 0
 1065 001c 0A4B     		ldr	r3, .L47+8
 1066 001e 1B78     		ldrb	r3, [r3]
 1067 0020 DBB2     		uxtb	r3, r3
 1068 0022 03F00103 		and	r3, r3, #1
 1069 0026 FB73     		strb	r3, [r7, #15]
 1070              	.L43:
 660:Generated_Source\PSoC5/ADC_DelSig.c ****         }
 661:Generated_Source\PSoC5/ADC_DelSig.c ****     }while((status != ADC_DelSig_DEC_CONV_DONE) && (retMode == ADC_DelSig_WAIT_FOR_RESULT));
 1071              		.loc 1 661 0
 1072 0028 FB7B     		ldrb	r3, [r7, #15]	@ zero_extendqisi2
 1073 002a 012B     		cmp	r3, #1
 1074 002c 02D0     		beq	.L44
 1075              		.loc 1 661 0 is_stmt 0 discriminator 1
 1076 002e FB79     		ldrb	r3, [r7, #7]	@ zero_extendqisi2
 1077 0030 002B     		cmp	r3, #0
 1078 0032 EAD0     		beq	.L45
 1079              	.L44:
 662:Generated_Source\PSoC5/ADC_DelSig.c **** 
 663:Generated_Source\PSoC5/ADC_DelSig.c ****     return(status);
 1080              		.loc 1 663 0 is_stmt 1
 1081 0034 FB7B     		ldrb	r3, [r7, #15]	@ zero_extendqisi2
 664:Generated_Source\PSoC5/ADC_DelSig.c **** }
 1082              		.loc 1 664 0
 1083 0036 1846     		mov	r0, r3
 1084 0038 1437     		adds	r7, r7, #20
 1085              		.cfi_def_cfa_offset 4
 1086 003a BD46     		mov	sp, r7
 1087              		.cfi_def_cfa_register 13
 1088              		@ sp needed
 1089 003c 80BC     		pop	{r7}
 1090              		.cfi_restore 7
 1091              		.cfi_def_cfa_offset 0
 1092 003e 7047     		bx	lr
 1093              	.L48:
 1094              		.align	2
 1095              	.L47:
 1096 0040 00000000 		.word	ADC_DelSig_stopConversion
 1097 0044 00000000 		.word	ADC_DelSig_convDone
 1098 0048 014E0040 		.word	1073761793
 1099              		.cfi_endproc
 1100              	.LFE10:
 1101              		.size	ADC_DelSig_IsEndConversion, .-ADC_DelSig_IsEndConversion
 1102              		.section	.text.ADC_DelSig_GetResult8,"ax",%progbits
 1103              		.align	2
ARM GAS  C:\Users\Matthew\AppData\Local\Temp\ccXxauDk.s 			page 32


 1104              		.global	ADC_DelSig_GetResult8
 1105              		.thumb
 1106              		.thumb_func
 1107              		.type	ADC_DelSig_GetResult8, %function
 1108              	ADC_DelSig_GetResult8:
 1109              	.LFB11:
 665:Generated_Source\PSoC5/ADC_DelSig.c **** 
 666:Generated_Source\PSoC5/ADC_DelSig.c **** 
 667:Generated_Source\PSoC5/ADC_DelSig.c **** /*******************************************************************************
 668:Generated_Source\PSoC5/ADC_DelSig.c **** * Function Name: ADC_DelSig_GetResult8
 669:Generated_Source\PSoC5/ADC_DelSig.c **** ********************************************************************************
 670:Generated_Source\PSoC5/ADC_DelSig.c **** *
 671:Generated_Source\PSoC5/ADC_DelSig.c **** * Summary:
 672:Generated_Source\PSoC5/ADC_DelSig.c **** *  This function returns the result of an 8-bit conversion. If the
 673:Generated_Source\PSoC5/ADC_DelSig.c **** *  resolution is set greater than 8-bits, the LSB of the result will be
 674:Generated_Source\PSoC5/ADC_DelSig.c **** *  returned. When the ADC is configured for 8-bit single ended mode,
 675:Generated_Source\PSoC5/ADC_DelSig.c **** *  the ADC_GetResult16() function should be used instead. This
 676:Generated_Source\PSoC5/ADC_DelSig.c **** *  function returns only signed 8-bit values. The maximum positive
 677:Generated_Source\PSoC5/ADC_DelSig.c **** *  signed 8-bit value is 127, but in singled ended 8-bit mode, the
 678:Generated_Source\PSoC5/ADC_DelSig.c **** *  maximum positive value is 255.
 679:Generated_Source\PSoC5/ADC_DelSig.c **** *
 680:Generated_Source\PSoC5/ADC_DelSig.c **** * Parameters:
 681:Generated_Source\PSoC5/ADC_DelSig.c **** *  None
 682:Generated_Source\PSoC5/ADC_DelSig.c **** *
 683:Generated_Source\PSoC5/ADC_DelSig.c **** * Return:
 684:Generated_Source\PSoC5/ADC_DelSig.c **** *  int8: The LSB of the last ADC conversion.
 685:Generated_Source\PSoC5/ADC_DelSig.c **** *
 686:Generated_Source\PSoC5/ADC_DelSig.c **** * Global variables:
 687:Generated_Source\PSoC5/ADC_DelSig.c **** *  ADC_DelSig_convDone:  Cleared in single sample mode with resolution
 688:Generated_Source\PSoC5/ADC_DelSig.c **** *                              above 16 bits
 689:Generated_Source\PSoC5/ADC_DelSig.c **** *
 690:Generated_Source\PSoC5/ADC_DelSig.c **** *******************************************************************************/
 691:Generated_Source\PSoC5/ADC_DelSig.c **** int8 ADC_DelSig_GetResult8( void ) 
 692:Generated_Source\PSoC5/ADC_DelSig.c **** {
 1110              		.loc 1 692 0
 1111              		.cfi_startproc
 1112              		@ args = 0, pretend = 0, frame = 8
 1113              		@ frame_needed = 1, uses_anonymous_args = 0
 1114              		@ link register save eliminated.
 1115 0000 80B4     		push	{r7}
 1116              		.cfi_def_cfa_offset 4
 1117              		.cfi_offset 7, -4
 1118 0002 83B0     		sub	sp, sp, #12
 1119              		.cfi_def_cfa_offset 16
 1120 0004 00AF     		add	r7, sp, #0
 1121              		.cfi_def_cfa_register 7
 693:Generated_Source\PSoC5/ADC_DelSig.c ****     int8 result;
 694:Generated_Source\PSoC5/ADC_DelSig.c ****     uint8 coherency;
 695:Generated_Source\PSoC5/ADC_DelSig.c **** 
 696:Generated_Source\PSoC5/ADC_DelSig.c ****     /* Read active coherency configuration */
 697:Generated_Source\PSoC5/ADC_DelSig.c ****     coherency = ADC_DelSig_DEC_COHER_REG & ADC_DelSig_DEC_SAMP_KEY_MASK;
 1122              		.loc 1 697 0
 1123 0006 124B     		ldr	r3, .L54
 1124 0008 1B78     		ldrb	r3, [r3]
 1125 000a DBB2     		uxtb	r3, r3
 1126 000c 03F00303 		and	r3, r3, #3
 1127 0010 FB71     		strb	r3, [r7, #7]
ARM GAS  C:\Users\Matthew\AppData\Local\Temp\ccXxauDk.s 			page 33


 698:Generated_Source\PSoC5/ADC_DelSig.c **** 
 699:Generated_Source\PSoC5/ADC_DelSig.c ****     result = (int8)ADC_DelSig_DEC_SAMP_REG;
 1128              		.loc 1 699 0
 1129 0012 104B     		ldr	r3, .L54+4
 1130 0014 1B78     		ldrb	r3, [r3]
 1131 0016 DBB2     		uxtb	r3, r3
 1132 0018 BB71     		strb	r3, [r7, #6]
 700:Generated_Source\PSoC5/ADC_DelSig.c **** 
 701:Generated_Source\PSoC5/ADC_DelSig.c ****     if(coherency == ADC_DelSig_DEC_SAMP_KEY_MID)
 1133              		.loc 1 701 0
 1134 001a FB79     		ldrb	r3, [r7, #7]	@ zero_extendqisi2
 1135 001c 022B     		cmp	r3, #2
 1136 001e 02D1     		bne	.L50
 702:Generated_Source\PSoC5/ADC_DelSig.c ****     {   /* Dummy read of the middle byte to unlock the coherency */
 703:Generated_Source\PSoC5/ADC_DelSig.c ****         (void)ADC_DelSig_DEC_SAMPM_REG;
 1137              		.loc 1 703 0
 1138 0020 0D4B     		ldr	r3, .L54+8
 1139 0022 1B78     		ldrb	r3, [r3]
 1140 0024 04E0     		b	.L51
 1141              	.L50:
 704:Generated_Source\PSoC5/ADC_DelSig.c ****     }
 705:Generated_Source\PSoC5/ADC_DelSig.c ****     else  if(coherency == ADC_DelSig_DEC_SAMP_KEY_HIGH)
 1142              		.loc 1 705 0
 1143 0026 FB79     		ldrb	r3, [r7, #7]	@ zero_extendqisi2
 1144 0028 032B     		cmp	r3, #3
 1145 002a 01D1     		bne	.L51
 706:Generated_Source\PSoC5/ADC_DelSig.c ****     {   /* Dummy read of the MSB byte to unlock the coherency */
 707:Generated_Source\PSoC5/ADC_DelSig.c ****         (void)ADC_DelSig_DEC_SAMPH_REG;
 1146              		.loc 1 707 0
 1147 002c 0B4B     		ldr	r3, .L54+12
 1148 002e 1B78     		ldrb	r3, [r3]
 1149              	.L51:
 708:Generated_Source\PSoC5/ADC_DelSig.c ****     }
 709:Generated_Source\PSoC5/ADC_DelSig.c ****     else /*No action required for other coherency */
 710:Generated_Source\PSoC5/ADC_DelSig.c ****     {
 711:Generated_Source\PSoC5/ADC_DelSig.c ****     }
 712:Generated_Source\PSoC5/ADC_DelSig.c ****     /* Clear conversion complete status in Single Sample mode with resolution above 16 bit */
 713:Generated_Source\PSoC5/ADC_DelSig.c ****     if(ADC_DelSig_stopConversion != 0u)
 1150              		.loc 1 713 0
 1151 0030 0B4B     		ldr	r3, .L54+16
 1152 0032 1B78     		ldrb	r3, [r3]
 1153 0034 DBB2     		uxtb	r3, r3
 1154 0036 002B     		cmp	r3, #0
 1155 0038 02D0     		beq	.L52
 714:Generated_Source\PSoC5/ADC_DelSig.c ****     {
 715:Generated_Source\PSoC5/ADC_DelSig.c ****         ADC_DelSig_convDone = 0u;
 1156              		.loc 1 715 0
 1157 003a 0A4B     		ldr	r3, .L54+20
 1158 003c 0022     		movs	r2, #0
 1159 003e 1A70     		strb	r2, [r3]
 1160              	.L52:
 716:Generated_Source\PSoC5/ADC_DelSig.c ****     }
 717:Generated_Source\PSoC5/ADC_DelSig.c ****     return (result);
 1161              		.loc 1 717 0
 1162 0040 97F90630 		ldrsb	r3, [r7, #6]
 718:Generated_Source\PSoC5/ADC_DelSig.c **** }
 1163              		.loc 1 718 0
ARM GAS  C:\Users\Matthew\AppData\Local\Temp\ccXxauDk.s 			page 34


 1164 0044 1846     		mov	r0, r3
 1165 0046 0C37     		adds	r7, r7, #12
 1166              		.cfi_def_cfa_offset 4
 1167 0048 BD46     		mov	sp, r7
 1168              		.cfi_def_cfa_register 13
 1169              		@ sp needed
 1170 004a 80BC     		pop	{r7}
 1171              		.cfi_restore 7
 1172              		.cfi_def_cfa_offset 0
 1173 004c 7047     		bx	lr
 1174              	.L55:
 1175 004e 00BF     		.align	2
 1176              	.L54:
 1177 0050 144E0040 		.word	1073761812
 1178 0054 104E0040 		.word	1073761808
 1179 0058 114E0040 		.word	1073761809
 1180 005c 124E0040 		.word	1073761810
 1181 0060 00000000 		.word	ADC_DelSig_stopConversion
 1182 0064 00000000 		.word	ADC_DelSig_convDone
 1183              		.cfi_endproc
 1184              	.LFE11:
 1185              		.size	ADC_DelSig_GetResult8, .-ADC_DelSig_GetResult8
 1186              		.section	.text.ADC_DelSig_GetResult16,"ax",%progbits
 1187              		.align	2
 1188              		.global	ADC_DelSig_GetResult16
 1189              		.thumb
 1190              		.thumb_func
 1191              		.type	ADC_DelSig_GetResult16, %function
 1192              	ADC_DelSig_GetResult16:
 1193              	.LFB12:
 719:Generated_Source\PSoC5/ADC_DelSig.c **** 
 720:Generated_Source\PSoC5/ADC_DelSig.c **** 
 721:Generated_Source\PSoC5/ADC_DelSig.c **** /*******************************************************************************
 722:Generated_Source\PSoC5/ADC_DelSig.c **** * Function Name: ADC_DelSig_GetResult16
 723:Generated_Source\PSoC5/ADC_DelSig.c **** ********************************************************************************
 724:Generated_Source\PSoC5/ADC_DelSig.c **** *
 725:Generated_Source\PSoC5/ADC_DelSig.c **** * Summary:
 726:Generated_Source\PSoC5/ADC_DelSig.c **** *  Returns a 16-bit result for a conversion with a result that has a
 727:Generated_Source\PSoC5/ADC_DelSig.c **** *  resolution of 8 to 16 bits. If the resolution is set greater than 16-bits,
 728:Generated_Source\PSoC5/ADC_DelSig.c **** *  it will return the 16 least significant bits of the result. When the ADC
 729:Generated_Source\PSoC5/ADC_DelSig.c **** *  is configured for 16-bit single ended mode, the ADC_GetResult32()
 730:Generated_Source\PSoC5/ADC_DelSig.c **** *  function should be used instead. This function returns only signed
 731:Generated_Source\PSoC5/ADC_DelSig.c **** *  16-bit result, which allows a maximum positive value of 32767, not 65535.
 732:Generated_Source\PSoC5/ADC_DelSig.c **** *  This function supports different coherency settings.
 733:Generated_Source\PSoC5/ADC_DelSig.c **** *
 734:Generated_Source\PSoC5/ADC_DelSig.c **** * Parameters:
 735:Generated_Source\PSoC5/ADC_DelSig.c **** *   void
 736:Generated_Source\PSoC5/ADC_DelSig.c **** *
 737:Generated_Source\PSoC5/ADC_DelSig.c **** * Return:
 738:Generated_Source\PSoC5/ADC_DelSig.c **** *  int16:  ADC result.
 739:Generated_Source\PSoC5/ADC_DelSig.c **** *
 740:Generated_Source\PSoC5/ADC_DelSig.c **** * Global variables:
 741:Generated_Source\PSoC5/ADC_DelSig.c **** *  ADC_DelSig_convDone:  Cleared in single sample mode with resolution
 742:Generated_Source\PSoC5/ADC_DelSig.c **** *                              above 16 bits
 743:Generated_Source\PSoC5/ADC_DelSig.c **** *
 744:Generated_Source\PSoC5/ADC_DelSig.c **** *******************************************************************************/
 745:Generated_Source\PSoC5/ADC_DelSig.c **** int16 ADC_DelSig_GetResult16(void) 
ARM GAS  C:\Users\Matthew\AppData\Local\Temp\ccXxauDk.s 			page 35


 746:Generated_Source\PSoC5/ADC_DelSig.c **** {
 1194              		.loc 1 746 0
 1195              		.cfi_startproc
 1196              		@ args = 0, pretend = 0, frame = 8
 1197              		@ frame_needed = 1, uses_anonymous_args = 0
 1198              		@ link register save eliminated.
 1199 0000 80B4     		push	{r7}
 1200              		.cfi_def_cfa_offset 4
 1201              		.cfi_offset 7, -4
 1202 0002 83B0     		sub	sp, sp, #12
 1203              		.cfi_def_cfa_offset 16
 1204 0004 00AF     		add	r7, sp, #0
 1205              		.cfi_def_cfa_register 7
 747:Generated_Source\PSoC5/ADC_DelSig.c ****     uint16 result;
 748:Generated_Source\PSoC5/ADC_DelSig.c ****     uint8 coherency;
 749:Generated_Source\PSoC5/ADC_DelSig.c **** 
 750:Generated_Source\PSoC5/ADC_DelSig.c ****     /* Read active coherency configuration */
 751:Generated_Source\PSoC5/ADC_DelSig.c ****     coherency = ADC_DelSig_DEC_COHER_REG & ADC_DelSig_DEC_SAMP_KEY_MASK;
 1206              		.loc 1 751 0
 1207 0006 174B     		ldr	r3, .L61
 1208 0008 1B78     		ldrb	r3, [r3]
 1209 000a DBB2     		uxtb	r3, r3
 1210 000c 03F00303 		and	r3, r3, #3
 1211 0010 7B71     		strb	r3, [r7, #5]
 752:Generated_Source\PSoC5/ADC_DelSig.c **** 
 753:Generated_Source\PSoC5/ADC_DelSig.c ****     if(coherency <= ADC_DelSig_DEC_SAMP_KEY_LOW)
 1212              		.loc 1 753 0
 1213 0012 7B79     		ldrb	r3, [r7, #5]	@ zero_extendqisi2
 1214 0014 012B     		cmp	r3, #1
 1215 0016 03D8     		bhi	.L57
 754:Generated_Source\PSoC5/ADC_DelSig.c ****     {   /*  Use default method to read result registers i.e. LSB byte read at the end*/
 755:Generated_Source\PSoC5/ADC_DelSig.c ****         #if (CY_PSOC3)
 756:Generated_Source\PSoC5/ADC_DelSig.c ****             result = ADC_DelSig_DEC_SAMPM_REG;
 757:Generated_Source\PSoC5/ADC_DelSig.c ****             result = (result << 8u) | ADC_DelSig_DEC_SAMP_REG;
 758:Generated_Source\PSoC5/ADC_DelSig.c ****         #else
 759:Generated_Source\PSoC5/ADC_DelSig.c ****             result = (CY_GET_REG16(ADC_DelSig_DEC_SAMP_16B_PTR));
 1216              		.loc 1 759 0
 1217 0018 134B     		ldr	r3, .L61+4
 1218 001a 1B88     		ldrh	r3, [r3]	@ movhi
 1219 001c FB80     		strh	r3, [r7, #6]	@ movhi
 1220 001e 11E0     		b	.L58
 1221              	.L57:
 760:Generated_Source\PSoC5/ADC_DelSig.c ****         #endif /* CY_PSOC3 */
 761:Generated_Source\PSoC5/ADC_DelSig.c ****     }
 762:Generated_Source\PSoC5/ADC_DelSig.c ****     else /* MID or HIGH */
 763:Generated_Source\PSoC5/ADC_DelSig.c ****     {   /* Read middle byte at the end */
 764:Generated_Source\PSoC5/ADC_DelSig.c ****         #if (CY_PSOC3)
 765:Generated_Source\PSoC5/ADC_DelSig.c ****             result = (CY_GET_REG16(ADC_DelSig_DEC_SAMP_16B_PTR));
 766:Generated_Source\PSoC5/ADC_DelSig.c ****         #else
 767:Generated_Source\PSoC5/ADC_DelSig.c ****             result = ADC_DelSig_DEC_SAMP_REG;
 1222              		.loc 1 767 0
 1223 0020 114B     		ldr	r3, .L61+4
 1224 0022 1B78     		ldrb	r3, [r3]
 1225 0024 DBB2     		uxtb	r3, r3
 1226 0026 FB80     		strh	r3, [r7, #6]	@ movhi
 768:Generated_Source\PSoC5/ADC_DelSig.c ****             result |=  (uint16)((uint16)ADC_DelSig_DEC_SAMPM_REG << 8u);
 1227              		.loc 1 768 0
ARM GAS  C:\Users\Matthew\AppData\Local\Temp\ccXxauDk.s 			page 36


 1228 0028 104B     		ldr	r3, .L61+8
 1229 002a 1B78     		ldrb	r3, [r3]
 1230 002c DBB2     		uxtb	r3, r3
 1231 002e 9BB2     		uxth	r3, r3
 1232 0030 1B02     		lsls	r3, r3, #8
 1233 0032 9AB2     		uxth	r2, r3
 1234 0034 FB88     		ldrh	r3, [r7, #6]	@ movhi
 1235 0036 1343     		orrs	r3, r3, r2
 1236 0038 FB80     		strh	r3, [r7, #6]	@ movhi
 769:Generated_Source\PSoC5/ADC_DelSig.c ****         #endif /* CY_PSOC3 */
 770:Generated_Source\PSoC5/ADC_DelSig.c ****         if(coherency == ADC_DelSig_DEC_SAMP_KEY_HIGH)
 1237              		.loc 1 770 0
 1238 003a 7B79     		ldrb	r3, [r7, #5]	@ zero_extendqisi2
 1239 003c 032B     		cmp	r3, #3
 1240 003e 01D1     		bne	.L58
 771:Generated_Source\PSoC5/ADC_DelSig.c ****         {   /* Dummy read of the MSB byte to unlock the coherency */
 772:Generated_Source\PSoC5/ADC_DelSig.c ****             (void)ADC_DelSig_DEC_SAMPH_REG;
 1241              		.loc 1 772 0
 1242 0040 0B4B     		ldr	r3, .L61+12
 1243 0042 1B78     		ldrb	r3, [r3]
 1244              	.L58:
 773:Generated_Source\PSoC5/ADC_DelSig.c ****         }
 774:Generated_Source\PSoC5/ADC_DelSig.c ****     }
 775:Generated_Source\PSoC5/ADC_DelSig.c ****     /* Clear conversion complete status in Single Sample mode with resolution above 16 bit */
 776:Generated_Source\PSoC5/ADC_DelSig.c ****     if(ADC_DelSig_stopConversion != 0u)
 1245              		.loc 1 776 0
 1246 0044 0B4B     		ldr	r3, .L61+16
 1247 0046 1B78     		ldrb	r3, [r3]
 1248 0048 DBB2     		uxtb	r3, r3
 1249 004a 002B     		cmp	r3, #0
 1250 004c 02D0     		beq	.L59
 777:Generated_Source\PSoC5/ADC_DelSig.c ****     {
 778:Generated_Source\PSoC5/ADC_DelSig.c ****         ADC_DelSig_convDone = 0u;
 1251              		.loc 1 778 0
 1252 004e 0A4B     		ldr	r3, .L61+20
 1253 0050 0022     		movs	r2, #0
 1254 0052 1A70     		strb	r2, [r3]
 1255              	.L59:
 779:Generated_Source\PSoC5/ADC_DelSig.c ****     }
 780:Generated_Source\PSoC5/ADC_DelSig.c **** 
 781:Generated_Source\PSoC5/ADC_DelSig.c ****     return ((int16)result);
 1256              		.loc 1 781 0
 1257 0054 B7F90630 		ldrsh	r3, [r7, #6]
 782:Generated_Source\PSoC5/ADC_DelSig.c **** }
 1258              		.loc 1 782 0
 1259 0058 1846     		mov	r0, r3
 1260 005a 0C37     		adds	r7, r7, #12
 1261              		.cfi_def_cfa_offset 4
 1262 005c BD46     		mov	sp, r7
 1263              		.cfi_def_cfa_register 13
 1264              		@ sp needed
 1265 005e 80BC     		pop	{r7}
 1266              		.cfi_restore 7
 1267              		.cfi_def_cfa_offset 0
 1268 0060 7047     		bx	lr
 1269              	.L62:
 1270 0062 00BF     		.align	2
ARM GAS  C:\Users\Matthew\AppData\Local\Temp\ccXxauDk.s 			page 37


 1271              	.L61:
 1272 0064 144E0040 		.word	1073761812
 1273 0068 104E0040 		.word	1073761808
 1274 006c 114E0040 		.word	1073761809
 1275 0070 124E0040 		.word	1073761810
 1276 0074 00000000 		.word	ADC_DelSig_stopConversion
 1277 0078 00000000 		.word	ADC_DelSig_convDone
 1278              		.cfi_endproc
 1279              	.LFE12:
 1280              		.size	ADC_DelSig_GetResult16, .-ADC_DelSig_GetResult16
 1281              		.section	.text.ADC_DelSig_GetResult32,"ax",%progbits
 1282              		.align	2
 1283              		.global	ADC_DelSig_GetResult32
 1284              		.thumb
 1285              		.thumb_func
 1286              		.type	ADC_DelSig_GetResult32, %function
 1287              	ADC_DelSig_GetResult32:
 1288              	.LFB13:
 783:Generated_Source\PSoC5/ADC_DelSig.c **** 
 784:Generated_Source\PSoC5/ADC_DelSig.c **** 
 785:Generated_Source\PSoC5/ADC_DelSig.c **** /*******************************************************************************
 786:Generated_Source\PSoC5/ADC_DelSig.c **** * Function Name: ADC_DelSig_GetResult32
 787:Generated_Source\PSoC5/ADC_DelSig.c **** ********************************************************************************
 788:Generated_Source\PSoC5/ADC_DelSig.c **** *
 789:Generated_Source\PSoC5/ADC_DelSig.c **** * Summary:
 790:Generated_Source\PSoC5/ADC_DelSig.c **** *  Returns a 32-bit result for a conversion with a result that has a
 791:Generated_Source\PSoC5/ADC_DelSig.c **** *  resolution of 8 to 20 bits.
 792:Generated_Source\PSoC5/ADC_DelSig.c **** *  This function supports different coherency settings.
 793:Generated_Source\PSoC5/ADC_DelSig.c **** *
 794:Generated_Source\PSoC5/ADC_DelSig.c **** * Parameters:
 795:Generated_Source\PSoC5/ADC_DelSig.c **** *  None
 796:Generated_Source\PSoC5/ADC_DelSig.c **** *
 797:Generated_Source\PSoC5/ADC_DelSig.c **** * Return:
 798:Generated_Source\PSoC5/ADC_DelSig.c **** *  int32: Result of the last ADC conversion.
 799:Generated_Source\PSoC5/ADC_DelSig.c **** *
 800:Generated_Source\PSoC5/ADC_DelSig.c **** * Global variables:
 801:Generated_Source\PSoC5/ADC_DelSig.c **** *  ADC_DelSig_convDone:  Cleared in single sample mode with resolution
 802:Generated_Source\PSoC5/ADC_DelSig.c **** *                              above 16 bits
 803:Generated_Source\PSoC5/ADC_DelSig.c **** *
 804:Generated_Source\PSoC5/ADC_DelSig.c **** *******************************************************************************/
 805:Generated_Source\PSoC5/ADC_DelSig.c **** int32 ADC_DelSig_GetResult32(void) 
 806:Generated_Source\PSoC5/ADC_DelSig.c **** {
 1289              		.loc 1 806 0
 1290              		.cfi_startproc
 1291              		@ args = 0, pretend = 0, frame = 8
 1292              		@ frame_needed = 1, uses_anonymous_args = 0
 1293              		@ link register save eliminated.
 1294 0000 80B4     		push	{r7}
 1295              		.cfi_def_cfa_offset 4
 1296              		.cfi_offset 7, -4
 1297 0002 83B0     		sub	sp, sp, #12
 1298              		.cfi_def_cfa_offset 16
 1299 0004 00AF     		add	r7, sp, #0
 1300              		.cfi_def_cfa_register 7
 807:Generated_Source\PSoC5/ADC_DelSig.c ****     uint32 result;
 808:Generated_Source\PSoC5/ADC_DelSig.c ****     uint8 coherency;
 809:Generated_Source\PSoC5/ADC_DelSig.c ****     #if (CY_PSOC3)
ARM GAS  C:\Users\Matthew\AppData\Local\Temp\ccXxauDk.s 			page 38


 810:Generated_Source\PSoC5/ADC_DelSig.c **** 	    uint16 tmp;
 811:Generated_Source\PSoC5/ADC_DelSig.c ****     #endif /* CY_PSOC3 */
 812:Generated_Source\PSoC5/ADC_DelSig.c **** 
 813:Generated_Source\PSoC5/ADC_DelSig.c ****     /* Read active coherency configuration */
 814:Generated_Source\PSoC5/ADC_DelSig.c ****     coherency = ADC_DelSig_DEC_COHER_REG & ADC_DelSig_DEC_SAMP_KEY_MASK;
 1301              		.loc 1 814 0
 1302 0006 224B     		ldr	r3, .L69
 1303 0008 1B78     		ldrb	r3, [r3]
 1304 000a DBB2     		uxtb	r3, r3
 1305 000c 03F00303 		and	r3, r3, #3
 1306 0010 FB70     		strb	r3, [r7, #3]
 815:Generated_Source\PSoC5/ADC_DelSig.c **** 
 816:Generated_Source\PSoC5/ADC_DelSig.c ****     if(coherency <= ADC_DelSig_DEC_SAMP_KEY_LOW)
 1307              		.loc 1 816 0
 1308 0012 FB78     		ldrb	r3, [r7, #3]	@ zero_extendqisi2
 1309 0014 012B     		cmp	r3, #1
 1310 0016 0BD8     		bhi	.L64
 817:Generated_Source\PSoC5/ADC_DelSig.c ****     {   /*  Use default method to read result registers i.e. LSB byte read at the end*/
 818:Generated_Source\PSoC5/ADC_DelSig.c ****         #if (CY_PSOC3)
 819:Generated_Source\PSoC5/ADC_DelSig.c ****             result = ADC_DelSig_DEC_SAMPH_REG;
 820:Generated_Source\PSoC5/ADC_DelSig.c ****             if((result & 0x80u) != 0u)
 821:Generated_Source\PSoC5/ADC_DelSig.c ****             {   /* Sign extend */
 822:Generated_Source\PSoC5/ADC_DelSig.c ****                 result |= 0xFF00u;
 823:Generated_Source\PSoC5/ADC_DelSig.c ****             }
 824:Generated_Source\PSoC5/ADC_DelSig.c ****             result = (result << 8u) | ADC_DelSig_DEC_SAMPM_REG;
 825:Generated_Source\PSoC5/ADC_DelSig.c ****             result = (result << 8u) | ADC_DelSig_DEC_SAMP_REG;
 826:Generated_Source\PSoC5/ADC_DelSig.c ****         #else
 827:Generated_Source\PSoC5/ADC_DelSig.c ****             result = CY_GET_REG16(ADC_DelSig_DEC_SAMPH_16B_PTR);
 1311              		.loc 1 827 0
 1312 0018 1E4B     		ldr	r3, .L69+4
 1313 001a 1B88     		ldrh	r3, [r3]	@ movhi
 1314 001c 9BB2     		uxth	r3, r3
 1315 001e 7B60     		str	r3, [r7, #4]
 828:Generated_Source\PSoC5/ADC_DelSig.c ****             result = (result << 16u) | (CY_GET_REG16(ADC_DelSig_DEC_SAMP_16B_PTR));
 1316              		.loc 1 828 0
 1317 0020 7B68     		ldr	r3, [r7, #4]
 1318 0022 1B04     		lsls	r3, r3, #16
 1319 0024 1C4A     		ldr	r2, .L69+8
 1320 0026 1288     		ldrh	r2, [r2]	@ movhi
 1321 0028 92B2     		uxth	r2, r2
 1322 002a 1343     		orrs	r3, r3, r2
 1323 002c 7B60     		str	r3, [r7, #4]
 1324 002e 20E0     		b	.L65
 1325              	.L64:
 829:Generated_Source\PSoC5/ADC_DelSig.c ****         #endif /* CY_PSOC3 */
 830:Generated_Source\PSoC5/ADC_DelSig.c ****     }
 831:Generated_Source\PSoC5/ADC_DelSig.c ****     else if(coherency == ADC_DelSig_DEC_SAMP_KEY_MID)
 1326              		.loc 1 831 0
 1327 0030 FB78     		ldrb	r3, [r7, #3]	@ zero_extendqisi2
 1328 0032 022B     		cmp	r3, #2
 1329 0034 12D1     		bne	.L66
 832:Generated_Source\PSoC5/ADC_DelSig.c ****     {   /* Read middle byte at the end */
 833:Generated_Source\PSoC5/ADC_DelSig.c ****         #if (CY_PSOC3)
 834:Generated_Source\PSoC5/ADC_DelSig.c ****             result = ADC_DelSig_DEC_SAMPH_REG;
 835:Generated_Source\PSoC5/ADC_DelSig.c ****             if((result & 0x80u) != 0u)
 836:Generated_Source\PSoC5/ADC_DelSig.c ****             {   /* Sign extend */
 837:Generated_Source\PSoC5/ADC_DelSig.c ****                 result |= 0xFF00u;
ARM GAS  C:\Users\Matthew\AppData\Local\Temp\ccXxauDk.s 			page 39


 838:Generated_Source\PSoC5/ADC_DelSig.c ****             }
 839:Generated_Source\PSoC5/ADC_DelSig.c ****             result = (result << 16u) | (CY_GET_REG16(ADC_DelSig_DEC_SAMP_16B_PTR));
 840:Generated_Source\PSoC5/ADC_DelSig.c ****         #else
 841:Generated_Source\PSoC5/ADC_DelSig.c ****             result = CY_GET_REG16(ADC_DelSig_DEC_SAMPH_16B_PTR);
 1330              		.loc 1 841 0
 1331 0036 174B     		ldr	r3, .L69+4
 1332 0038 1B88     		ldrh	r3, [r3]	@ movhi
 1333 003a 9BB2     		uxth	r3, r3
 1334 003c 7B60     		str	r3, [r7, #4]
 842:Generated_Source\PSoC5/ADC_DelSig.c ****             result = (result << 16u) | ADC_DelSig_DEC_SAMP_REG;
 1335              		.loc 1 842 0
 1336 003e 7B68     		ldr	r3, [r7, #4]
 1337 0040 1B04     		lsls	r3, r3, #16
 1338 0042 154A     		ldr	r2, .L69+8
 1339 0044 1278     		ldrb	r2, [r2]
 1340 0046 D2B2     		uxtb	r2, r2
 1341 0048 1343     		orrs	r3, r3, r2
 1342 004a 7B60     		str	r3, [r7, #4]
 843:Generated_Source\PSoC5/ADC_DelSig.c ****             result |=  (uint32)((uint32)ADC_DelSig_DEC_SAMPM_REG << 8u);
 1343              		.loc 1 843 0
 1344 004c 134B     		ldr	r3, .L69+12
 1345 004e 1B78     		ldrb	r3, [r3]
 1346 0050 DBB2     		uxtb	r3, r3
 1347 0052 1B02     		lsls	r3, r3, #8
 1348 0054 7A68     		ldr	r2, [r7, #4]
 1349 0056 1343     		orrs	r3, r3, r2
 1350 0058 7B60     		str	r3, [r7, #4]
 1351 005a 0AE0     		b	.L65
 1352              	.L66:
 844:Generated_Source\PSoC5/ADC_DelSig.c ****         #endif /* CY_PSOC3 */
 845:Generated_Source\PSoC5/ADC_DelSig.c ****     }
 846:Generated_Source\PSoC5/ADC_DelSig.c ****     else /*ADC_DelSig_DEC_SAMP_KEY_HIGH */
 847:Generated_Source\PSoC5/ADC_DelSig.c ****     {
 848:Generated_Source\PSoC5/ADC_DelSig.c ****         /* Read MSB byte at the end */
 849:Generated_Source\PSoC5/ADC_DelSig.c ****         #if (CY_PSOC3)
 850:Generated_Source\PSoC5/ADC_DelSig.c ****             result = CY_GET_REG16(ADC_DelSig_DEC_SAMP_16B_PTR);
 851:Generated_Source\PSoC5/ADC_DelSig.c **** 			tmp = ADC_DelSig_DEC_SAMPH_REG;
 852:Generated_Source\PSoC5/ADC_DelSig.c ****             if((tmp & 0x80u) != 0u)
 853:Generated_Source\PSoC5/ADC_DelSig.c ****             {   /* Sign extend */
 854:Generated_Source\PSoC5/ADC_DelSig.c ****                 tmp |= 0xFF00u;
 855:Generated_Source\PSoC5/ADC_DelSig.c ****             }
 856:Generated_Source\PSoC5/ADC_DelSig.c ****             result |= (uint32)tmp << 16u;
 857:Generated_Source\PSoC5/ADC_DelSig.c ****         #else
 858:Generated_Source\PSoC5/ADC_DelSig.c ****             result = CY_GET_REG16(ADC_DelSig_DEC_SAMP_16B_PTR);
 1353              		.loc 1 858 0
 1354 005c 0E4B     		ldr	r3, .L69+8
 1355 005e 1B88     		ldrh	r3, [r3]	@ movhi
 1356 0060 9BB2     		uxth	r3, r3
 1357 0062 7B60     		str	r3, [r7, #4]
 859:Generated_Source\PSoC5/ADC_DelSig.c ****             result |= (uint32)((uint32)CY_GET_REG16(ADC_DelSig_DEC_SAMPH_16B_PTR) << 16u);
 1358              		.loc 1 859 0
 1359 0064 0B4B     		ldr	r3, .L69+4
 1360 0066 1B88     		ldrh	r3, [r3]	@ movhi
 1361 0068 9BB2     		uxth	r3, r3
 1362 006a 1B04     		lsls	r3, r3, #16
 1363 006c 7A68     		ldr	r2, [r7, #4]
 1364 006e 1343     		orrs	r3, r3, r2
ARM GAS  C:\Users\Matthew\AppData\Local\Temp\ccXxauDk.s 			page 40


 1365 0070 7B60     		str	r3, [r7, #4]
 1366              	.L65:
 860:Generated_Source\PSoC5/ADC_DelSig.c ****         #endif /* CY_PSOC3 */
 861:Generated_Source\PSoC5/ADC_DelSig.c ****     }
 862:Generated_Source\PSoC5/ADC_DelSig.c ****     /* Clear conversion complete status in Single Sample mode with resolution above 16 bit */
 863:Generated_Source\PSoC5/ADC_DelSig.c ****     if(ADC_DelSig_stopConversion != 0u)
 1367              		.loc 1 863 0
 1368 0072 0B4B     		ldr	r3, .L69+16
 1369 0074 1B78     		ldrb	r3, [r3]
 1370 0076 DBB2     		uxtb	r3, r3
 1371 0078 002B     		cmp	r3, #0
 1372 007a 02D0     		beq	.L67
 864:Generated_Source\PSoC5/ADC_DelSig.c ****     {
 865:Generated_Source\PSoC5/ADC_DelSig.c ****         ADC_DelSig_convDone = 0u;
 1373              		.loc 1 865 0
 1374 007c 094B     		ldr	r3, .L69+20
 1375 007e 0022     		movs	r2, #0
 1376 0080 1A70     		strb	r2, [r3]
 1377              	.L67:
 866:Generated_Source\PSoC5/ADC_DelSig.c ****     }
 867:Generated_Source\PSoC5/ADC_DelSig.c **** 
 868:Generated_Source\PSoC5/ADC_DelSig.c ****     return ((int32)result);
 1378              		.loc 1 868 0
 1379 0082 7B68     		ldr	r3, [r7, #4]
 869:Generated_Source\PSoC5/ADC_DelSig.c **** }
 1380              		.loc 1 869 0
 1381 0084 1846     		mov	r0, r3
 1382 0086 0C37     		adds	r7, r7, #12
 1383              		.cfi_def_cfa_offset 4
 1384 0088 BD46     		mov	sp, r7
 1385              		.cfi_def_cfa_register 13
 1386              		@ sp needed
 1387 008a 80BC     		pop	{r7}
 1388              		.cfi_restore 7
 1389              		.cfi_def_cfa_offset 0
 1390 008c 7047     		bx	lr
 1391              	.L70:
 1392 008e 00BF     		.align	2
 1393              	.L69:
 1394 0090 144E0040 		.word	1073761812
 1395 0094 124E0040 		.word	1073761810
 1396 0098 104E0040 		.word	1073761808
 1397 009c 114E0040 		.word	1073761809
 1398 00a0 00000000 		.word	ADC_DelSig_stopConversion
 1399 00a4 00000000 		.word	ADC_DelSig_convDone
 1400              		.cfi_endproc
 1401              	.LFE13:
 1402              		.size	ADC_DelSig_GetResult32, .-ADC_DelSig_GetResult32
 1403              		.section	.text.ADC_DelSig_SetOffset,"ax",%progbits
 1404              		.align	2
 1405              		.global	ADC_DelSig_SetOffset
 1406              		.thumb
 1407              		.thumb_func
 1408              		.type	ADC_DelSig_SetOffset, %function
 1409              	ADC_DelSig_SetOffset:
 1410              	.LFB14:
 870:Generated_Source\PSoC5/ADC_DelSig.c **** 
ARM GAS  C:\Users\Matthew\AppData\Local\Temp\ccXxauDk.s 			page 41


 871:Generated_Source\PSoC5/ADC_DelSig.c **** 
 872:Generated_Source\PSoC5/ADC_DelSig.c **** /*******************************************************************************
 873:Generated_Source\PSoC5/ADC_DelSig.c **** * Function Name: ADC_DelSig_SetOffset
 874:Generated_Source\PSoC5/ADC_DelSig.c **** ********************************************************************************
 875:Generated_Source\PSoC5/ADC_DelSig.c **** *
 876:Generated_Source\PSoC5/ADC_DelSig.c **** * Summary:
 877:Generated_Source\PSoC5/ADC_DelSig.c **** *  Sets the ADC offset which is used by the functions ADC_CountsTo_uVolts, 
 878:Generated_Source\PSoC5/ADC_DelSig.c **** *  ADC_CountsTo_mVolts, and ADC_CountsTo_Volts to subtract the offset from the 
 879:Generated_Source\PSoC5/ADC_DelSig.c **** *  given reading before calculating the voltage conversion.
 880:Generated_Source\PSoC5/ADC_DelSig.c **** *
 881:Generated_Source\PSoC5/ADC_DelSig.c **** * Parameters:
 882:Generated_Source\PSoC5/ADC_DelSig.c **** *  int32:  This value is a measured value when the inputs are shorted or 
 883:Generated_Source\PSoC5/ADC_DelSig.c **** *          connected to the same input voltage.
 884:Generated_Source\PSoC5/ADC_DelSig.c **** *
 885:Generated_Source\PSoC5/ADC_DelSig.c **** * Return:
 886:Generated_Source\PSoC5/ADC_DelSig.c **** *  None
 887:Generated_Source\PSoC5/ADC_DelSig.c **** *
 888:Generated_Source\PSoC5/ADC_DelSig.c **** * Global variables:
 889:Generated_Source\PSoC5/ADC_DelSig.c **** *  ADC_DelSig_Offset:  Modified to set the user provided offset. This
 890:Generated_Source\PSoC5/ADC_DelSig.c **** *  variable is used for offset calibration purpose.
 891:Generated_Source\PSoC5/ADC_DelSig.c **** *
 892:Generated_Source\PSoC5/ADC_DelSig.c **** * Side Effects:
 893:Generated_Source\PSoC5/ADC_DelSig.c **** *  Affects the ADC_DelSig_CountsTo_Volts,
 894:Generated_Source\PSoC5/ADC_DelSig.c **** *  ADC_DelSig_CountsTo_mVolts, ADC_DelSig_CountsTo_uVolts functions
 895:Generated_Source\PSoC5/ADC_DelSig.c **** *  by subtracting the given offset.
 896:Generated_Source\PSoC5/ADC_DelSig.c **** *
 897:Generated_Source\PSoC5/ADC_DelSig.c **** *******************************************************************************/
 898:Generated_Source\PSoC5/ADC_DelSig.c **** void ADC_DelSig_SetOffset(int32 offset) 
 899:Generated_Source\PSoC5/ADC_DelSig.c **** {
 1411              		.loc 1 899 0
 1412              		.cfi_startproc
 1413              		@ args = 0, pretend = 0, frame = 8
 1414              		@ frame_needed = 1, uses_anonymous_args = 0
 1415              		@ link register save eliminated.
 1416 0000 80B4     		push	{r7}
 1417              		.cfi_def_cfa_offset 4
 1418              		.cfi_offset 7, -4
 1419 0002 83B0     		sub	sp, sp, #12
 1420              		.cfi_def_cfa_offset 16
 1421 0004 00AF     		add	r7, sp, #0
 1422              		.cfi_def_cfa_register 7
 1423 0006 7860     		str	r0, [r7, #4]
 900:Generated_Source\PSoC5/ADC_DelSig.c **** 
 901:Generated_Source\PSoC5/ADC_DelSig.c ****     ADC_DelSig_Offset = offset;
 1424              		.loc 1 901 0
 1425 0008 034A     		ldr	r2, .L72
 1426 000a 7B68     		ldr	r3, [r7, #4]
 1427 000c 1360     		str	r3, [r2]
 902:Generated_Source\PSoC5/ADC_DelSig.c **** }
 1428              		.loc 1 902 0
 1429 000e 00BF     		nop
 1430 0010 0C37     		adds	r7, r7, #12
 1431              		.cfi_def_cfa_offset 4
 1432 0012 BD46     		mov	sp, r7
 1433              		.cfi_def_cfa_register 13
 1434              		@ sp needed
 1435 0014 80BC     		pop	{r7}
ARM GAS  C:\Users\Matthew\AppData\Local\Temp\ccXxauDk.s 			page 42


 1436              		.cfi_restore 7
 1437              		.cfi_def_cfa_offset 0
 1438 0016 7047     		bx	lr
 1439              	.L73:
 1440              		.align	2
 1441              	.L72:
 1442 0018 00000000 		.word	ADC_DelSig_Offset
 1443              		.cfi_endproc
 1444              	.LFE14:
 1445              		.size	ADC_DelSig_SetOffset, .-ADC_DelSig_SetOffset
 1446              		.section	.text.ADC_DelSig_SetGain,"ax",%progbits
 1447              		.align	2
 1448              		.global	ADC_DelSig_SetGain
 1449              		.thumb
 1450              		.thumb_func
 1451              		.type	ADC_DelSig_SetGain, %function
 1452              	ADC_DelSig_SetGain:
 1453              	.LFB15:
 903:Generated_Source\PSoC5/ADC_DelSig.c **** 
 904:Generated_Source\PSoC5/ADC_DelSig.c **** 
 905:Generated_Source\PSoC5/ADC_DelSig.c **** /*******************************************************************************
 906:Generated_Source\PSoC5/ADC_DelSig.c **** * Function Name: ADC_DelSig_SetGain
 907:Generated_Source\PSoC5/ADC_DelSig.c **** ********************************************************************************
 908:Generated_Source\PSoC5/ADC_DelSig.c **** *
 909:Generated_Source\PSoC5/ADC_DelSig.c **** * Summary:
 910:Generated_Source\PSoC5/ADC_DelSig.c **** *  Sets the ADC gain in counts per volt for the voltage conversion
 911:Generated_Source\PSoC5/ADC_DelSig.c **** *  functions below. This value is set by default by the reference and
 912:Generated_Source\PSoC5/ADC_DelSig.c **** *  input range settings. It should only be used to further calibrate the
 913:Generated_Source\PSoC5/ADC_DelSig.c **** *  ADC with a known input or if an external reference is used. This
 914:Generated_Source\PSoC5/ADC_DelSig.c **** *  function may also be used to calibrate an entire signal chain, not
 915:Generated_Source\PSoC5/ADC_DelSig.c **** *  just the ADC.
 916:Generated_Source\PSoC5/ADC_DelSig.c **** *
 917:Generated_Source\PSoC5/ADC_DelSig.c **** * Parameters:
 918:Generated_Source\PSoC5/ADC_DelSig.c **** *  int32: ADC gain in counts per volt.
 919:Generated_Source\PSoC5/ADC_DelSig.c **** *
 920:Generated_Source\PSoC5/ADC_DelSig.c **** * Return:
 921:Generated_Source\PSoC5/ADC_DelSig.c **** *  None
 922:Generated_Source\PSoC5/ADC_DelSig.c **** *
 923:Generated_Source\PSoC5/ADC_DelSig.c **** * Global variables:
 924:Generated_Source\PSoC5/ADC_DelSig.c **** *  ADC_DelSig_CountsPerVolt:  modified to set the ADC gain in counts
 925:Generated_Source\PSoC5/ADC_DelSig.c **** *   per volt.
 926:Generated_Source\PSoC5/ADC_DelSig.c **** *
 927:Generated_Source\PSoC5/ADC_DelSig.c **** * Side Effects:
 928:Generated_Source\PSoC5/ADC_DelSig.c **** *  Affects the ADC_DelSig_CountsTo_Volts,
 929:Generated_Source\PSoC5/ADC_DelSig.c **** *  ADC_DelSig_CountsTo_mVolts, ADC_DelSig_CountsTo_uVolts functions
 930:Generated_Source\PSoC5/ADC_DelSig.c **** *  supplying the correct conversion between ADC counts and voltage.
 931:Generated_Source\PSoC5/ADC_DelSig.c **** *
 932:Generated_Source\PSoC5/ADC_DelSig.c **** *******************************************************************************/
 933:Generated_Source\PSoC5/ADC_DelSig.c **** void ADC_DelSig_SetGain(int32 adcGain) 
 934:Generated_Source\PSoC5/ADC_DelSig.c **** {
 1454              		.loc 1 934 0
 1455              		.cfi_startproc
 1456              		@ args = 0, pretend = 0, frame = 8
 1457              		@ frame_needed = 1, uses_anonymous_args = 0
 1458              		@ link register save eliminated.
 1459 0000 80B4     		push	{r7}
 1460              		.cfi_def_cfa_offset 4
ARM GAS  C:\Users\Matthew\AppData\Local\Temp\ccXxauDk.s 			page 43


 1461              		.cfi_offset 7, -4
 1462 0002 83B0     		sub	sp, sp, #12
 1463              		.cfi_def_cfa_offset 16
 1464 0004 00AF     		add	r7, sp, #0
 1465              		.cfi_def_cfa_register 7
 1466 0006 7860     		str	r0, [r7, #4]
 935:Generated_Source\PSoC5/ADC_DelSig.c ****     ADC_DelSig_CountsPerVolt = adcGain;
 1467              		.loc 1 935 0
 1468 0008 034A     		ldr	r2, .L75
 1469 000a 7B68     		ldr	r3, [r7, #4]
 1470 000c 1360     		str	r3, [r2]
 936:Generated_Source\PSoC5/ADC_DelSig.c **** }
 1471              		.loc 1 936 0
 1472 000e 00BF     		nop
 1473 0010 0C37     		adds	r7, r7, #12
 1474              		.cfi_def_cfa_offset 4
 1475 0012 BD46     		mov	sp, r7
 1476              		.cfi_def_cfa_register 13
 1477              		@ sp needed
 1478 0014 80BC     		pop	{r7}
 1479              		.cfi_restore 7
 1480              		.cfi_def_cfa_offset 0
 1481 0016 7047     		bx	lr
 1482              	.L76:
 1483              		.align	2
 1484              	.L75:
 1485 0018 00000000 		.word	ADC_DelSig_CountsPerVolt
 1486              		.cfi_endproc
 1487              	.LFE15:
 1488              		.size	ADC_DelSig_SetGain, .-ADC_DelSig_SetGain
 1489              		.section	.text.ADC_DelSig_CountsTo_mVolts,"ax",%progbits
 1490              		.align	2
 1491              		.global	ADC_DelSig_CountsTo_mVolts
 1492              		.thumb
 1493              		.thumb_func
 1494              		.type	ADC_DelSig_CountsTo_mVolts, %function
 1495              	ADC_DelSig_CountsTo_mVolts:
 1496              	.LFB16:
 937:Generated_Source\PSoC5/ADC_DelSig.c **** 
 938:Generated_Source\PSoC5/ADC_DelSig.c **** 
 939:Generated_Source\PSoC5/ADC_DelSig.c **** /*******************************************************************************
 940:Generated_Source\PSoC5/ADC_DelSig.c **** * Function Name: ADC_DelSig_CountsTo_mVolts
 941:Generated_Source\PSoC5/ADC_DelSig.c **** ********************************************************************************
 942:Generated_Source\PSoC5/ADC_DelSig.c **** *
 943:Generated_Source\PSoC5/ADC_DelSig.c **** * Summary:
 944:Generated_Source\PSoC5/ADC_DelSig.c **** *  Converts the ADC counts output to mVolts as a 16-bit integer. For
 945:Generated_Source\PSoC5/ADC_DelSig.c **** *  example, if the ADC measured 0.534 volts, the return value would
 946:Generated_Source\PSoC5/ADC_DelSig.c **** *  be 534 mVolts.
 947:Generated_Source\PSoC5/ADC_DelSig.c **** *
 948:Generated_Source\PSoC5/ADC_DelSig.c **** * Parameters:
 949:Generated_Source\PSoC5/ADC_DelSig.c **** *  int32: adcCounts Result from the ADC conversion.
 950:Generated_Source\PSoC5/ADC_DelSig.c **** *
 951:Generated_Source\PSoC5/ADC_DelSig.c **** * Return:
 952:Generated_Source\PSoC5/ADC_DelSig.c **** *  int16:  Result in mVolts
 953:Generated_Source\PSoC5/ADC_DelSig.c **** *
 954:Generated_Source\PSoC5/ADC_DelSig.c **** * Global variables:
 955:Generated_Source\PSoC5/ADC_DelSig.c **** *  ADC_DelSig_CountsPerVolt:  used to convert ADC counts to mVolts.
ARM GAS  C:\Users\Matthew\AppData\Local\Temp\ccXxauDk.s 			page 44


 956:Generated_Source\PSoC5/ADC_DelSig.c **** *  ADC_DelSig_Offset:  Used as the offset while converting ADC counts
 957:Generated_Source\PSoC5/ADC_DelSig.c **** *   to mVolts.
 958:Generated_Source\PSoC5/ADC_DelSig.c **** *
 959:Generated_Source\PSoC5/ADC_DelSig.c **** *******************************************************************************/
 960:Generated_Source\PSoC5/ADC_DelSig.c **** int16 ADC_DelSig_CountsTo_mVolts(int32 adcCounts) 
 961:Generated_Source\PSoC5/ADC_DelSig.c **** {
 1497              		.loc 1 961 0
 1498              		.cfi_startproc
 1499              		@ args = 0, pretend = 0, frame = 16
 1500              		@ frame_needed = 1, uses_anonymous_args = 0
 1501              		@ link register save eliminated.
 1502 0000 80B4     		push	{r7}
 1503              		.cfi_def_cfa_offset 4
 1504              		.cfi_offset 7, -4
 1505 0002 85B0     		sub	sp, sp, #20
 1506              		.cfi_def_cfa_offset 24
 1507 0004 00AF     		add	r7, sp, #0
 1508              		.cfi_def_cfa_register 7
 1509 0006 7860     		str	r0, [r7, #4]
 962:Generated_Source\PSoC5/ADC_DelSig.c **** 
 963:Generated_Source\PSoC5/ADC_DelSig.c ****     int16 mVolts;
 964:Generated_Source\PSoC5/ADC_DelSig.c **** 
 965:Generated_Source\PSoC5/ADC_DelSig.c ****     /* Convert adcCounts to the right align if left option selected */
 966:Generated_Source\PSoC5/ADC_DelSig.c ****     #if(ADC_DelSig_CFG1_DEC_DIV != 0)
 967:Generated_Source\PSoC5/ADC_DelSig.c ****         if(ADC_DelSig_Config == ADC_DelSig_CFG1)
 968:Generated_Source\PSoC5/ADC_DelSig.c ****         {
 969:Generated_Source\PSoC5/ADC_DelSig.c ****             adcCounts /= ADC_DelSig_CFG1_DEC_DIV;
 970:Generated_Source\PSoC5/ADC_DelSig.c ****         }
 971:Generated_Source\PSoC5/ADC_DelSig.c ****     #endif /* ADC_DelSig_CFG1_DEC_DIV */
 972:Generated_Source\PSoC5/ADC_DelSig.c ****     #if((ADC_DelSig_CFG2_DEC_DIV != 0) && (ADC_DelSig_DEFAULT_NUM_CONFIGS > 1))
 973:Generated_Source\PSoC5/ADC_DelSig.c ****         if(ADC_DelSig_Config == ADC_DelSig_CFG2)
 974:Generated_Source\PSoC5/ADC_DelSig.c ****         {
 975:Generated_Source\PSoC5/ADC_DelSig.c ****             adcCounts /= ADC_DelSig_CFG2_DEC_DIV;
 976:Generated_Source\PSoC5/ADC_DelSig.c ****         }
 977:Generated_Source\PSoC5/ADC_DelSig.c ****     #endif /* ADC_DelSig_CFG2_DEC_DIV */
 978:Generated_Source\PSoC5/ADC_DelSig.c ****     #if((ADC_DelSig_CFG3_DEC_DIV != 0) && (ADC_DelSig_DEFAULT_NUM_CONFIGS > 2))
 979:Generated_Source\PSoC5/ADC_DelSig.c ****         if(ADC_DelSig_Config == ADC_DelSig_CFG3)
 980:Generated_Source\PSoC5/ADC_DelSig.c ****         {
 981:Generated_Source\PSoC5/ADC_DelSig.c ****             adcCounts /= ADC_DelSig_CFG3_DEC_DIV;
 982:Generated_Source\PSoC5/ADC_DelSig.c ****         }
 983:Generated_Source\PSoC5/ADC_DelSig.c ****     #endif /* ADC_DelSig_CFG2_DEC_DIV */
 984:Generated_Source\PSoC5/ADC_DelSig.c ****     #if((ADC_DelSig_CFG4_DEC_DIV != 0) && (ADC_DelSig_DEFAULT_NUM_CONFIGS > 3))
 985:Generated_Source\PSoC5/ADC_DelSig.c ****         if(ADC_DelSig_Config == ADC_DelSig_CFG4)
 986:Generated_Source\PSoC5/ADC_DelSig.c ****         {
 987:Generated_Source\PSoC5/ADC_DelSig.c ****             adcCounts /= ADC_DelSig_CFG4_DEC_DIV;
 988:Generated_Source\PSoC5/ADC_DelSig.c ****         }
 989:Generated_Source\PSoC5/ADC_DelSig.c ****     #endif /* ADC_DelSig_CFG2_DEC_DIV */
 990:Generated_Source\PSoC5/ADC_DelSig.c **** 
 991:Generated_Source\PSoC5/ADC_DelSig.c ****     /* Subtract ADC offset */
 992:Generated_Source\PSoC5/ADC_DelSig.c ****     adcCounts -= ADC_DelSig_Offset;
 1510              		.loc 1 992 0
 1511 0008 0A4B     		ldr	r3, .L79
 1512 000a 1B68     		ldr	r3, [r3]
 1513 000c 7A68     		ldr	r2, [r7, #4]
 1514 000e D31A     		subs	r3, r2, r3
 1515 0010 7B60     		str	r3, [r7, #4]
 993:Generated_Source\PSoC5/ADC_DelSig.c **** 
ARM GAS  C:\Users\Matthew\AppData\Local\Temp\ccXxauDk.s 			page 45


 994:Generated_Source\PSoC5/ADC_DelSig.c ****     mVolts = (int16)(( adcCounts * ADC_DelSig_1MV_COUNTS ) / ADC_DelSig_CountsPerVolt) ;
 1516              		.loc 1 994 0
 1517 0012 7B68     		ldr	r3, [r7, #4]
 1518 0014 4FF47A72 		mov	r2, #1000
 1519 0018 02FB03F2 		mul	r2, r2, r3
 1520 001c 064B     		ldr	r3, .L79+4
 1521 001e 1B68     		ldr	r3, [r3]
 1522 0020 92FBF3F3 		sdiv	r3, r2, r3
 1523 0024 FB81     		strh	r3, [r7, #14]	@ movhi
 995:Generated_Source\PSoC5/ADC_DelSig.c **** 
 996:Generated_Source\PSoC5/ADC_DelSig.c ****     return(mVolts);
 1524              		.loc 1 996 0
 1525 0026 B7F90E30 		ldrsh	r3, [r7, #14]
 997:Generated_Source\PSoC5/ADC_DelSig.c **** }
 1526              		.loc 1 997 0
 1527 002a 1846     		mov	r0, r3
 1528 002c 1437     		adds	r7, r7, #20
 1529              		.cfi_def_cfa_offset 4
 1530 002e BD46     		mov	sp, r7
 1531              		.cfi_def_cfa_register 13
 1532              		@ sp needed
 1533 0030 80BC     		pop	{r7}
 1534              		.cfi_restore 7
 1535              		.cfi_def_cfa_offset 0
 1536 0032 7047     		bx	lr
 1537              	.L80:
 1538              		.align	2
 1539              	.L79:
 1540 0034 00000000 		.word	ADC_DelSig_Offset
 1541 0038 00000000 		.word	ADC_DelSig_CountsPerVolt
 1542              		.cfi_endproc
 1543              	.LFE16:
 1544              		.size	ADC_DelSig_CountsTo_mVolts, .-ADC_DelSig_CountsTo_mVolts
 1545              		.global	__aeabi_i2f
 1546              		.section	.text.ADC_DelSig_CountsTo_Volts,"ax",%progbits
 1547              		.align	2
 1548              		.global	ADC_DelSig_CountsTo_Volts
 1549              		.thumb
 1550              		.thumb_func
 1551              		.type	ADC_DelSig_CountsTo_Volts, %function
 1552              	ADC_DelSig_CountsTo_Volts:
 1553              	.LFB17:
 998:Generated_Source\PSoC5/ADC_DelSig.c **** 
 999:Generated_Source\PSoC5/ADC_DelSig.c **** 
1000:Generated_Source\PSoC5/ADC_DelSig.c **** /*******************************************************************************
1001:Generated_Source\PSoC5/ADC_DelSig.c **** * Function Name: ADC_DelSig_CountsTo_Volts
1002:Generated_Source\PSoC5/ADC_DelSig.c **** ********************************************************************************
1003:Generated_Source\PSoC5/ADC_DelSig.c **** *
1004:Generated_Source\PSoC5/ADC_DelSig.c **** * Summary:
1005:Generated_Source\PSoC5/ADC_DelSig.c **** *  Converts the ADC output to Volts as a floating point number. For
1006:Generated_Source\PSoC5/ADC_DelSig.c **** *  example, if the ADC measure a voltage of 1.2345 Volts, the
1007:Generated_Source\PSoC5/ADC_DelSig.c **** *  returned result would be +1.2345 Volts.
1008:Generated_Source\PSoC5/ADC_DelSig.c **** *
1009:Generated_Source\PSoC5/ADC_DelSig.c **** * Parameters:
1010:Generated_Source\PSoC5/ADC_DelSig.c **** *  int32 adcCounts:  Result from the ADC conversion.
1011:Generated_Source\PSoC5/ADC_DelSig.c **** *
1012:Generated_Source\PSoC5/ADC_DelSig.c **** * Return:
ARM GAS  C:\Users\Matthew\AppData\Local\Temp\ccXxauDk.s 			page 46


1013:Generated_Source\PSoC5/ADC_DelSig.c **** *  float32: Result in Volts
1014:Generated_Source\PSoC5/ADC_DelSig.c **** *
1015:Generated_Source\PSoC5/ADC_DelSig.c **** * Global variables:
1016:Generated_Source\PSoC5/ADC_DelSig.c **** *  ADC_DelSig_CountsPerVolt:  used to convert to Volts.
1017:Generated_Source\PSoC5/ADC_DelSig.c **** *  ADC_DelSig_Offset:  Used as the offset while converting ADC counts
1018:Generated_Source\PSoC5/ADC_DelSig.c **** *   to Volts.
1019:Generated_Source\PSoC5/ADC_DelSig.c **** *
1020:Generated_Source\PSoC5/ADC_DelSig.c **** *******************************************************************************/
1021:Generated_Source\PSoC5/ADC_DelSig.c **** float32 ADC_DelSig_CountsTo_Volts(int32 adcCounts) 
1022:Generated_Source\PSoC5/ADC_DelSig.c **** {
 1554              		.loc 1 1022 0
 1555              		.cfi_startproc
 1556              		@ args = 0, pretend = 0, frame = 16
 1557              		@ frame_needed = 1, uses_anonymous_args = 0
 1558 0000 90B5     		push	{r4, r7, lr}
 1559              		.cfi_def_cfa_offset 12
 1560              		.cfi_offset 4, -12
 1561              		.cfi_offset 7, -8
 1562              		.cfi_offset 14, -4
 1563 0002 85B0     		sub	sp, sp, #20
 1564              		.cfi_def_cfa_offset 32
 1565 0004 00AF     		add	r7, sp, #0
 1566              		.cfi_def_cfa_register 7
 1567 0006 7860     		str	r0, [r7, #4]
1023:Generated_Source\PSoC5/ADC_DelSig.c **** 
1024:Generated_Source\PSoC5/ADC_DelSig.c ****     float32 Volts;
1025:Generated_Source\PSoC5/ADC_DelSig.c **** 
1026:Generated_Source\PSoC5/ADC_DelSig.c ****     /* Convert adcCounts to the right align if left option selected */
1027:Generated_Source\PSoC5/ADC_DelSig.c ****     #if(ADC_DelSig_CFG1_DEC_DIV != 0)
1028:Generated_Source\PSoC5/ADC_DelSig.c ****         if(ADC_DelSig_Config == ADC_DelSig_CFG1)
1029:Generated_Source\PSoC5/ADC_DelSig.c ****         {
1030:Generated_Source\PSoC5/ADC_DelSig.c ****             adcCounts /= ADC_DelSig_CFG1_DEC_DIV;
1031:Generated_Source\PSoC5/ADC_DelSig.c ****         }
1032:Generated_Source\PSoC5/ADC_DelSig.c ****     #endif /* ADC_DelSig_CFG1_DEC_DIV */
1033:Generated_Source\PSoC5/ADC_DelSig.c ****     #if((ADC_DelSig_CFG2_DEC_DIV != 0) && (ADC_DelSig_DEFAULT_NUM_CONFIGS > 1))
1034:Generated_Source\PSoC5/ADC_DelSig.c ****         if(ADC_DelSig_Config == ADC_DelSig_CFG2)
1035:Generated_Source\PSoC5/ADC_DelSig.c ****         {
1036:Generated_Source\PSoC5/ADC_DelSig.c ****             adcCounts /= ADC_DelSig_CFG2_DEC_DIV;
1037:Generated_Source\PSoC5/ADC_DelSig.c ****         }
1038:Generated_Source\PSoC5/ADC_DelSig.c ****     #endif /* ADC_DelSig_CFG2_DEC_DIV */
1039:Generated_Source\PSoC5/ADC_DelSig.c ****     #if((ADC_DelSig_CFG3_DEC_DIV != 0) && (ADC_DelSig_DEFAULT_NUM_CONFIGS > 2))
1040:Generated_Source\PSoC5/ADC_DelSig.c ****         if(ADC_DelSig_Config == ADC_DelSig_CFG3)
1041:Generated_Source\PSoC5/ADC_DelSig.c ****         {
1042:Generated_Source\PSoC5/ADC_DelSig.c ****             adcCounts /= ADC_DelSig_CFG3_DEC_DIV;
1043:Generated_Source\PSoC5/ADC_DelSig.c ****         }
1044:Generated_Source\PSoC5/ADC_DelSig.c ****     #endif /* ADC_DelSig_CFG2_DEC_DIV */
1045:Generated_Source\PSoC5/ADC_DelSig.c ****     #if((ADC_DelSig_CFG4_DEC_DIV != 0) && (ADC_DelSig_DEFAULT_NUM_CONFIGS > 3))
1046:Generated_Source\PSoC5/ADC_DelSig.c ****         if(ADC_DelSig_Config == ADC_DelSig_CFG4)
1047:Generated_Source\PSoC5/ADC_DelSig.c ****         {
1048:Generated_Source\PSoC5/ADC_DelSig.c ****             adcCounts /= ADC_DelSig_CFG4_DEC_DIV;
1049:Generated_Source\PSoC5/ADC_DelSig.c ****         }
1050:Generated_Source\PSoC5/ADC_DelSig.c ****     #endif /* ADC_DelSig_CFG2_DEC_DIV */
1051:Generated_Source\PSoC5/ADC_DelSig.c **** 
1052:Generated_Source\PSoC5/ADC_DelSig.c ****     /* Subtract ADC offset */
1053:Generated_Source\PSoC5/ADC_DelSig.c ****     adcCounts -= ADC_DelSig_Offset;
 1568              		.loc 1 1053 0
 1569 0008 0C4B     		ldr	r3, .L83
ARM GAS  C:\Users\Matthew\AppData\Local\Temp\ccXxauDk.s 			page 47


 1570 000a 1B68     		ldr	r3, [r3]
 1571 000c 7A68     		ldr	r2, [r7, #4]
 1572 000e D31A     		subs	r3, r2, r3
 1573 0010 7B60     		str	r3, [r7, #4]
1054:Generated_Source\PSoC5/ADC_DelSig.c **** 
1055:Generated_Source\PSoC5/ADC_DelSig.c ****     Volts = (float32)adcCounts / (float32)ADC_DelSig_CountsPerVolt;
 1574              		.loc 1 1055 0
 1575 0012 7868     		ldr	r0, [r7, #4]
 1576 0014 FFF7FEFF 		bl	__aeabi_i2f
 1577 0018 0446     		mov	r4, r0
 1578 001a 094B     		ldr	r3, .L83+4
 1579 001c 1B68     		ldr	r3, [r3]
 1580 001e 1846     		mov	r0, r3
 1581 0020 FFF7FEFF 		bl	__aeabi_i2f
 1582 0024 0346     		mov	r3, r0
 1583 0026 1946     		mov	r1, r3
 1584 0028 2046     		mov	r0, r4
 1585 002a FFF7FEFF 		bl	__aeabi_fdiv
 1586 002e 0346     		mov	r3, r0
 1587 0030 FB60     		str	r3, [r7, #12]	@ float
1056:Generated_Source\PSoC5/ADC_DelSig.c **** 
1057:Generated_Source\PSoC5/ADC_DelSig.c ****     return( Volts );
 1588              		.loc 1 1057 0
 1589 0032 FB68     		ldr	r3, [r7, #12]	@ float
1058:Generated_Source\PSoC5/ADC_DelSig.c **** }
 1590              		.loc 1 1058 0
 1591 0034 1846     		mov	r0, r3
 1592 0036 1437     		adds	r7, r7, #20
 1593              		.cfi_def_cfa_offset 12
 1594 0038 BD46     		mov	sp, r7
 1595              		.cfi_def_cfa_register 13
 1596              		@ sp needed
 1597 003a 90BD     		pop	{r4, r7, pc}
 1598              	.L84:
 1599              		.align	2
 1600              	.L83:
 1601 003c 00000000 		.word	ADC_DelSig_Offset
 1602 0040 00000000 		.word	ADC_DelSig_CountsPerVolt
 1603              		.cfi_endproc
 1604              	.LFE17:
 1605              		.size	ADC_DelSig_CountsTo_Volts, .-ADC_DelSig_CountsTo_Volts
 1606              		.section	.text.ADC_DelSig_CountsTo_uVolts,"ax",%progbits
 1607              		.align	2
 1608              		.global	ADC_DelSig_CountsTo_uVolts
 1609              		.thumb
 1610              		.thumb_func
 1611              		.type	ADC_DelSig_CountsTo_uVolts, %function
 1612              	ADC_DelSig_CountsTo_uVolts:
 1613              	.LFB18:
1059:Generated_Source\PSoC5/ADC_DelSig.c **** 
1060:Generated_Source\PSoC5/ADC_DelSig.c **** 
1061:Generated_Source\PSoC5/ADC_DelSig.c **** /*******************************************************************************
1062:Generated_Source\PSoC5/ADC_DelSig.c **** * Function Name: ADC_DelSig_CountsTo_uVolts
1063:Generated_Source\PSoC5/ADC_DelSig.c **** ********************************************************************************
1064:Generated_Source\PSoC5/ADC_DelSig.c **** *
1065:Generated_Source\PSoC5/ADC_DelSig.c **** * Summary:
1066:Generated_Source\PSoC5/ADC_DelSig.c **** *  Converts the ADC output to uVolts as a 32-bit integer. For example,
ARM GAS  C:\Users\Matthew\AppData\Local\Temp\ccXxauDk.s 			page 48


1067:Generated_Source\PSoC5/ADC_DelSig.c **** *  if the ADC measured -0.02345 Volts, the return value would be -23450 uVolts.
1068:Generated_Source\PSoC5/ADC_DelSig.c **** *
1069:Generated_Source\PSoC5/ADC_DelSig.c **** * Parameters:
1070:Generated_Source\PSoC5/ADC_DelSig.c **** *  int32 adcCounts: Result from the ADC conversion.
1071:Generated_Source\PSoC5/ADC_DelSig.c **** *
1072:Generated_Source\PSoC5/ADC_DelSig.c **** * Return:
1073:Generated_Source\PSoC5/ADC_DelSig.c **** *  int32:  Result in uVolts
1074:Generated_Source\PSoC5/ADC_DelSig.c **** *
1075:Generated_Source\PSoC5/ADC_DelSig.c **** * Global variables:
1076:Generated_Source\PSoC5/ADC_DelSig.c **** *  ADC_DelSig_CountsPerVolt:  used to convert ADC counts to mVolts.
1077:Generated_Source\PSoC5/ADC_DelSig.c **** *  ADC_DelSig_Offset:  Used as the offset while converting ADC counts
1078:Generated_Source\PSoC5/ADC_DelSig.c **** *   to mVolts.
1079:Generated_Source\PSoC5/ADC_DelSig.c **** *
1080:Generated_Source\PSoC5/ADC_DelSig.c **** * Theory:
1081:Generated_Source\PSoC5/ADC_DelSig.c **** *  Care must be taken to not exceed the maximum value for a 31 bit signed
1082:Generated_Source\PSoC5/ADC_DelSig.c **** *  number in the conversion to uVolts and at the same time not lose resolution.
1083:Generated_Source\PSoC5/ADC_DelSig.c **** *
1084:Generated_Source\PSoC5/ADC_DelSig.c **** *  uVolts = ((A * adcCounts) / ((int32)ADC_DelSig_CountsPerVolt / B));
1085:Generated_Source\PSoC5/ADC_DelSig.c **** *
1086:Generated_Source\PSoC5/ADC_DelSig.c **** *******************************************************************************/
1087:Generated_Source\PSoC5/ADC_DelSig.c **** int32 ADC_DelSig_CountsTo_uVolts(int32 adcCounts) 
1088:Generated_Source\PSoC5/ADC_DelSig.c **** {
 1614              		.loc 1 1088 0
 1615              		.cfi_startproc
 1616              		@ args = 0, pretend = 0, frame = 24
 1617              		@ frame_needed = 1, uses_anonymous_args = 0
 1618              		@ link register save eliminated.
 1619 0000 80B4     		push	{r7}
 1620              		.cfi_def_cfa_offset 4
 1621              		.cfi_offset 7, -4
 1622 0002 87B0     		sub	sp, sp, #28
 1623              		.cfi_def_cfa_offset 32
 1624 0004 00AF     		add	r7, sp, #0
 1625              		.cfi_def_cfa_register 7
 1626 0006 7860     		str	r0, [r7, #4]
1089:Generated_Source\PSoC5/ADC_DelSig.c **** 
1090:Generated_Source\PSoC5/ADC_DelSig.c ****     int32 uVolts;
1091:Generated_Source\PSoC5/ADC_DelSig.c ****     int32 coefA;
1092:Generated_Source\PSoC5/ADC_DelSig.c ****     int32 coefB;
1093:Generated_Source\PSoC5/ADC_DelSig.c ****     uint8 resolution;
1094:Generated_Source\PSoC5/ADC_DelSig.c **** 
1095:Generated_Source\PSoC5/ADC_DelSig.c ****     /* Set the resolution based on the configuration */
1096:Generated_Source\PSoC5/ADC_DelSig.c ****     /* Convert adcCounts to the right align if left option selected */
1097:Generated_Source\PSoC5/ADC_DelSig.c ****     if (ADC_DelSig_Config == ADC_DelSig_CFG1)
 1627              		.loc 1 1097 0
 1628 0008 224B     		ldr	r3, .L95
 1629 000a 1B78     		ldrb	r3, [r3]
 1630 000c DBB2     		uxtb	r3, r3
 1631 000e 012B     		cmp	r3, #1
 1632 0010 02D1     		bne	.L86
1098:Generated_Source\PSoC5/ADC_DelSig.c ****     {
1099:Generated_Source\PSoC5/ADC_DelSig.c ****         resolution = ADC_DelSig_CFG1_RESOLUTION;
 1633              		.loc 1 1099 0
 1634 0012 0A23     		movs	r3, #10
 1635 0014 FB73     		strb	r3, [r7, #15]
 1636 0016 11E0     		b	.L87
 1637              	.L86:
ARM GAS  C:\Users\Matthew\AppData\Local\Temp\ccXxauDk.s 			page 49


1100:Generated_Source\PSoC5/ADC_DelSig.c ****         #if(ADC_DelSig_CFG1_DEC_DIV != 0)
1101:Generated_Source\PSoC5/ADC_DelSig.c ****             adcCounts /= ADC_DelSig_CFG1_DEC_DIV;
1102:Generated_Source\PSoC5/ADC_DelSig.c ****         #endif /* ADC_DelSig_CFG1_DEC_DIV */
1103:Generated_Source\PSoC5/ADC_DelSig.c ****     }
1104:Generated_Source\PSoC5/ADC_DelSig.c ****     else if (ADC_DelSig_Config == ADC_DelSig_CFG2)
 1638              		.loc 1 1104 0
 1639 0018 1E4B     		ldr	r3, .L95
 1640 001a 1B78     		ldrb	r3, [r3]
 1641 001c DBB2     		uxtb	r3, r3
 1642 001e 022B     		cmp	r3, #2
 1643 0020 02D1     		bne	.L88
1105:Generated_Source\PSoC5/ADC_DelSig.c ****     {
1106:Generated_Source\PSoC5/ADC_DelSig.c ****         resolution = ADC_DelSig_CFG2_RESOLUTION;
 1644              		.loc 1 1106 0
 1645 0022 1023     		movs	r3, #16
 1646 0024 FB73     		strb	r3, [r7, #15]
 1647 0026 09E0     		b	.L87
 1648              	.L88:
1107:Generated_Source\PSoC5/ADC_DelSig.c ****         #if(ADC_DelSig_CFG2_DEC_DIV != 0)
1108:Generated_Source\PSoC5/ADC_DelSig.c ****             adcCounts /= ADC_DelSig_CFG2_DEC_DIV;
1109:Generated_Source\PSoC5/ADC_DelSig.c ****         #endif /* ADC_DelSig_CFG2_DEC_DIV */
1110:Generated_Source\PSoC5/ADC_DelSig.c ****     }
1111:Generated_Source\PSoC5/ADC_DelSig.c ****     else if (ADC_DelSig_Config == ADC_DelSig_CFG3)
 1649              		.loc 1 1111 0
 1650 0028 1A4B     		ldr	r3, .L95
 1651 002a 1B78     		ldrb	r3, [r3]
 1652 002c DBB2     		uxtb	r3, r3
 1653 002e 032B     		cmp	r3, #3
 1654 0030 02D1     		bne	.L89
1112:Generated_Source\PSoC5/ADC_DelSig.c ****     {
1113:Generated_Source\PSoC5/ADC_DelSig.c ****         resolution = ADC_DelSig_CFG3_RESOLUTION;
 1655              		.loc 1 1113 0
 1656 0032 1023     		movs	r3, #16
 1657 0034 FB73     		strb	r3, [r7, #15]
 1658 0036 01E0     		b	.L87
 1659              	.L89:
1114:Generated_Source\PSoC5/ADC_DelSig.c ****         #if(ADC_DelSig_CFG3_DEC_DIV != 0)
1115:Generated_Source\PSoC5/ADC_DelSig.c ****             adcCounts /= ADC_DelSig_CFG3_DEC_DIV;
1116:Generated_Source\PSoC5/ADC_DelSig.c ****         #endif /* ADC_DelSig_CFG3_DEC_DIV */
1117:Generated_Source\PSoC5/ADC_DelSig.c ****     }
1118:Generated_Source\PSoC5/ADC_DelSig.c ****     else
1119:Generated_Source\PSoC5/ADC_DelSig.c ****     {
1120:Generated_Source\PSoC5/ADC_DelSig.c ****         resolution = ADC_DelSig_CFG4_RESOLUTION;
 1660              		.loc 1 1120 0
 1661 0038 1023     		movs	r3, #16
 1662 003a FB73     		strb	r3, [r7, #15]
 1663              	.L87:
1121:Generated_Source\PSoC5/ADC_DelSig.c ****         #if(ADC_DelSig_CFG4_DEC_DIV != 0)
1122:Generated_Source\PSoC5/ADC_DelSig.c ****             adcCounts /= ADC_DelSig_CFG4_DEC_DIV;
1123:Generated_Source\PSoC5/ADC_DelSig.c ****         #endif /* ADC_DelSig_CFG4_DEC_DIV */
1124:Generated_Source\PSoC5/ADC_DelSig.c ****     }
1125:Generated_Source\PSoC5/ADC_DelSig.c **** 
1126:Generated_Source\PSoC5/ADC_DelSig.c ****     switch (resolution)
 1664              		.loc 1 1126 0
 1665 003c FB7B     		ldrb	r3, [r7, #15]	@ zero_extendqisi2
 1666 003e 102B     		cmp	r3, #16
 1667 0040 05D1     		bne	.L94
ARM GAS  C:\Users\Matthew\AppData\Local\Temp\ccXxauDk.s 			page 50


1127:Generated_Source\PSoC5/ADC_DelSig.c ****     {
1128:Generated_Source\PSoC5/ADC_DelSig.c ****         #if( (ADC_DelSig_CFG1_RESOLUTION == ADC_DelSig__BITS_12) || \
1129:Generated_Source\PSoC5/ADC_DelSig.c ****              (ADC_DelSig_CFG2_RESOLUTION == ADC_DelSig__BITS_12) || \
1130:Generated_Source\PSoC5/ADC_DelSig.c ****              (ADC_DelSig_CFG3_RESOLUTION == ADC_DelSig__BITS_12) || \
1131:Generated_Source\PSoC5/ADC_DelSig.c ****              (ADC_DelSig_CFG4_RESOLUTION == ADC_DelSig__BITS_12) )
1132:Generated_Source\PSoC5/ADC_DelSig.c ****             case (uint8)ADC_DelSig__BITS_12:
1133:Generated_Source\PSoC5/ADC_DelSig.c ****                 coefA = ADC_DelSig_1UV_COUNTS / ADC_DelSig_DIVISOR_2;
1134:Generated_Source\PSoC5/ADC_DelSig.c ****                 coefB = ADC_DelSig_DIVISOR_2;
1135:Generated_Source\PSoC5/ADC_DelSig.c ****                 break;
1136:Generated_Source\PSoC5/ADC_DelSig.c ****         #endif /* ADC_DelSig__BITS_12 */    
1137:Generated_Source\PSoC5/ADC_DelSig.c ****         #if( (ADC_DelSig_CFG1_RESOLUTION == ADC_DelSig__BITS_13) || \
1138:Generated_Source\PSoC5/ADC_DelSig.c ****              (ADC_DelSig_CFG2_RESOLUTION == ADC_DelSig__BITS_13) || \
1139:Generated_Source\PSoC5/ADC_DelSig.c ****              (ADC_DelSig_CFG3_RESOLUTION == ADC_DelSig__BITS_13) || \
1140:Generated_Source\PSoC5/ADC_DelSig.c ****              (ADC_DelSig_CFG4_RESOLUTION == ADC_DelSig__BITS_13) )
1141:Generated_Source\PSoC5/ADC_DelSig.c ****             case (uint8)ADC_DelSig__BITS_13:
1142:Generated_Source\PSoC5/ADC_DelSig.c ****                 coefA = ADC_DelSig_1UV_COUNTS / ADC_DelSig_DIVISOR_4;
1143:Generated_Source\PSoC5/ADC_DelSig.c ****                 coefB = ADC_DelSig_DIVISOR_4;
1144:Generated_Source\PSoC5/ADC_DelSig.c ****                 break;
1145:Generated_Source\PSoC5/ADC_DelSig.c ****         #endif /* ADC_DelSig__BITS_13 */    
1146:Generated_Source\PSoC5/ADC_DelSig.c ****         #if( (ADC_DelSig_CFG1_RESOLUTION == ADC_DelSig__BITS_14) || \
1147:Generated_Source\PSoC5/ADC_DelSig.c ****              (ADC_DelSig_CFG2_RESOLUTION == ADC_DelSig__BITS_14) || \
1148:Generated_Source\PSoC5/ADC_DelSig.c ****              (ADC_DelSig_CFG3_RESOLUTION == ADC_DelSig__BITS_14) || \
1149:Generated_Source\PSoC5/ADC_DelSig.c ****              (ADC_DelSig_CFG4_RESOLUTION == ADC_DelSig__BITS_14) )
1150:Generated_Source\PSoC5/ADC_DelSig.c ****             case (uint8)ADC_DelSig__BITS_14:
1151:Generated_Source\PSoC5/ADC_DelSig.c ****                 coefA = ADC_DelSig_1UV_COUNTS / ADC_DelSig_DIVISOR_8;
1152:Generated_Source\PSoC5/ADC_DelSig.c ****                 coefB = ADC_DelSig_DIVISOR_8;
1153:Generated_Source\PSoC5/ADC_DelSig.c ****                 break;
1154:Generated_Source\PSoC5/ADC_DelSig.c ****         #endif /* ADC_DelSig__BITS_14 */    
1155:Generated_Source\PSoC5/ADC_DelSig.c ****         #if( (ADC_DelSig_CFG1_RESOLUTION == ADC_DelSig__BITS_15) || \
1156:Generated_Source\PSoC5/ADC_DelSig.c ****              (ADC_DelSig_CFG2_RESOLUTION == ADC_DelSig__BITS_15) || \
1157:Generated_Source\PSoC5/ADC_DelSig.c ****              (ADC_DelSig_CFG3_RESOLUTION == ADC_DelSig__BITS_15) || \
1158:Generated_Source\PSoC5/ADC_DelSig.c ****              (ADC_DelSig_CFG4_RESOLUTION == ADC_DelSig__BITS_15) )
1159:Generated_Source\PSoC5/ADC_DelSig.c ****             case (uint8)ADC_DelSig__BITS_15:
1160:Generated_Source\PSoC5/ADC_DelSig.c ****                 coefA = ADC_DelSig_1UV_COUNTS / ADC_DelSig_DIVISOR_16;
1161:Generated_Source\PSoC5/ADC_DelSig.c ****                 coefB = ADC_DelSig_DIVISOR_16;
1162:Generated_Source\PSoC5/ADC_DelSig.c ****                 break;
1163:Generated_Source\PSoC5/ADC_DelSig.c ****         #endif /* ADC_DelSig__BITS_15 */    
1164:Generated_Source\PSoC5/ADC_DelSig.c ****         #if( (ADC_DelSig_CFG1_RESOLUTION == ADC_DelSig__BITS_16) || \
1165:Generated_Source\PSoC5/ADC_DelSig.c ****              (ADC_DelSig_CFG2_RESOLUTION == ADC_DelSig__BITS_16) || \
1166:Generated_Source\PSoC5/ADC_DelSig.c ****              (ADC_DelSig_CFG3_RESOLUTION == ADC_DelSig__BITS_16) || \
1167:Generated_Source\PSoC5/ADC_DelSig.c ****              (ADC_DelSig_CFG4_RESOLUTION == ADC_DelSig__BITS_16) )
1168:Generated_Source\PSoC5/ADC_DelSig.c ****             case (uint8)ADC_DelSig__BITS_16:
1169:Generated_Source\PSoC5/ADC_DelSig.c ****                 coefA = ADC_DelSig_1UV_COUNTS / ADC_DelSig_DIVISOR_32;
 1668              		.loc 1 1169 0
 1669 0042 47F61223 		movw	r3, #31250
 1670 0046 7B61     		str	r3, [r7, #20]
1170:Generated_Source\PSoC5/ADC_DelSig.c ****                 coefB = ADC_DelSig_DIVISOR_32;
 1671              		.loc 1 1170 0
 1672 0048 2023     		movs	r3, #32
 1673 004a 3B61     		str	r3, [r7, #16]
1171:Generated_Source\PSoC5/ADC_DelSig.c ****                 break;
 1674              		.loc 1 1171 0
 1675 004c 04E0     		b	.L92
 1676              	.L94:
1172:Generated_Source\PSoC5/ADC_DelSig.c ****         #endif /* ADC_DelSig__BITS_16 */    
1173:Generated_Source\PSoC5/ADC_DelSig.c ****         #if( (ADC_DelSig_CFG1_RESOLUTION == ADC_DelSig__BITS_17) || \
1174:Generated_Source\PSoC5/ADC_DelSig.c ****              (ADC_DelSig_CFG2_RESOLUTION == ADC_DelSig__BITS_17) || \
ARM GAS  C:\Users\Matthew\AppData\Local\Temp\ccXxauDk.s 			page 51


1175:Generated_Source\PSoC5/ADC_DelSig.c ****              (ADC_DelSig_CFG3_RESOLUTION == ADC_DelSig__BITS_17) || \
1176:Generated_Source\PSoC5/ADC_DelSig.c ****              (ADC_DelSig_CFG4_RESOLUTION == ADC_DelSig__BITS_17) )
1177:Generated_Source\PSoC5/ADC_DelSig.c ****             case (uint8)ADC_DelSig__BITS_17:
1178:Generated_Source\PSoC5/ADC_DelSig.c ****                 coefA = ADC_DelSig_1UV_COUNTS / ADC_DelSig_DIVISOR_64;
1179:Generated_Source\PSoC5/ADC_DelSig.c ****                 coefB = ADC_DelSig_DIVISOR_64;
1180:Generated_Source\PSoC5/ADC_DelSig.c ****                 break;
1181:Generated_Source\PSoC5/ADC_DelSig.c ****         #endif /* ADC_DelSig__BITS_17 */    
1182:Generated_Source\PSoC5/ADC_DelSig.c ****         #if( (ADC_DelSig_CFG1_RESOLUTION == ADC_DelSig__BITS_18) || \
1183:Generated_Source\PSoC5/ADC_DelSig.c ****              (ADC_DelSig_CFG2_RESOLUTION == ADC_DelSig__BITS_18) || \
1184:Generated_Source\PSoC5/ADC_DelSig.c ****              (ADC_DelSig_CFG3_RESOLUTION == ADC_DelSig__BITS_18) || \
1185:Generated_Source\PSoC5/ADC_DelSig.c ****              (ADC_DelSig_CFG4_RESOLUTION == ADC_DelSig__BITS_18) )
1186:Generated_Source\PSoC5/ADC_DelSig.c ****             case (uint8)ADC_DelSig__BITS_18:
1187:Generated_Source\PSoC5/ADC_DelSig.c ****                 coefA = ADC_DelSig_1UV_COUNTS / ADC_DelSig_DIVISOR_125;
1188:Generated_Source\PSoC5/ADC_DelSig.c ****                 coefB = ADC_DelSig_DIVISOR_125;
1189:Generated_Source\PSoC5/ADC_DelSig.c ****                 break;
1190:Generated_Source\PSoC5/ADC_DelSig.c ****         #endif /* ADC_DelSig__BITS_18 */    
1191:Generated_Source\PSoC5/ADC_DelSig.c ****         #if( (ADC_DelSig_CFG1_RESOLUTION == ADC_DelSig__BITS_19) || \
1192:Generated_Source\PSoC5/ADC_DelSig.c ****              (ADC_DelSig_CFG2_RESOLUTION == ADC_DelSig__BITS_19) || \
1193:Generated_Source\PSoC5/ADC_DelSig.c ****              (ADC_DelSig_CFG3_RESOLUTION == ADC_DelSig__BITS_19) || \
1194:Generated_Source\PSoC5/ADC_DelSig.c ****              (ADC_DelSig_CFG4_RESOLUTION == ADC_DelSig__BITS_19) )
1195:Generated_Source\PSoC5/ADC_DelSig.c ****             case (uint8)ADC_DelSig__BITS_19:
1196:Generated_Source\PSoC5/ADC_DelSig.c ****                 coefA = ADC_DelSig_1UV_COUNTS / ADC_DelSig_DIVISOR_250;
1197:Generated_Source\PSoC5/ADC_DelSig.c ****                 coefB = ADC_DelSig_DIVISOR_250;
1198:Generated_Source\PSoC5/ADC_DelSig.c ****                 break;
1199:Generated_Source\PSoC5/ADC_DelSig.c ****         #endif /* ADC_DelSig__BITS_19 */    
1200:Generated_Source\PSoC5/ADC_DelSig.c ****         #if( (ADC_DelSig_CFG1_RESOLUTION == ADC_DelSig__BITS_20) || \
1201:Generated_Source\PSoC5/ADC_DelSig.c ****              (ADC_DelSig_CFG2_RESOLUTION == ADC_DelSig__BITS_20) || \
1202:Generated_Source\PSoC5/ADC_DelSig.c ****              (ADC_DelSig_CFG3_RESOLUTION == ADC_DelSig__BITS_20) || \
1203:Generated_Source\PSoC5/ADC_DelSig.c ****              (ADC_DelSig_CFG4_RESOLUTION == ADC_DelSig__BITS_20) )
1204:Generated_Source\PSoC5/ADC_DelSig.c ****             case (uint8)ADC_DelSig__BITS_20:
1205:Generated_Source\PSoC5/ADC_DelSig.c ****                 coefA = ADC_DelSig_1UV_COUNTS / ADC_DelSig_DIVISOR_500;
1206:Generated_Source\PSoC5/ADC_DelSig.c ****                 coefB = ADC_DelSig_DIVISOR_500;
1207:Generated_Source\PSoC5/ADC_DelSig.c ****                 break;
1208:Generated_Source\PSoC5/ADC_DelSig.c ****         #endif /* ADC_DelSig__BITS_20 */    
1209:Generated_Source\PSoC5/ADC_DelSig.c ****         default:    /* resolution < 12 */
1210:Generated_Source\PSoC5/ADC_DelSig.c ****             /* 11 bits ADC + 2^20(1048576) = 31 bits */
1211:Generated_Source\PSoC5/ADC_DelSig.c ****             coefA = ADC_DelSig_1UV_COUNTS;
 1677              		.loc 1 1211 0
 1678 004e 124B     		ldr	r3, .L95+4
 1679 0050 7B61     		str	r3, [r7, #20]
1212:Generated_Source\PSoC5/ADC_DelSig.c ****             coefB = ADC_DelSig_DIVISOR_1;
 1680              		.loc 1 1212 0
 1681 0052 0123     		movs	r3, #1
 1682 0054 3B61     		str	r3, [r7, #16]
1213:Generated_Source\PSoC5/ADC_DelSig.c ****             break;
 1683              		.loc 1 1213 0
 1684 0056 00BF     		nop
 1685              	.L92:
1214:Generated_Source\PSoC5/ADC_DelSig.c ****     }
1215:Generated_Source\PSoC5/ADC_DelSig.c ****     coefB = ADC_DelSig_CountsPerVolt / coefB;
 1686              		.loc 1 1215 0
 1687 0058 104B     		ldr	r3, .L95+8
 1688 005a 1A68     		ldr	r2, [r3]
 1689 005c 3B69     		ldr	r3, [r7, #16]
 1690 005e 92FBF3F3 		sdiv	r3, r2, r3
 1691 0062 3B61     		str	r3, [r7, #16]
1216:Generated_Source\PSoC5/ADC_DelSig.c ****     uVolts = ((coefA * adcCounts) / coefB) - ((coefA * ADC_DelSig_Offset) / coefB);
ARM GAS  C:\Users\Matthew\AppData\Local\Temp\ccXxauDk.s 			page 52


 1692              		.loc 1 1216 0
 1693 0064 7B69     		ldr	r3, [r7, #20]
 1694 0066 7A68     		ldr	r2, [r7, #4]
 1695 0068 02FB03F2 		mul	r2, r2, r3
 1696 006c 3B69     		ldr	r3, [r7, #16]
 1697 006e 92FBF3F2 		sdiv	r2, r2, r3
 1698 0072 0B4B     		ldr	r3, .L95+12
 1699 0074 1B68     		ldr	r3, [r3]
 1700 0076 7969     		ldr	r1, [r7, #20]
 1701 0078 01FB03F1 		mul	r1, r1, r3
 1702 007c 3B69     		ldr	r3, [r7, #16]
 1703 007e 91FBF3F3 		sdiv	r3, r1, r3
 1704 0082 D31A     		subs	r3, r2, r3
 1705 0084 BB60     		str	r3, [r7, #8]
1217:Generated_Source\PSoC5/ADC_DelSig.c **** 
1218:Generated_Source\PSoC5/ADC_DelSig.c ****     return( uVolts );
 1706              		.loc 1 1218 0
 1707 0086 BB68     		ldr	r3, [r7, #8]
1219:Generated_Source\PSoC5/ADC_DelSig.c **** }
 1708              		.loc 1 1219 0
 1709 0088 1846     		mov	r0, r3
 1710 008a 1C37     		adds	r7, r7, #28
 1711              		.cfi_def_cfa_offset 4
 1712 008c BD46     		mov	sp, r7
 1713              		.cfi_def_cfa_register 13
 1714              		@ sp needed
 1715 008e 80BC     		pop	{r7}
 1716              		.cfi_restore 7
 1717              		.cfi_def_cfa_offset 0
 1718 0090 7047     		bx	lr
 1719              	.L96:
 1720 0092 00BF     		.align	2
 1721              	.L95:
 1722 0094 00000000 		.word	ADC_DelSig_Config
 1723 0098 40420F00 		.word	1000000
 1724 009c 00000000 		.word	ADC_DelSig_CountsPerVolt
 1725 00a0 00000000 		.word	ADC_DelSig_Offset
 1726              		.cfi_endproc
 1727              	.LFE18:
 1728              		.size	ADC_DelSig_CountsTo_uVolts, .-ADC_DelSig_CountsTo_uVolts
 1729              		.section	.text.ADC_DelSig_InitConfig,"ax",%progbits
 1730              		.align	2
 1731              		.thumb
 1732              		.thumb_func
 1733              		.type	ADC_DelSig_InitConfig, %function
 1734              	ADC_DelSig_InitConfig:
 1735              	.LFB19:
1220:Generated_Source\PSoC5/ADC_DelSig.c **** 
1221:Generated_Source\PSoC5/ADC_DelSig.c **** 
1222:Generated_Source\PSoC5/ADC_DelSig.c **** /*******************************************************************************
1223:Generated_Source\PSoC5/ADC_DelSig.c **** * Function Name: ADC_DelSig_InitConfig(uint8 config)
1224:Generated_Source\PSoC5/ADC_DelSig.c **** ********************************************************************************
1225:Generated_Source\PSoC5/ADC_DelSig.c **** *
1226:Generated_Source\PSoC5/ADC_DelSig.c **** * Summary:
1227:Generated_Source\PSoC5/ADC_DelSig.c **** *  Initializes all registers based on customizer settings
1228:Generated_Source\PSoC5/ADC_DelSig.c **** *
1229:Generated_Source\PSoC5/ADC_DelSig.c **** * Parameters:
ARM GAS  C:\Users\Matthew\AppData\Local\Temp\ccXxauDk.s 			page 53


1230:Generated_Source\PSoC5/ADC_DelSig.c **** *   void
1231:Generated_Source\PSoC5/ADC_DelSig.c **** *
1232:Generated_Source\PSoC5/ADC_DelSig.c **** * Return:
1233:Generated_Source\PSoC5/ADC_DelSig.c **** *  None
1234:Generated_Source\PSoC5/ADC_DelSig.c **** *
1235:Generated_Source\PSoC5/ADC_DelSig.c **** * Global variables:
1236:Generated_Source\PSoC5/ADC_DelSig.c **** *  ADC_DelSig_CountsPerVolt:  Used to set the default counts per volt.
1237:Generated_Source\PSoC5/ADC_DelSig.c **** *
1238:Generated_Source\PSoC5/ADC_DelSig.c **** * Side Effects: Rewrites the coherency set by ADC_DelSig_SetCoherency()
1239:Generated_Source\PSoC5/ADC_DelSig.c **** *   API to the default value.
1240:Generated_Source\PSoC5/ADC_DelSig.c **** *
1241:Generated_Source\PSoC5/ADC_DelSig.c **** *******************************************************************************/
1242:Generated_Source\PSoC5/ADC_DelSig.c **** static void ADC_DelSig_InitConfig(uint8 config) 
1243:Generated_Source\PSoC5/ADC_DelSig.c **** {
 1736              		.loc 1 1243 0
 1737              		.cfi_startproc
 1738              		@ args = 0, pretend = 0, frame = 8
 1739              		@ frame_needed = 1, uses_anonymous_args = 0
 1740 0000 80B5     		push	{r7, lr}
 1741              		.cfi_def_cfa_offset 8
 1742              		.cfi_offset 7, -8
 1743              		.cfi_offset 14, -4
 1744 0002 82B0     		sub	sp, sp, #8
 1745              		.cfi_def_cfa_offset 16
 1746 0004 00AF     		add	r7, sp, #0
 1747              		.cfi_def_cfa_register 7
 1748 0006 0346     		mov	r3, r0
 1749 0008 FB71     		strb	r3, [r7, #7]
1244:Generated_Source\PSoC5/ADC_DelSig.c ****     ADC_DelSig_stopConversion = 0u;
 1750              		.loc 1 1244 0
 1751 000a 384B     		ldr	r3, .L100
 1752 000c 0022     		movs	r2, #0
 1753 000e 1A70     		strb	r2, [r3]
1245:Generated_Source\PSoC5/ADC_DelSig.c **** 
1246:Generated_Source\PSoC5/ADC_DelSig.c ****     if (config == 1u)
 1754              		.loc 1 1246 0
 1755 0010 FB79     		ldrb	r3, [r7, #7]	@ zero_extendqisi2
 1756 0012 012B     		cmp	r3, #1
 1757 0014 65D1     		bne	.L99
1247:Generated_Source\PSoC5/ADC_DelSig.c ****     {
1248:Generated_Source\PSoC5/ADC_DelSig.c ****         /* 6.144 volt range */
1249:Generated_Source\PSoC5/ADC_DelSig.c ****         ADC_DelSig_DEC_CR_REG      = ADC_DelSig_CFG1_DEC_CR;
 1758              		.loc 1 1249 0
 1759 0016 364B     		ldr	r3, .L100+4
 1760 0018 3822     		movs	r2, #56
 1761 001a 1A70     		strb	r2, [r3]
1250:Generated_Source\PSoC5/ADC_DelSig.c ****         ADC_DelSig_DEC_SHIFT1_REG  = ADC_DelSig_CFG1_DEC_SHIFT1;
 1762              		.loc 1 1250 0
 1763 001c 354B     		ldr	r3, .L100+8
 1764 001e 0522     		movs	r2, #5
 1765 0020 1A70     		strb	r2, [r3]
1251:Generated_Source\PSoC5/ADC_DelSig.c ****         ADC_DelSig_DEC_SHIFT2_REG  = ADC_DelSig_CFG1_DEC_SHIFT2;
 1766              		.loc 1 1251 0
 1767 0022 354B     		ldr	r3, .L100+12
 1768 0024 0722     		movs	r2, #7
 1769 0026 1A70     		strb	r2, [r3]
1252:Generated_Source\PSoC5/ADC_DelSig.c ****         ADC_DelSig_DEC_DR2_REG     = ADC_DelSig_CFG1_DEC_DR2;
ARM GAS  C:\Users\Matthew\AppData\Local\Temp\ccXxauDk.s 			page 54


 1770              		.loc 1 1252 0
 1771 0028 344B     		ldr	r3, .L100+16
 1772 002a 0022     		movs	r2, #0
 1773 002c 1A70     		strb	r2, [r3]
1253:Generated_Source\PSoC5/ADC_DelSig.c ****         ADC_DelSig_DEC_DR2H_REG    = ADC_DelSig_CFG1_DEC_DR2H;
 1774              		.loc 1 1253 0
 1775 002e 344B     		ldr	r3, .L100+20
 1776 0030 0022     		movs	r2, #0
 1777 0032 1A70     		strb	r2, [r3]
1254:Generated_Source\PSoC5/ADC_DelSig.c ****         ADC_DelSig_DEC_DR1_REG     = ADC_DelSig_CFG1_DEC_DR1;
 1778              		.loc 1 1254 0
 1779 0034 334B     		ldr	r3, .L100+24
 1780 0036 1622     		movs	r2, #22
 1781 0038 1A70     		strb	r2, [r3]
1255:Generated_Source\PSoC5/ADC_DelSig.c ****         ADC_DelSig_DEC_OCOR_REG    = ADC_DelSig_CFG1_DEC_OCOR;
 1782              		.loc 1 1255 0
 1783 003a 334B     		ldr	r3, .L100+28
 1784 003c 0022     		movs	r2, #0
 1785 003e 1A70     		strb	r2, [r3]
1256:Generated_Source\PSoC5/ADC_DelSig.c ****         ADC_DelSig_DEC_OCORM_REG   = ADC_DelSig_CFG1_DEC_OCORM;
 1786              		.loc 1 1256 0
 1787 0040 324B     		ldr	r3, .L100+32
 1788 0042 0022     		movs	r2, #0
 1789 0044 1A70     		strb	r2, [r3]
1257:Generated_Source\PSoC5/ADC_DelSig.c ****         ADC_DelSig_DEC_OCORH_REG   = ADC_DelSig_CFG1_DEC_OCORH;
 1790              		.loc 1 1257 0
 1791 0046 324B     		ldr	r3, .L100+36
 1792 0048 0022     		movs	r2, #0
 1793 004a 1A70     		strb	r2, [r3]
1258:Generated_Source\PSoC5/ADC_DelSig.c ****         ADC_DelSig_DEC_COHER_REG   = ADC_DelSig_CFG1_DEC_COHER;
 1794              		.loc 1 1258 0
 1795 004c 314B     		ldr	r3, .L100+40
 1796 004e 0122     		movs	r2, #1
 1797 0050 1A70     		strb	r2, [r3]
1259:Generated_Source\PSoC5/ADC_DelSig.c **** 
1260:Generated_Source\PSoC5/ADC_DelSig.c ****         ADC_DelSig_DSM_CR4_REG     = ADC_DelSig_CFG1_DSM_CR4;
 1798              		.loc 1 1260 0
 1799 0052 314B     		ldr	r3, .L100+44
 1800 0054 1422     		movs	r2, #20
 1801 0056 1A70     		strb	r2, [r3]
1261:Generated_Source\PSoC5/ADC_DelSig.c ****         ADC_DelSig_DSM_CR5_REG     = ADC_DelSig_CFG1_DSM_CR5;
 1802              		.loc 1 1261 0
 1803 0058 304B     		ldr	r3, .L100+48
 1804 005a 0422     		movs	r2, #4
 1805 005c 1A70     		strb	r2, [r3]
1262:Generated_Source\PSoC5/ADC_DelSig.c ****         ADC_DelSig_DSM_CR6_REG     = ADC_DelSig_CFG1_DSM_CR6;
 1806              		.loc 1 1262 0
 1807 005e 304B     		ldr	r3, .L100+52
 1808 0060 1822     		movs	r2, #24
 1809 0062 1A70     		strb	r2, [r3]
1263:Generated_Source\PSoC5/ADC_DelSig.c ****         ADC_DelSig_DSM_CR7_REG     = ADC_DelSig_CFG1_DSM_CR7;
 1810              		.loc 1 1263 0
 1811 0064 2F4B     		ldr	r3, .L100+56
 1812 0066 0022     		movs	r2, #0
 1813 0068 1A70     		strb	r2, [r3]
1264:Generated_Source\PSoC5/ADC_DelSig.c ****         ADC_DelSig_DSM_CR10_REG    = ADC_DelSig_CFG1_DSM_CR10;
 1814              		.loc 1 1264 0
ARM GAS  C:\Users\Matthew\AppData\Local\Temp\ccXxauDk.s 			page 55


 1815 006a 2F4B     		ldr	r3, .L100+60
 1816 006c 1122     		movs	r2, #17
 1817 006e 1A70     		strb	r2, [r3]
1265:Generated_Source\PSoC5/ADC_DelSig.c ****         ADC_DelSig_DSM_CR11_REG    = ADC_DelSig_CFG1_DSM_CR11;
 1818              		.loc 1 1265 0
 1819 0070 2E4B     		ldr	r3, .L100+64
 1820 0072 1222     		movs	r2, #18
 1821 0074 1A70     		strb	r2, [r3]
1266:Generated_Source\PSoC5/ADC_DelSig.c ****         ADC_DelSig_DSM_CR12_REG    = ADC_DelSig_CFG1_DSM_CR12;
 1822              		.loc 1 1266 0
 1823 0076 2E4B     		ldr	r3, .L100+68
 1824 0078 0022     		movs	r2, #0
 1825 007a 1A70     		strb	r2, [r3]
1267:Generated_Source\PSoC5/ADC_DelSig.c ****         ADC_DelSig_DSM_CR14_REG    = ADC_DelSig_CFG1_DSM_CR14;
 1826              		.loc 1 1267 0
 1827 007c 2D4B     		ldr	r3, .L100+72
 1828 007e 0222     		movs	r2, #2
 1829 0080 1A70     		strb	r2, [r3]
1268:Generated_Source\PSoC5/ADC_DelSig.c ****         ADC_DelSig_DSM_CR15_REG    = ADC_DelSig_CFG1_DSM_CR15;
 1830              		.loc 1 1268 0
 1831 0082 2D4B     		ldr	r3, .L100+76
 1832 0084 2222     		movs	r2, #34
 1833 0086 1A70     		strb	r2, [r3]
1269:Generated_Source\PSoC5/ADC_DelSig.c ****         ADC_DelSig_DSM_CR16_REG    = ADC_DelSig_CFG1_DSM_CR16;
 1834              		.loc 1 1269 0
 1835 0088 2C4B     		ldr	r3, .L100+80
 1836 008a 2822     		movs	r2, #40
 1837 008c 1A70     		strb	r2, [r3]
1270:Generated_Source\PSoC5/ADC_DelSig.c ****         ADC_DelSig_DSM_CR17_REG    = ADC_DelSig_CFG1_DSM_CR17;
 1838              		.loc 1 1270 0
 1839 008e 2C4B     		ldr	r3, .L100+84
 1840 0090 EB22     		movs	r2, #235
 1841 0092 1A70     		strb	r2, [r3]
1271:Generated_Source\PSoC5/ADC_DelSig.c ****         /* Set DSM_REF0_REG by disabling and enabling the PRESS circuit */
1272:Generated_Source\PSoC5/ADC_DelSig.c ****         ADC_DelSig_SetDSMRef0Reg(ADC_DelSig_CFG1_DSM_REF0);
 1842              		.loc 1 1272 0
 1843 0094 4420     		movs	r0, #68
 1844 0096 FFF7FEFF 		bl	ADC_DelSig_SetDSMRef0Reg
1273:Generated_Source\PSoC5/ADC_DelSig.c ****         ADC_DelSig_DSM_REF2_REG    = ADC_DelSig_CFG1_DSM_REF2;
 1845              		.loc 1 1273 0
 1846 009a 2A4B     		ldr	r3, .L100+88
 1847 009c 5822     		movs	r2, #88
 1848 009e 1A70     		strb	r2, [r3]
1274:Generated_Source\PSoC5/ADC_DelSig.c ****         ADC_DelSig_DSM_REF3_REG    = ADC_DelSig_CFG1_DSM_REF3;
 1849              		.loc 1 1274 0
 1850 00a0 294B     		ldr	r3, .L100+92
 1851 00a2 0022     		movs	r2, #0
 1852 00a4 1A70     		strb	r2, [r3]
1275:Generated_Source\PSoC5/ADC_DelSig.c **** 
1276:Generated_Source\PSoC5/ADC_DelSig.c ****         ADC_DelSig_DSM_BUF0_REG    = ADC_DelSig_CFG1_DSM_BUF0;
 1853              		.loc 1 1276 0
 1854 00a6 294B     		ldr	r3, .L100+96
 1855 00a8 0522     		movs	r2, #5
 1856 00aa 1A70     		strb	r2, [r3]
1277:Generated_Source\PSoC5/ADC_DelSig.c ****         ADC_DelSig_DSM_BUF1_REG    = ADC_DelSig_CFG1_DSM_BUF1;
 1857              		.loc 1 1277 0
 1858 00ac 284B     		ldr	r3, .L100+100
ARM GAS  C:\Users\Matthew\AppData\Local\Temp\ccXxauDk.s 			page 56


 1859 00ae 0222     		movs	r2, #2
 1860 00b0 1A70     		strb	r2, [r3]
1278:Generated_Source\PSoC5/ADC_DelSig.c ****         ADC_DelSig_DSM_BUF2_REG    = ADC_DelSig_CFG1_DSM_BUF2;
 1861              		.loc 1 1278 0
 1862 00b2 284B     		ldr	r3, .L100+104
 1863 00b4 0022     		movs	r2, #0
 1864 00b6 1A70     		strb	r2, [r3]
1279:Generated_Source\PSoC5/ADC_DelSig.c ****         ADC_DelSig_DSM_BUF3_REG    = ADC_DelSig_CFG1_DSM_BUF3;
 1865              		.loc 1 1279 0
 1866 00b8 274B     		ldr	r3, .L100+108
 1867 00ba 0022     		movs	r2, #0
 1868 00bc 1A70     		strb	r2, [r3]
1280:Generated_Source\PSoC5/ADC_DelSig.c **** 
1281:Generated_Source\PSoC5/ADC_DelSig.c ****         /* To select either Vssa or Vref to -ve input of DSM depending on
1282:Generated_Source\PSoC5/ADC_DelSig.c ****         *  the input  range selected.
1283:Generated_Source\PSoC5/ADC_DelSig.c ****         */
1284:Generated_Source\PSoC5/ADC_DelSig.c ****         #if(ADC_DelSig_DEFAULT_INPUT_MODE)
1285:Generated_Source\PSoC5/ADC_DelSig.c ****             #if (ADC_DelSig_CFG1_INPUT_RANGE == ADC_DelSig_IR_VSSA_TO_2VREF)
1286:Generated_Source\PSoC5/ADC_DelSig.c ****                 ADC_DelSig_AMux_Select(1u);
1287:Generated_Source\PSoC5/ADC_DelSig.c ****             #else
1288:Generated_Source\PSoC5/ADC_DelSig.c ****                 ADC_DelSig_AMux_Select(0u);
 1869              		.loc 1 1288 0
 1870 00be 0020     		movs	r0, #0
 1871 00c0 FFF7FEFF 		bl	ADC_DelSig_AMux_Select
1289:Generated_Source\PSoC5/ADC_DelSig.c ****             #endif /* ADC_DelSig_IR_VSSA_TO_2VREF) */
1290:Generated_Source\PSoC5/ADC_DelSig.c ****         #endif /* ADC_DelSig_DEFAULT_INPUT_MODE */
1291:Generated_Source\PSoC5/ADC_DelSig.c **** 
1292:Generated_Source\PSoC5/ADC_DelSig.c ****         /* Set the Conversion stop if resolution is above 16 bit and conversion
1293:Generated_Source\PSoC5/ADC_DelSig.c ****         *   mode is Single sample
1294:Generated_Source\PSoC5/ADC_DelSig.c ****         */
1295:Generated_Source\PSoC5/ADC_DelSig.c ****         #if(ADC_DelSig_CFG1_RESOLUTION > 16 && \
1296:Generated_Source\PSoC5/ADC_DelSig.c ****             ADC_DelSig_CFG1_CONV_MODE == ADC_DelSig_MODE_SINGLE_SAMPLE)
1297:Generated_Source\PSoC5/ADC_DelSig.c ****             ADC_DelSig_stopConversion = 1u;
1298:Generated_Source\PSoC5/ADC_DelSig.c ****         #endif /* Single sample with resolution above 16 bits. */
1299:Generated_Source\PSoC5/ADC_DelSig.c **** 
1300:Generated_Source\PSoC5/ADC_DelSig.c ****         ADC_DelSig_CountsPerVolt = (int32)ADC_DelSig_CFG1_COUNTS_PER_VOLT;
 1872              		.loc 1 1300 0
 1873 00c4 254B     		ldr	r3, .L100+112
 1874 00c6 A722     		movs	r2, #167
 1875 00c8 1A60     		str	r2, [r3]
1301:Generated_Source\PSoC5/ADC_DelSig.c **** 
1302:Generated_Source\PSoC5/ADC_DelSig.c ****         ADC_DelSig_Ext_CP_Clk_SetDividerRegister(ADC_DelSig_CFG1_CP_CLK_DIVIDER, 1u);
 1876              		.loc 1 1302 0
 1877 00ca 0121     		movs	r1, #1
 1878 00cc 0220     		movs	r0, #2
 1879 00ce FFF7FEFF 		bl	ADC_DelSig_Ext_CP_Clk_SetDividerRegister
1303:Generated_Source\PSoC5/ADC_DelSig.c **** 
1304:Generated_Source\PSoC5/ADC_DelSig.c ****         /* This is only valid if there is an internal clock */
1305:Generated_Source\PSoC5/ADC_DelSig.c ****         #if(ADC_DelSig_DEFAULT_INTERNAL_CLK)
1306:Generated_Source\PSoC5/ADC_DelSig.c ****             ADC_DelSig_theACLK_SetDividerRegister(ADC_DelSig_CFG1_ADC_CLK_DIVIDER, 1u);
 1880              		.loc 1 1306 0
 1881 00d2 0121     		movs	r1, #1
 1882 00d4 0C20     		movs	r0, #12
 1883 00d6 FFF7FEFF 		bl	ADC_DelSig_theACLK_SetDividerRegister
1307:Generated_Source\PSoC5/ADC_DelSig.c ****         #endif /* ADC_DelSig_DEFAULT_INTERNAL_CLK */
1308:Generated_Source\PSoC5/ADC_DelSig.c **** 
1309:Generated_Source\PSoC5/ADC_DelSig.c ****         #if(ADC_DelSig_IRQ_REMOVE == 0u)
ARM GAS  C:\Users\Matthew\AppData\Local\Temp\ccXxauDk.s 			page 57


1310:Generated_Source\PSoC5/ADC_DelSig.c ****             /* Set interrupt vector */
1311:Generated_Source\PSoC5/ADC_DelSig.c ****             (void)CyIntSetVector(ADC_DelSig_INTC_NUMBER, &ADC_DelSig_ISR1);
 1884              		.loc 1 1311 0
 1885 00da 2149     		ldr	r1, .L100+116
 1886 00dc 1D20     		movs	r0, #29
 1887 00de FFF7FEFF 		bl	CyIntSetVector
 1888              	.L99:
1312:Generated_Source\PSoC5/ADC_DelSig.c ****         #endif   /* End ADC_DelSig_IRQ_REMOVE */
1313:Generated_Source\PSoC5/ADC_DelSig.c ****     }
1314:Generated_Source\PSoC5/ADC_DelSig.c **** 
1315:Generated_Source\PSoC5/ADC_DelSig.c ****     #if(ADC_DelSig_DEFAULT_NUM_CONFIGS > 1)
1316:Generated_Source\PSoC5/ADC_DelSig.c ****         if(config == 2u)
1317:Generated_Source\PSoC5/ADC_DelSig.c ****         {
1318:Generated_Source\PSoC5/ADC_DelSig.c ****             /* 4 V Range */
1319:Generated_Source\PSoC5/ADC_DelSig.c ****             ADC_DelSig_DEC_CR_REG      = ADC_DelSig_CFG2_DEC_CR;
1320:Generated_Source\PSoC5/ADC_DelSig.c ****             ADC_DelSig_DEC_SHIFT1_REG  = ADC_DelSig_CFG2_DEC_SHIFT1;
1321:Generated_Source\PSoC5/ADC_DelSig.c ****             ADC_DelSig_DEC_SHIFT2_REG  = ADC_DelSig_CFG2_DEC_SHIFT2;
1322:Generated_Source\PSoC5/ADC_DelSig.c ****             ADC_DelSig_DEC_DR2_REG     = ADC_DelSig_CFG2_DEC_DR2;
1323:Generated_Source\PSoC5/ADC_DelSig.c ****             ADC_DelSig_DEC_DR2H_REG    = ADC_DelSig_CFG2_DEC_DR2H;
1324:Generated_Source\PSoC5/ADC_DelSig.c ****             ADC_DelSig_DEC_DR1_REG     = ADC_DelSig_CFG2_DEC_DR1;
1325:Generated_Source\PSoC5/ADC_DelSig.c ****             ADC_DelSig_DEC_OCOR_REG    = ADC_DelSig_CFG2_DEC_OCOR;
1326:Generated_Source\PSoC5/ADC_DelSig.c ****             ADC_DelSig_DEC_OCORM_REG   = ADC_DelSig_CFG2_DEC_OCORM;
1327:Generated_Source\PSoC5/ADC_DelSig.c ****             ADC_DelSig_DEC_OCORH_REG   = ADC_DelSig_CFG2_DEC_OCORH;
1328:Generated_Source\PSoC5/ADC_DelSig.c ****             ADC_DelSig_DEC_COHER_REG   = ADC_DelSig_CFG2_DEC_COHER;
1329:Generated_Source\PSoC5/ADC_DelSig.c **** 
1330:Generated_Source\PSoC5/ADC_DelSig.c ****             ADC_DelSig_DSM_CR4_REG     = ADC_DelSig_CFG2_DSM_CR4;
1331:Generated_Source\PSoC5/ADC_DelSig.c ****             ADC_DelSig_DSM_CR5_REG     = ADC_DelSig_CFG2_DSM_CR5;
1332:Generated_Source\PSoC5/ADC_DelSig.c ****             ADC_DelSig_DSM_CR6_REG     = ADC_DelSig_CFG2_DSM_CR6;
1333:Generated_Source\PSoC5/ADC_DelSig.c ****             ADC_DelSig_DSM_CR7_REG     = ADC_DelSig_CFG2_DSM_CR7;
1334:Generated_Source\PSoC5/ADC_DelSig.c ****             ADC_DelSig_DSM_CR10_REG    = ADC_DelSig_CFG2_DSM_CR10;
1335:Generated_Source\PSoC5/ADC_DelSig.c ****             ADC_DelSig_DSM_CR11_REG    = ADC_DelSig_CFG2_DSM_CR11;
1336:Generated_Source\PSoC5/ADC_DelSig.c ****             ADC_DelSig_DSM_CR12_REG    = ADC_DelSig_CFG2_DSM_CR12;
1337:Generated_Source\PSoC5/ADC_DelSig.c ****             ADC_DelSig_DSM_CR14_REG    = ADC_DelSig_CFG2_DSM_CR14;
1338:Generated_Source\PSoC5/ADC_DelSig.c ****             ADC_DelSig_DSM_CR15_REG    = ADC_DelSig_CFG2_DSM_CR15;
1339:Generated_Source\PSoC5/ADC_DelSig.c ****             ADC_DelSig_DSM_CR16_REG    = ADC_DelSig_CFG2_DSM_CR16;
1340:Generated_Source\PSoC5/ADC_DelSig.c ****             ADC_DelSig_DSM_CR17_REG    = ADC_DelSig_CFG2_DSM_CR17;
1341:Generated_Source\PSoC5/ADC_DelSig.c ****             /* Set DSM_REF0_REG by disabling and enabling the PRESS cirucit */
1342:Generated_Source\PSoC5/ADC_DelSig.c ****             ADC_DelSig_SetDSMRef0Reg(ADC_DelSig_CFG2_DSM_REF0);
1343:Generated_Source\PSoC5/ADC_DelSig.c ****             ADC_DelSig_DSM_REF2_REG    = ADC_DelSig_CFG2_DSM_REF2;
1344:Generated_Source\PSoC5/ADC_DelSig.c ****             ADC_DelSig_DSM_REF3_REG    = ADC_DelSig_CFG2_DSM_REF3;
1345:Generated_Source\PSoC5/ADC_DelSig.c **** 
1346:Generated_Source\PSoC5/ADC_DelSig.c ****             ADC_DelSig_DSM_BUF0_REG    = ADC_DelSig_CFG2_DSM_BUF0;
1347:Generated_Source\PSoC5/ADC_DelSig.c ****             ADC_DelSig_DSM_BUF1_REG    = ADC_DelSig_CFG2_DSM_BUF1;
1348:Generated_Source\PSoC5/ADC_DelSig.c ****             ADC_DelSig_DSM_BUF2_REG    = ADC_DelSig_CFG2_DSM_BUF2;
1349:Generated_Source\PSoC5/ADC_DelSig.c ****             ADC_DelSig_DSM_BUF3_REG    = ADC_DelSig_CFG2_DSM_BUF3;
1350:Generated_Source\PSoC5/ADC_DelSig.c **** 
1351:Generated_Source\PSoC5/ADC_DelSig.c ****             /* To select either Vssa or Vref to -ve input of DSM depending on
1352:Generated_Source\PSoC5/ADC_DelSig.c ****             *  the input range selected.
1353:Generated_Source\PSoC5/ADC_DelSig.c ****             */
1354:Generated_Source\PSoC5/ADC_DelSig.c **** 
1355:Generated_Source\PSoC5/ADC_DelSig.c ****             #if(ADC_DelSig_DEFAULT_INPUT_MODE)
1356:Generated_Source\PSoC5/ADC_DelSig.c ****                 #if (ADC_DelSig_CFG2_INPUT_RANGE == ADC_DelSig_IR_VSSA_TO_2VREF)
1357:Generated_Source\PSoC5/ADC_DelSig.c ****                     ADC_DelSig_AMux_Select(1u);
1358:Generated_Source\PSoC5/ADC_DelSig.c ****                 #else
1359:Generated_Source\PSoC5/ADC_DelSig.c ****                     ADC_DelSig_AMux_Select(0u);
1360:Generated_Source\PSoC5/ADC_DelSig.c ****                 #endif /* ADC_DelSig_IR_VSSA_TO_2VREF) */
1361:Generated_Source\PSoC5/ADC_DelSig.c ****             #endif /* ADC_DelSig_DEFAULT_INPUT_MODE */
ARM GAS  C:\Users\Matthew\AppData\Local\Temp\ccXxauDk.s 			page 58


1362:Generated_Source\PSoC5/ADC_DelSig.c **** 
1363:Generated_Source\PSoC5/ADC_DelSig.c ****             /* Set the Conversion stop if resolution is above 16 bit and
1364:Generated_Source\PSoC5/ADC_DelSig.c ****             *   conversion mode is Single sample
1365:Generated_Source\PSoC5/ADC_DelSig.c ****             */
1366:Generated_Source\PSoC5/ADC_DelSig.c ****             #if(ADC_DelSig_CFG2_RESOLUTION > 16 && \
1367:Generated_Source\PSoC5/ADC_DelSig.c ****                 ADC_DelSig_CFG2_CONV_MODE == ADC_DelSig_MODE_SINGLE_SAMPLE)
1368:Generated_Source\PSoC5/ADC_DelSig.c ****                 ADC_DelSig_stopConversion = 1u;
1369:Generated_Source\PSoC5/ADC_DelSig.c ****             #endif /* Single sample with resolution above 16 bits. */
1370:Generated_Source\PSoC5/ADC_DelSig.c **** 
1371:Generated_Source\PSoC5/ADC_DelSig.c ****             ADC_DelSig_CountsPerVolt = (int32)ADC_DelSig_CFG2_COUNTS_PER_VOLT;
1372:Generated_Source\PSoC5/ADC_DelSig.c **** 
1373:Generated_Source\PSoC5/ADC_DelSig.c ****             ADC_DelSig_Ext_CP_Clk_SetDividerRegister(ADC_DelSig_CFG2_CP_CLK_DIVIDER, 1u);
1374:Generated_Source\PSoC5/ADC_DelSig.c **** 
1375:Generated_Source\PSoC5/ADC_DelSig.c ****             /* This is only valid if there is an internal clock */
1376:Generated_Source\PSoC5/ADC_DelSig.c ****             #if(ADC_DelSig_DEFAULT_INTERNAL_CLK)
1377:Generated_Source\PSoC5/ADC_DelSig.c ****                 ADC_DelSig_theACLK_SetDividerRegister(ADC_DelSig_CFG2_ADC_CLK_DIVIDER, 1u);
1378:Generated_Source\PSoC5/ADC_DelSig.c ****             #endif /* ADC_DelSig_DEFAULT_INTERNAL_CLK */
1379:Generated_Source\PSoC5/ADC_DelSig.c **** 
1380:Generated_Source\PSoC5/ADC_DelSig.c ****             #if(ADC_DelSig_IRQ_REMOVE == 0u)
1381:Generated_Source\PSoC5/ADC_DelSig.c ****                 /* Set interrupt vector */
1382:Generated_Source\PSoC5/ADC_DelSig.c ****                 (void)CyIntSetVector(ADC_DelSig_INTC_NUMBER, &ADC_DelSig_ISR2);
1383:Generated_Source\PSoC5/ADC_DelSig.c ****             #endif   /* End ADC_DelSig_IRQ_REMOVE */
1384:Generated_Source\PSoC5/ADC_DelSig.c ****         }
1385:Generated_Source\PSoC5/ADC_DelSig.c ****     #endif /* ADC_DelSig_DEFAULT_NUM_CONFIGS > 1 */
1386:Generated_Source\PSoC5/ADC_DelSig.c **** 
1387:Generated_Source\PSoC5/ADC_DelSig.c ****     #if(ADC_DelSig_DEFAULT_NUM_CONFIGS > 2)
1388:Generated_Source\PSoC5/ADC_DelSig.c ****         if(config == 3u)
1389:Generated_Source\PSoC5/ADC_DelSig.c ****         {
1390:Generated_Source\PSoC5/ADC_DelSig.c ****             /* Third Config */
1391:Generated_Source\PSoC5/ADC_DelSig.c ****             ADC_DelSig_DEC_CR_REG      = ADC_DelSig_CFG3_DEC_CR;
1392:Generated_Source\PSoC5/ADC_DelSig.c ****             ADC_DelSig_DEC_SHIFT1_REG  = ADC_DelSig_CFG3_DEC_SHIFT1;
1393:Generated_Source\PSoC5/ADC_DelSig.c ****             ADC_DelSig_DEC_SHIFT2_REG  = ADC_DelSig_CFG3_DEC_SHIFT2;
1394:Generated_Source\PSoC5/ADC_DelSig.c ****             ADC_DelSig_DEC_DR2_REG     = ADC_DelSig_CFG3_DEC_DR2;
1395:Generated_Source\PSoC5/ADC_DelSig.c ****             ADC_DelSig_DEC_DR2H_REG    = ADC_DelSig_CFG3_DEC_DR2H;
1396:Generated_Source\PSoC5/ADC_DelSig.c ****             ADC_DelSig_DEC_DR1_REG     = ADC_DelSig_CFG3_DEC_DR1;
1397:Generated_Source\PSoC5/ADC_DelSig.c ****             ADC_DelSig_DEC_OCOR_REG    = ADC_DelSig_CFG3_DEC_OCOR;
1398:Generated_Source\PSoC5/ADC_DelSig.c ****             ADC_DelSig_DEC_OCORM_REG   = ADC_DelSig_CFG3_DEC_OCORM;
1399:Generated_Source\PSoC5/ADC_DelSig.c ****             ADC_DelSig_DEC_OCORH_REG   = ADC_DelSig_CFG3_DEC_OCORH;
1400:Generated_Source\PSoC5/ADC_DelSig.c ****             ADC_DelSig_DEC_COHER_REG   = ADC_DelSig_CFG3_DEC_COHER;
1401:Generated_Source\PSoC5/ADC_DelSig.c **** 
1402:Generated_Source\PSoC5/ADC_DelSig.c ****             ADC_DelSig_DSM_CR4_REG     = ADC_DelSig_CFG3_DSM_CR4;
1403:Generated_Source\PSoC5/ADC_DelSig.c ****             ADC_DelSig_DSM_CR5_REG     = ADC_DelSig_CFG3_DSM_CR5;
1404:Generated_Source\PSoC5/ADC_DelSig.c ****             ADC_DelSig_DSM_CR6_REG     = ADC_DelSig_CFG3_DSM_CR6;
1405:Generated_Source\PSoC5/ADC_DelSig.c ****             ADC_DelSig_DSM_CR7_REG     = ADC_DelSig_CFG3_DSM_CR7;
1406:Generated_Source\PSoC5/ADC_DelSig.c ****             ADC_DelSig_DSM_CR10_REG    = ADC_DelSig_CFG3_DSM_CR10;
1407:Generated_Source\PSoC5/ADC_DelSig.c ****             ADC_DelSig_DSM_CR11_REG    = ADC_DelSig_CFG3_DSM_CR11;
1408:Generated_Source\PSoC5/ADC_DelSig.c ****             ADC_DelSig_DSM_CR12_REG    = ADC_DelSig_CFG3_DSM_CR12;
1409:Generated_Source\PSoC5/ADC_DelSig.c ****             ADC_DelSig_DSM_CR14_REG    = ADC_DelSig_CFG3_DSM_CR14;
1410:Generated_Source\PSoC5/ADC_DelSig.c ****             ADC_DelSig_DSM_CR15_REG    = ADC_DelSig_CFG3_DSM_CR15;
1411:Generated_Source\PSoC5/ADC_DelSig.c ****             ADC_DelSig_DSM_CR16_REG    = ADC_DelSig_CFG3_DSM_CR16;
1412:Generated_Source\PSoC5/ADC_DelSig.c ****             ADC_DelSig_DSM_CR17_REG    = ADC_DelSig_CFG3_DSM_CR17;
1413:Generated_Source\PSoC5/ADC_DelSig.c ****             /* Set DSM_REF0_REG by disabling and enabling the PRESS circuit */
1414:Generated_Source\PSoC5/ADC_DelSig.c ****             ADC_DelSig_SetDSMRef0Reg(ADC_DelSig_CFG3_DSM_REF0);
1415:Generated_Source\PSoC5/ADC_DelSig.c ****             ADC_DelSig_DSM_REF2_REG    = ADC_DelSig_CFG3_DSM_REF2;
1416:Generated_Source\PSoC5/ADC_DelSig.c ****             ADC_DelSig_DSM_REF3_REG    = ADC_DelSig_CFG3_DSM_REF3;
1417:Generated_Source\PSoC5/ADC_DelSig.c **** 
1418:Generated_Source\PSoC5/ADC_DelSig.c ****             ADC_DelSig_DSM_BUF0_REG    = ADC_DelSig_CFG3_DSM_BUF0;
ARM GAS  C:\Users\Matthew\AppData\Local\Temp\ccXxauDk.s 			page 59


1419:Generated_Source\PSoC5/ADC_DelSig.c ****             ADC_DelSig_DSM_BUF1_REG    = ADC_DelSig_CFG3_DSM_BUF1;
1420:Generated_Source\PSoC5/ADC_DelSig.c ****             ADC_DelSig_DSM_BUF2_REG    = ADC_DelSig_CFG3_DSM_BUF2;
1421:Generated_Source\PSoC5/ADC_DelSig.c ****             ADC_DelSig_DSM_BUF3_REG    = ADC_DelSig_CFG3_DSM_BUF3;
1422:Generated_Source\PSoC5/ADC_DelSig.c **** 
1423:Generated_Source\PSoC5/ADC_DelSig.c ****             /* To select either Vssa or Vref to -ve input of DSM depending on
1424:Generated_Source\PSoC5/ADC_DelSig.c ****             *  the input range selected.
1425:Generated_Source\PSoC5/ADC_DelSig.c ****             */
1426:Generated_Source\PSoC5/ADC_DelSig.c ****             #if(ADC_DelSig_DEFAULT_INPUT_MODE)
1427:Generated_Source\PSoC5/ADC_DelSig.c ****                 #if (ADC_DelSig_CFG3_INPUT_RANGE == ADC_DelSig_IR_VSSA_TO_2VREF)
1428:Generated_Source\PSoC5/ADC_DelSig.c ****                     ADC_DelSig_AMux_Select(1u);
1429:Generated_Source\PSoC5/ADC_DelSig.c ****                 #else
1430:Generated_Source\PSoC5/ADC_DelSig.c ****                     ADC_DelSig_AMux_Select(0u);
1431:Generated_Source\PSoC5/ADC_DelSig.c ****                 #endif /* ADC_DelSig_IR_VSSA_TO_2VREF) */
1432:Generated_Source\PSoC5/ADC_DelSig.c ****             #endif /* ADC_DelSig_DEFAULT_INPUT_MODE */
1433:Generated_Source\PSoC5/ADC_DelSig.c **** 
1434:Generated_Source\PSoC5/ADC_DelSig.c ****             /* Set the Conversion stop if resolution is above 16 bit and
1435:Generated_Source\PSoC5/ADC_DelSig.c ****                conversion  mode is Single sample */
1436:Generated_Source\PSoC5/ADC_DelSig.c ****             #if(ADC_DelSig_CFG3_RESOLUTION > 16 && \
1437:Generated_Source\PSoC5/ADC_DelSig.c ****                 ADC_DelSig_CFG3_CONV_MODE == ADC_DelSig_MODE_SINGLE_SAMPLE)
1438:Generated_Source\PSoC5/ADC_DelSig.c ****                 ADC_DelSig_stopConversion = 1u;
1439:Generated_Source\PSoC5/ADC_DelSig.c ****             #endif /* Single sample with resolution above 16 bits */
1440:Generated_Source\PSoC5/ADC_DelSig.c **** 
1441:Generated_Source\PSoC5/ADC_DelSig.c ****             ADC_DelSig_CountsPerVolt = (int32)ADC_DelSig_CFG3_COUNTS_PER_VOLT;
1442:Generated_Source\PSoC5/ADC_DelSig.c **** 
1443:Generated_Source\PSoC5/ADC_DelSig.c ****             ADC_DelSig_Ext_CP_Clk_SetDividerRegister(ADC_DelSig_CFG3_CP_CLK_DIVIDER, 1u);
1444:Generated_Source\PSoC5/ADC_DelSig.c **** 
1445:Generated_Source\PSoC5/ADC_DelSig.c ****             /* This is only valid if there is an internal clock */
1446:Generated_Source\PSoC5/ADC_DelSig.c ****             #if(ADC_DelSig_DEFAULT_INTERNAL_CLK)
1447:Generated_Source\PSoC5/ADC_DelSig.c ****                 ADC_DelSig_theACLK_SetDividerRegister(ADC_DelSig_CFG3_ADC_CLK_DIVIDER, 1u);
1448:Generated_Source\PSoC5/ADC_DelSig.c ****             #endif /* ADC_DelSig_DEFAULT_INTERNAL_CLK */
1449:Generated_Source\PSoC5/ADC_DelSig.c **** 
1450:Generated_Source\PSoC5/ADC_DelSig.c ****             #if(ADC_DelSig_IRQ_REMOVE == 0u)
1451:Generated_Source\PSoC5/ADC_DelSig.c ****                 /* Set interrupt vector */
1452:Generated_Source\PSoC5/ADC_DelSig.c ****                 (void)CyIntSetVector(ADC_DelSig_INTC_NUMBER, &ADC_DelSig_ISR3);
1453:Generated_Source\PSoC5/ADC_DelSig.c ****             #endif   /* End ADC_DelSig_IRQ_REMOVE */
1454:Generated_Source\PSoC5/ADC_DelSig.c ****         }
1455:Generated_Source\PSoC5/ADC_DelSig.c ****     #endif /* ADC_DelSig_DEFAULT_NUM_CONFIGS > 2 */
1456:Generated_Source\PSoC5/ADC_DelSig.c **** 
1457:Generated_Source\PSoC5/ADC_DelSig.c ****     #if(ADC_DelSig_DEFAULT_NUM_CONFIGS > 3)
1458:Generated_Source\PSoC5/ADC_DelSig.c ****         if (config == 4u)
1459:Generated_Source\PSoC5/ADC_DelSig.c ****         {
1460:Generated_Source\PSoC5/ADC_DelSig.c ****             /* Fourth Config */
1461:Generated_Source\PSoC5/ADC_DelSig.c ****             ADC_DelSig_DEC_CR_REG      = ADC_DelSig_CFG4_DEC_CR;
1462:Generated_Source\PSoC5/ADC_DelSig.c ****             ADC_DelSig_DEC_SHIFT1_REG  = ADC_DelSig_CFG4_DEC_SHIFT1;
1463:Generated_Source\PSoC5/ADC_DelSig.c ****             ADC_DelSig_DEC_SHIFT2_REG  = ADC_DelSig_CFG4_DEC_SHIFT2;
1464:Generated_Source\PSoC5/ADC_DelSig.c ****             ADC_DelSig_DEC_DR2_REG     = ADC_DelSig_CFG4_DEC_DR2;
1465:Generated_Source\PSoC5/ADC_DelSig.c ****             ADC_DelSig_DEC_DR2H_REG    = ADC_DelSig_CFG4_DEC_DR2H;
1466:Generated_Source\PSoC5/ADC_DelSig.c ****             ADC_DelSig_DEC_DR1_REG     = ADC_DelSig_CFG4_DEC_DR1;
1467:Generated_Source\PSoC5/ADC_DelSig.c ****             ADC_DelSig_DEC_OCOR_REG    = ADC_DelSig_CFG4_DEC_OCOR;
1468:Generated_Source\PSoC5/ADC_DelSig.c ****             ADC_DelSig_DEC_OCORM_REG   = ADC_DelSig_CFG4_DEC_OCORM;
1469:Generated_Source\PSoC5/ADC_DelSig.c ****             ADC_DelSig_DEC_OCORH_REG   = ADC_DelSig_CFG4_DEC_OCORH;
1470:Generated_Source\PSoC5/ADC_DelSig.c ****             ADC_DelSig_DEC_COHER_REG   = ADC_DelSig_CFG4_DEC_COHER;
1471:Generated_Source\PSoC5/ADC_DelSig.c **** 
1472:Generated_Source\PSoC5/ADC_DelSig.c ****             ADC_DelSig_DSM_CR4_REG     = ADC_DelSig_CFG4_DSM_CR4;
1473:Generated_Source\PSoC5/ADC_DelSig.c ****             ADC_DelSig_DSM_CR5_REG     = ADC_DelSig_CFG4_DSM_CR5;
1474:Generated_Source\PSoC5/ADC_DelSig.c ****             ADC_DelSig_DSM_CR6_REG     = ADC_DelSig_CFG4_DSM_CR6;
1475:Generated_Source\PSoC5/ADC_DelSig.c ****             ADC_DelSig_DSM_CR7_REG     = ADC_DelSig_CFG4_DSM_CR7;
ARM GAS  C:\Users\Matthew\AppData\Local\Temp\ccXxauDk.s 			page 60


1476:Generated_Source\PSoC5/ADC_DelSig.c ****             ADC_DelSig_DSM_CR10_REG    = ADC_DelSig_CFG4_DSM_CR10;
1477:Generated_Source\PSoC5/ADC_DelSig.c ****             ADC_DelSig_DSM_CR11_REG    = ADC_DelSig_CFG4_DSM_CR11;
1478:Generated_Source\PSoC5/ADC_DelSig.c ****             ADC_DelSig_DSM_CR12_REG    = ADC_DelSig_CFG4_DSM_CR12;
1479:Generated_Source\PSoC5/ADC_DelSig.c ****             ADC_DelSig_DSM_CR14_REG    = ADC_DelSig_CFG4_DSM_CR14;
1480:Generated_Source\PSoC5/ADC_DelSig.c ****             ADC_DelSig_DSM_CR15_REG    = ADC_DelSig_CFG4_DSM_CR15;
1481:Generated_Source\PSoC5/ADC_DelSig.c ****             ADC_DelSig_DSM_CR16_REG    = ADC_DelSig_CFG4_DSM_CR16;
1482:Generated_Source\PSoC5/ADC_DelSig.c ****             ADC_DelSig_DSM_CR17_REG    = ADC_DelSig_CFG4_DSM_CR17;
1483:Generated_Source\PSoC5/ADC_DelSig.c ****             /* Set DSM_REF0_REG by disabling and enabling the PRESS circuit */
1484:Generated_Source\PSoC5/ADC_DelSig.c ****             ADC_DelSig_SetDSMRef0Reg(ADC_DelSig_CFG4_DSM_REF0);
1485:Generated_Source\PSoC5/ADC_DelSig.c ****             ADC_DelSig_DSM_REF2_REG    = ADC_DelSig_CFG4_DSM_REF2;
1486:Generated_Source\PSoC5/ADC_DelSig.c ****             ADC_DelSig_DSM_REF3_REG    = ADC_DelSig_CFG4_DSM_REF3;
1487:Generated_Source\PSoC5/ADC_DelSig.c **** 
1488:Generated_Source\PSoC5/ADC_DelSig.c ****             ADC_DelSig_DSM_BUF0_REG    = ADC_DelSig_CFG4_DSM_BUF0;
1489:Generated_Source\PSoC5/ADC_DelSig.c ****             ADC_DelSig_DSM_BUF1_REG    = ADC_DelSig_CFG4_DSM_BUF1;
1490:Generated_Source\PSoC5/ADC_DelSig.c ****             ADC_DelSig_DSM_BUF2_REG    = ADC_DelSig_CFG4_DSM_BUF2;
1491:Generated_Source\PSoC5/ADC_DelSig.c ****             ADC_DelSig_DSM_BUF3_REG    = ADC_DelSig_CFG4_DSM_BUF3;
1492:Generated_Source\PSoC5/ADC_DelSig.c **** 
1493:Generated_Source\PSoC5/ADC_DelSig.c ****             /* To select either Vssa or Vref to -ve input of DSM depending on
1494:Generated_Source\PSoC5/ADC_DelSig.c ****             *  the input range selected.
1495:Generated_Source\PSoC5/ADC_DelSig.c ****             */
1496:Generated_Source\PSoC5/ADC_DelSig.c ****             #if(ADC_DelSig_DEFAULT_INPUT_MODE)
1497:Generated_Source\PSoC5/ADC_DelSig.c ****                 #if (ADC_DelSig_CFG4_INPUT_RANGE == ADC_DelSig_IR_VSSA_TO_2VREF)
1498:Generated_Source\PSoC5/ADC_DelSig.c ****                     ADC_DelSig_AMux_Select(1u);
1499:Generated_Source\PSoC5/ADC_DelSig.c ****                 #else
1500:Generated_Source\PSoC5/ADC_DelSig.c ****                     ADC_DelSig_AMux_Select(0u);
1501:Generated_Source\PSoC5/ADC_DelSig.c ****                 #endif /* ADC_DelSig_IR_VSSA_TO_2VREF) */
1502:Generated_Source\PSoC5/ADC_DelSig.c ****             #endif /* ADC_DelSig_DEFAULT_INPUT_MODE */
1503:Generated_Source\PSoC5/ADC_DelSig.c **** 
1504:Generated_Source\PSoC5/ADC_DelSig.c ****             /* Set the Conversion stop if resolution is above 16 bit and
1505:Generated_Source\PSoC5/ADC_DelSig.c ****                conversion mode is Single sample */
1506:Generated_Source\PSoC5/ADC_DelSig.c ****             #if(ADC_DelSig_CFG4_RESOLUTION > 16 && \
1507:Generated_Source\PSoC5/ADC_DelSig.c ****                 ADC_DelSig_CFG4_CONV_MODE == ADC_DelSig_MODE_SINGLE_SAMPLE)
1508:Generated_Source\PSoC5/ADC_DelSig.c ****                 ADC_DelSig_stopConversion = 1u;
1509:Generated_Source\PSoC5/ADC_DelSig.c ****             #endif /* Single sample with resolution above 16 bits */
1510:Generated_Source\PSoC5/ADC_DelSig.c **** 
1511:Generated_Source\PSoC5/ADC_DelSig.c ****             ADC_DelSig_CountsPerVolt = (int32)ADC_DelSig_CFG4_COUNTS_PER_VOLT;
1512:Generated_Source\PSoC5/ADC_DelSig.c **** 
1513:Generated_Source\PSoC5/ADC_DelSig.c ****             ADC_DelSig_Ext_CP_Clk_SetDividerRegister(ADC_DelSig_CFG4_CP_CLK_DIVIDER, 1u);
1514:Generated_Source\PSoC5/ADC_DelSig.c **** 
1515:Generated_Source\PSoC5/ADC_DelSig.c ****             /* This is only valid if there is an internal clock */
1516:Generated_Source\PSoC5/ADC_DelSig.c ****             #if(ADC_DelSig_DEFAULT_INTERNAL_CLK)
1517:Generated_Source\PSoC5/ADC_DelSig.c ****                 ADC_DelSig_theACLK_SetDividerRegister(ADC_DelSig_CFG4_ADC_CLK_DIVIDER, 1u);
1518:Generated_Source\PSoC5/ADC_DelSig.c ****             #endif /* ADC_DelSig_DEFAULT_INTERNAL_CLK */
1519:Generated_Source\PSoC5/ADC_DelSig.c **** 
1520:Generated_Source\PSoC5/ADC_DelSig.c ****             #if(ADC_DelSig_IRQ_REMOVE == 0u)
1521:Generated_Source\PSoC5/ADC_DelSig.c ****                 /* Set interrupt vector */
1522:Generated_Source\PSoC5/ADC_DelSig.c ****                 (void)CyIntSetVector(ADC_DelSig_INTC_NUMBER, &ADC_DelSig_ISR4);
1523:Generated_Source\PSoC5/ADC_DelSig.c ****             #endif   /* End ADC_DelSig_IRQ_REMOVE */
1524:Generated_Source\PSoC5/ADC_DelSig.c ****         }
1525:Generated_Source\PSoC5/ADC_DelSig.c ****     #endif /* ADC_DelSig_DEFAULT_NUM_CONFIGS > 3 */
1526:Generated_Source\PSoC5/ADC_DelSig.c **** }
 1889              		.loc 1 1526 0
 1890 00e2 00BF     		nop
 1891 00e4 0837     		adds	r7, r7, #8
 1892              		.cfi_def_cfa_offset 8
 1893 00e6 BD46     		mov	sp, r7
 1894              		.cfi_def_cfa_register 13
ARM GAS  C:\Users\Matthew\AppData\Local\Temp\ccXxauDk.s 			page 61


 1895              		@ sp needed
 1896 00e8 80BD     		pop	{r7, pc}
 1897              	.L101:
 1898 00ea 00BF     		.align	2
 1899              	.L100:
 1900 00ec 00000000 		.word	ADC_DelSig_stopConversion
 1901 00f0 004E0040 		.word	1073761792
 1902 00f4 024E0040 		.word	1073761794
 1903 00f8 034E0040 		.word	1073761795
 1904 00fc 044E0040 		.word	1073761796
 1905 0100 054E0040 		.word	1073761797
 1906 0104 064E0040 		.word	1073761798
 1907 0108 084E0040 		.word	1073761800
 1908 010c 094E0040 		.word	1073761801
 1909 0110 0A4E0040 		.word	1073761802
 1910 0114 144E0040 		.word	1073761812
 1911 0118 84580040 		.word	1073764484
 1912 011c 85580040 		.word	1073764485
 1913 0120 86580040 		.word	1073764486
 1914 0124 87580040 		.word	1073764487
 1915 0128 8A580040 		.word	1073764490
 1916 012c 8B580040 		.word	1073764491
 1917 0130 8C580040 		.word	1073764492
 1918 0134 8E580040 		.word	1073764494
 1919 0138 8F580040 		.word	1073764495
 1920 013c 90580040 		.word	1073764496
 1921 0140 91580040 		.word	1073764497
 1922 0144 94580040 		.word	1073764500
 1923 0148 95580040 		.word	1073764501
 1924 014c 9A580040 		.word	1073764506
 1925 0150 9B580040 		.word	1073764507
 1926 0154 9C580040 		.word	1073764508
 1927 0158 9D580040 		.word	1073764509
 1928 015c 00000000 		.word	ADC_DelSig_CountsPerVolt
 1929 0160 00000000 		.word	ADC_DelSig_ISR1
 1930              		.cfi_endproc
 1931              	.LFE19:
 1932              		.size	ADC_DelSig_InitConfig, .-ADC_DelSig_InitConfig
 1933              		.section	.text.ADC_DelSig_SelectConfiguration,"ax",%progbits
 1934              		.align	2
 1935              		.global	ADC_DelSig_SelectConfiguration
 1936              		.thumb
 1937              		.thumb_func
 1938              		.type	ADC_DelSig_SelectConfiguration, %function
 1939              	ADC_DelSig_SelectConfiguration:
 1940              	.LFB20:
1527:Generated_Source\PSoC5/ADC_DelSig.c **** 
1528:Generated_Source\PSoC5/ADC_DelSig.c **** 
1529:Generated_Source\PSoC5/ADC_DelSig.c **** /*******************************************************************************
1530:Generated_Source\PSoC5/ADC_DelSig.c **** * Function Name: ADC_DelSig_SelectCofiguration
1531:Generated_Source\PSoC5/ADC_DelSig.c **** ********************************************************************************
1532:Generated_Source\PSoC5/ADC_DelSig.c **** *
1533:Generated_Source\PSoC5/ADC_DelSig.c **** * Summary:
1534:Generated_Source\PSoC5/ADC_DelSig.c **** *  Sets one of up to four ADC configurations. Before setting the new
1535:Generated_Source\PSoC5/ADC_DelSig.c **** *  configuration, the ADC is stopped and powered down. After setting
1536:Generated_Source\PSoC5/ADC_DelSig.c **** *  the new configuration, the ADC can be powered and conversion
1537:Generated_Source\PSoC5/ADC_DelSig.c **** *  can be restarted depending up on the value of second parameter
ARM GAS  C:\Users\Matthew\AppData\Local\Temp\ccXxauDk.s 			page 62


1538:Generated_Source\PSoC5/ADC_DelSig.c **** *  restart. If the value of this parameter is 1, then ADC will be
1539:Generated_Source\PSoC5/ADC_DelSig.c **** *  restarted. If this value is zero, then user must call ADC_DelSig_Start
1540:Generated_Source\PSoC5/ADC_DelSig.c **** *  and ADC_DelSig_StartConvert() to restart the conversion.
1541:Generated_Source\PSoC5/ADC_DelSig.c **** *
1542:Generated_Source\PSoC5/ADC_DelSig.c **** * Parameters:
1543:Generated_Source\PSoC5/ADC_DelSig.c **** *  config:  configuration user wants to select.
1544:Generated_Source\PSoC5/ADC_DelSig.c **** *           Valid range: 1..4
1545:Generated_Source\PSoC5/ADC_DelSig.c **** *  restart:  Restart option. 1 means start the ADC and restart the conversion.
1546:Generated_Source\PSoC5/ADC_DelSig.c **** *                            0 means do not start the ADC and conversion.
1547:Generated_Source\PSoC5/ADC_DelSig.c **** *
1548:Generated_Source\PSoC5/ADC_DelSig.c **** * Return:
1549:Generated_Source\PSoC5/ADC_DelSig.c **** *  None
1550:Generated_Source\PSoC5/ADC_DelSig.c **** *
1551:Generated_Source\PSoC5/ADC_DelSig.c **** *******************************************************************************/
1552:Generated_Source\PSoC5/ADC_DelSig.c **** void ADC_DelSig_SelectConfiguration(uint8 config, uint8 restart)
1553:Generated_Source\PSoC5/ADC_DelSig.c ****                                               
1554:Generated_Source\PSoC5/ADC_DelSig.c **** {
 1941              		.loc 1 1554 0
 1942              		.cfi_startproc
 1943              		@ args = 0, pretend = 0, frame = 8
 1944              		@ frame_needed = 1, uses_anonymous_args = 0
 1945 0000 80B5     		push	{r7, lr}
 1946              		.cfi_def_cfa_offset 8
 1947              		.cfi_offset 7, -8
 1948              		.cfi_offset 14, -4
 1949 0002 82B0     		sub	sp, sp, #8
 1950              		.cfi_def_cfa_offset 16
 1951 0004 00AF     		add	r7, sp, #0
 1952              		.cfi_def_cfa_register 7
 1953 0006 0346     		mov	r3, r0
 1954 0008 0A46     		mov	r2, r1
 1955 000a FB71     		strb	r3, [r7, #7]
 1956 000c 1346     		mov	r3, r2
 1957 000e BB71     		strb	r3, [r7, #6]
1555:Generated_Source\PSoC5/ADC_DelSig.c ****     /* Check whether the configuration number is valid or not */
1556:Generated_Source\PSoC5/ADC_DelSig.c ****     if((config > 0u) && (config <= ADC_DelSig_DEFAULT_NUM_CONFIGS))
 1958              		.loc 1 1556 0
 1959 0010 FB79     		ldrb	r3, [r7, #7]	@ zero_extendqisi2
 1960 0012 002B     		cmp	r3, #0
 1961 0014 29D0     		beq	.L103
 1962              		.loc 1 1556 0 is_stmt 0 discriminator 1
 1963 0016 FB79     		ldrb	r3, [r7, #7]	@ zero_extendqisi2
 1964 0018 012B     		cmp	r3, #1
 1965 001a 26D8     		bhi	.L103
1557:Generated_Source\PSoC5/ADC_DelSig.c ****     {
1558:Generated_Source\PSoC5/ADC_DelSig.c ****         /* Set the flag to ensure Start() API doesn't override the 
1559:Generated_Source\PSoC5/ADC_DelSig.c **** 		*  selected configuration
1560:Generated_Source\PSoC5/ADC_DelSig.c **** 		*/
1561:Generated_Source\PSoC5/ADC_DelSig.c ****         if(ADC_DelSig_initVar == 0u)
 1966              		.loc 1 1561 0 is_stmt 1
 1967 001c 164B     		ldr	r3, .L107
 1968 001e 1B78     		ldrb	r3, [r3]	@ zero_extendqisi2
 1969 0020 002B     		cmp	r3, #0
 1970 0022 02D1     		bne	.L104
1562:Generated_Source\PSoC5/ADC_DelSig.c ****         {
1563:Generated_Source\PSoC5/ADC_DelSig.c ****             ADC_DelSig_started = 1u;
 1971              		.loc 1 1563 0
ARM GAS  C:\Users\Matthew\AppData\Local\Temp\ccXxauDk.s 			page 63


 1972 0024 154B     		ldr	r3, .L107+4
 1973 0026 0122     		movs	r2, #1
 1974 0028 1A70     		strb	r2, [r3]
 1975              	.L104:
1564:Generated_Source\PSoC5/ADC_DelSig.c ****         }
1565:Generated_Source\PSoC5/ADC_DelSig.c **** 
1566:Generated_Source\PSoC5/ADC_DelSig.c ****         /* Update the config flag */
1567:Generated_Source\PSoC5/ADC_DelSig.c ****         ADC_DelSig_Config = config;
 1976              		.loc 1 1567 0
 1977 002a 154A     		ldr	r2, .L107+8
 1978 002c FB79     		ldrb	r3, [r7, #7]
 1979 002e 1370     		strb	r3, [r2]
1568:Generated_Source\PSoC5/ADC_DelSig.c **** 
1569:Generated_Source\PSoC5/ADC_DelSig.c ****         /* Stop the ADC  */
1570:Generated_Source\PSoC5/ADC_DelSig.c ****         ADC_DelSig_Stop();
 1980              		.loc 1 1570 0
 1981 0030 FFF7FEFF 		bl	ADC_DelSig_Stop
1571:Generated_Source\PSoC5/ADC_DelSig.c **** 
1572:Generated_Source\PSoC5/ADC_DelSig.c ****         /* Set the  ADC registers based on the configuration */
1573:Generated_Source\PSoC5/ADC_DelSig.c ****         ADC_DelSig_InitConfig(config);
 1982              		.loc 1 1573 0
 1983 0034 FB79     		ldrb	r3, [r7, #7]	@ zero_extendqisi2
 1984 0036 1846     		mov	r0, r3
 1985 0038 FFF7FEFF 		bl	ADC_DelSig_InitConfig
1574:Generated_Source\PSoC5/ADC_DelSig.c **** 
1575:Generated_Source\PSoC5/ADC_DelSig.c ****         /* Compensate the gain */
1576:Generated_Source\PSoC5/ADC_DelSig.c ****         ADC_DelSig_DEC_GVAL_REG = ADC_DelSig_gcor[config - 1u].gval;
 1986              		.loc 1 1576 0
 1987 003c 114A     		ldr	r2, .L107+12
 1988 003e FB79     		ldrb	r3, [r7, #7]	@ zero_extendqisi2
 1989 0040 013B     		subs	r3, r3, #1
 1990 0042 1149     		ldr	r1, .L107+16
 1991 0044 9B00     		lsls	r3, r3, #2
 1992 0046 0B44     		add	r3, r3, r1
 1993 0048 9B78     		ldrb	r3, [r3, #2]	@ zero_extendqisi2
 1994 004a 1370     		strb	r3, [r2]
1577:Generated_Source\PSoC5/ADC_DelSig.c ****         CY_SET_REG16(ADC_DelSig_DEC_GCOR_16B_PTR, ADC_DelSig_gcor[config - 1u].gcor);
 1995              		.loc 1 1577 0
 1996 004c 0F4A     		ldr	r2, .L107+20
 1997 004e FB79     		ldrb	r3, [r7, #7]	@ zero_extendqisi2
 1998 0050 013B     		subs	r3, r3, #1
 1999 0052 0D49     		ldr	r1, .L107+16
 2000 0054 31F82330 		ldrh	r3, [r1, r3, lsl #2]
 2001 0058 1380     		strh	r3, [r2]	@ movhi
1578:Generated_Source\PSoC5/ADC_DelSig.c **** 
1579:Generated_Source\PSoC5/ADC_DelSig.c ****         if(restart == 1u)
 2002              		.loc 1 1579 0
 2003 005a BB79     		ldrb	r3, [r7, #6]	@ zero_extendqisi2
 2004 005c 012B     		cmp	r3, #1
 2005 005e 07D1     		bne	.L106
1580:Generated_Source\PSoC5/ADC_DelSig.c ****         {
1581:Generated_Source\PSoC5/ADC_DelSig.c ****             /* Restart the ADC */
1582:Generated_Source\PSoC5/ADC_DelSig.c ****             ADC_DelSig_Start();
 2006              		.loc 1 1582 0
 2007 0060 FFF7FEFF 		bl	ADC_DelSig_Start
1583:Generated_Source\PSoC5/ADC_DelSig.c **** 
1584:Generated_Source\PSoC5/ADC_DelSig.c ****             /* Restart the ADC conversion */
ARM GAS  C:\Users\Matthew\AppData\Local\Temp\ccXxauDk.s 			page 64


1585:Generated_Source\PSoC5/ADC_DelSig.c ****             ADC_DelSig_StartConvert();
 2008              		.loc 1 1585 0
 2009 0064 FFF7FEFF 		bl	ADC_DelSig_StartConvert
1579:Generated_Source\PSoC5/ADC_DelSig.c ****         {
 2010              		.loc 1 1579 0
 2011 0068 02E0     		b	.L106
 2012              	.L103:
1586:Generated_Source\PSoC5/ADC_DelSig.c ****         }
1587:Generated_Source\PSoC5/ADC_DelSig.c ****     }
1588:Generated_Source\PSoC5/ADC_DelSig.c ****     else
1589:Generated_Source\PSoC5/ADC_DelSig.c ****     {
1590:Generated_Source\PSoC5/ADC_DelSig.c ****         /* Halt CPU in debug mode if config is out of valid range */
1591:Generated_Source\PSoC5/ADC_DelSig.c ****         CYASSERT(0u != 0u);
 2013              		.loc 1 1591 0 discriminator 1
 2014 006a 0020     		movs	r0, #0
 2015 006c FFF7FEFF 		bl	CyHalt
 2016              	.L106:
1592:Generated_Source\PSoC5/ADC_DelSig.c ****     }
1593:Generated_Source\PSoC5/ADC_DelSig.c **** }
 2017              		.loc 1 1593 0
 2018 0070 00BF     		nop
 2019 0072 0837     		adds	r7, r7, #8
 2020              		.cfi_def_cfa_offset 8
 2021 0074 BD46     		mov	sp, r7
 2022              		.cfi_def_cfa_register 13
 2023              		@ sp needed
 2024 0076 80BD     		pop	{r7, pc}
 2025              	.L108:
 2026              		.align	2
 2027              	.L107:
 2028 0078 00000000 		.word	ADC_DelSig_initVar
 2029 007c 00000000 		.word	ADC_DelSig_started
 2030 0080 00000000 		.word	ADC_DelSig_Config
 2031 0084 0E4E0040 		.word	1073761806
 2032 0088 04000000 		.word	ADC_DelSig_gcor
 2033 008c 0C4E0040 		.word	1073761804
 2034              		.cfi_endproc
 2035              	.LFE20:
 2036              		.size	ADC_DelSig_SelectConfiguration, .-ADC_DelSig_SelectConfiguration
 2037              		.section	.text.ADC_DelSig_GainCompensation,"ax",%progbits
 2038              		.align	2
 2039              		.thumb
 2040              		.thumb_func
 2041              		.type	ADC_DelSig_GainCompensation, %function
 2042              	ADC_DelSig_GainCompensation:
 2043              	.LFB21:
1594:Generated_Source\PSoC5/ADC_DelSig.c **** 
1595:Generated_Source\PSoC5/ADC_DelSig.c **** 
1596:Generated_Source\PSoC5/ADC_DelSig.c **** /*******************************************************************************
1597:Generated_Source\PSoC5/ADC_DelSig.c **** * Function Name: ADC_DelSig_GainCompensation
1598:Generated_Source\PSoC5/ADC_DelSig.c **** ********************************************************************************
1599:Generated_Source\PSoC5/ADC_DelSig.c **** *
1600:Generated_Source\PSoC5/ADC_DelSig.c **** * Summary:
1601:Generated_Source\PSoC5/ADC_DelSig.c **** *  This API calculates the trim value and then store this to gcor structure.
1602:Generated_Source\PSoC5/ADC_DelSig.c **** *
1603:Generated_Source\PSoC5/ADC_DelSig.c **** * Parameters:
1604:Generated_Source\PSoC5/ADC_DelSig.c **** *  inputRange:  input range for which trim value is to be calculated.
ARM GAS  C:\Users\Matthew\AppData\Local\Temp\ccXxauDk.s 			page 65


1605:Generated_Source\PSoC5/ADC_DelSig.c **** *  IdealDecGain:  Ideal Decimator gain for the selected resolution and
1606:Generated_Source\PSoC5/ADC_DelSig.c **** *                 conversion  mode.
1607:Generated_Source\PSoC5/ADC_DelSig.c **** *  IdealOddDecGain:  Ideal odd decimation gain for the selected resolution and
1608:Generated_Source\PSoC5/ADC_DelSig.c ****                      conversion mode.
1609:Generated_Source\PSoC5/ADC_DelSig.c **** *  resolution:  Resolution to select the proper flash location for trim value.
1610:Generated_Source\PSoC5/ADC_DelSig.c **** *  config:      Specifies the configuration number
1611:Generated_Source\PSoC5/ADC_DelSig.c **** *               Valid range: 1..4
1612:Generated_Source\PSoC5/ADC_DelSig.c **** *
1613:Generated_Source\PSoC5/ADC_DelSig.c **** * Return:
1614:Generated_Source\PSoC5/ADC_DelSig.c **** *  None
1615:Generated_Source\PSoC5/ADC_DelSig.c **** *
1616:Generated_Source\PSoC5/ADC_DelSig.c **** *******************************************************************************/
1617:Generated_Source\PSoC5/ADC_DelSig.c **** static void ADC_DelSig_GainCompensation(uint8 inputRange, uint16 idealDecGain, uint16 idealOddDecGa
1618:Generated_Source\PSoC5/ADC_DelSig.c ****                               uint8 resolution, uint8 config) 
1619:Generated_Source\PSoC5/ADC_DelSig.c **** {
 2044              		.loc 1 1619 0
 2045              		.cfi_startproc
 2046              		@ args = 4, pretend = 0, frame = 24
 2047              		@ frame_needed = 1, uses_anonymous_args = 0
 2048 0000 90B5     		push	{r4, r7, lr}
 2049              		.cfi_def_cfa_offset 12
 2050              		.cfi_offset 4, -12
 2051              		.cfi_offset 7, -8
 2052              		.cfi_offset 14, -4
 2053 0002 87B0     		sub	sp, sp, #28
 2054              		.cfi_def_cfa_offset 40
 2055 0004 00AF     		add	r7, sp, #0
 2056              		.cfi_def_cfa_register 7
 2057 0006 0446     		mov	r4, r0
 2058 0008 0846     		mov	r0, r1
 2059 000a 1146     		mov	r1, r2
 2060 000c 1A46     		mov	r2, r3
 2061 000e 2346     		mov	r3, r4
 2062 0010 FB71     		strb	r3, [r7, #7]
 2063 0012 0346     		mov	r3, r0	@ movhi
 2064 0014 BB80     		strh	r3, [r7, #4]	@ movhi
 2065 0016 0B46     		mov	r3, r1	@ movhi
 2066 0018 7B80     		strh	r3, [r7, #2]	@ movhi
 2067 001a 1346     		mov	r3, r2
 2068 001c BB71     		strb	r3, [r7, #6]
1620:Generated_Source\PSoC5/ADC_DelSig.c ****     int8 flash;
1621:Generated_Source\PSoC5/ADC_DelSig.c **** 	int32 normalised;
1622:Generated_Source\PSoC5/ADC_DelSig.c **** 	uint16 gcorValue;
1623:Generated_Source\PSoC5/ADC_DelSig.c ****     uint32 gcorTmp;
1624:Generated_Source\PSoC5/ADC_DelSig.c **** 
1625:Generated_Source\PSoC5/ADC_DelSig.c ****     if((config > 0u) && (config <= ADC_DelSig_DEFAULT_NUM_CONFIGS))
 2069              		.loc 1 1625 0
 2070 001e 97F82830 		ldrb	r3, [r7, #40]	@ zero_extendqisi2
 2071 0022 002B     		cmp	r3, #0
 2072 0024 00F08B80 		beq	.L110
 2073              		.loc 1 1625 0 is_stmt 0 discriminator 1
 2074 0028 97F82830 		ldrb	r3, [r7, #40]	@ zero_extendqisi2
 2075 002c 012B     		cmp	r3, #1
 2076 002e 00F28680 		bhi	.L110
1626:Generated_Source\PSoC5/ADC_DelSig.c ****     {
1627:Generated_Source\PSoC5/ADC_DelSig.c ****         switch(inputRange)
 2077              		.loc 1 1627 0 is_stmt 1
ARM GAS  C:\Users\Matthew\AppData\Local\Temp\ccXxauDk.s 			page 66


 2078 0032 FB79     		ldrb	r3, [r7, #7]	@ zero_extendqisi2
 2079 0034 013B     		subs	r3, r3, #1
 2080 0036 092B     		cmp	r3, #9
 2081 0038 4AD8     		bhi	.L111
 2082 003a 01A2     		adr	r2, .L113
 2083 003c 52F823F0 		ldr	pc, [r2, r3, lsl #2]
 2084              		.p2align 2
 2085              	.L113:
 2086 0040 69000000 		.word	.L112+1
 2087 0044 D1000000 		.word	.L111+1
 2088 0048 D1000000 		.word	.L111+1
 2089 004c 69000000 		.word	.L112+1
 2090 0050 D1000000 		.word	.L111+1
 2091 0054 D1000000 		.word	.L111+1
 2092 0058 83000000 		.word	.L114+1
 2093 005c 9D000000 		.word	.L115+1
 2094 0060 D1000000 		.word	.L111+1
 2095 0064 B7000000 		.word	.L116+1
 2096              		.p2align 1
 2097              	.L112:
1628:Generated_Source\PSoC5/ADC_DelSig.c ****         {
1629:Generated_Source\PSoC5/ADC_DelSig.c ****             case ADC_DelSig_IR_VNEG_VREF_DIFF:
1630:Generated_Source\PSoC5/ADC_DelSig.c ****             case ADC_DelSig_IR_VSSA_TO_2VREF:
1631:Generated_Source\PSoC5/ADC_DelSig.c ****                 /* Normalize the flash Value */
1632:Generated_Source\PSoC5/ADC_DelSig.c ****                 if(resolution > 15u)
 2098              		.loc 1 1632 0
 2099 0068 BB79     		ldrb	r3, [r7, #6]	@ zero_extendqisi2
 2100 006a 0F2B     		cmp	r3, #15
 2101 006c 04D9     		bls	.L117
1633:Generated_Source\PSoC5/ADC_DelSig.c ****                 {
1634:Generated_Source\PSoC5/ADC_DelSig.c ****                     flash = ADC_DelSig_DEC_TRIM_VREF_DIFF_16_20;
 2102              		.loc 1 1634 0
 2103 006e 374B     		ldr	r3, .L129
 2104 0070 1B78     		ldrb	r3, [r3]
 2105 0072 DBB2     		uxtb	r3, r3
 2106 0074 FB75     		strb	r3, [r7, #23]
1635:Generated_Source\PSoC5/ADC_DelSig.c ****                 }
1636:Generated_Source\PSoC5/ADC_DelSig.c ****                 else
1637:Generated_Source\PSoC5/ADC_DelSig.c ****                 {
1638:Generated_Source\PSoC5/ADC_DelSig.c ****                     flash = ADC_DelSig_DEC_TRIM_VREF_DIFF_8_15;
1639:Generated_Source\PSoC5/ADC_DelSig.c ****                 }
1640:Generated_Source\PSoC5/ADC_DelSig.c ****                 break;
 2107              		.loc 1 1640 0
 2108 0076 2EE0     		b	.L119
 2109              	.L117:
1638:Generated_Source\PSoC5/ADC_DelSig.c ****                 }
 2110              		.loc 1 1638 0
 2111 0078 354B     		ldr	r3, .L129+4
 2112 007a 1B78     		ldrb	r3, [r3]
 2113 007c DBB2     		uxtb	r3, r3
 2114 007e FB75     		strb	r3, [r7, #23]
 2115              		.loc 1 1640 0
 2116 0080 29E0     		b	.L119
 2117              	.L114:
1641:Generated_Source\PSoC5/ADC_DelSig.c **** 
1642:Generated_Source\PSoC5/ADC_DelSig.c ****             case ADC_DelSig_IR_VNEG_VREF_2_DIFF:
1643:Generated_Source\PSoC5/ADC_DelSig.c ****                 /* Normalize the flash Value */
ARM GAS  C:\Users\Matthew\AppData\Local\Temp\ccXxauDk.s 			page 67


1644:Generated_Source\PSoC5/ADC_DelSig.c ****                 if(resolution > 15u)
 2118              		.loc 1 1644 0
 2119 0082 BB79     		ldrb	r3, [r7, #6]	@ zero_extendqisi2
 2120 0084 0F2B     		cmp	r3, #15
 2121 0086 04D9     		bls	.L120
1645:Generated_Source\PSoC5/ADC_DelSig.c ****                 {
1646:Generated_Source\PSoC5/ADC_DelSig.c ****                     flash = ADC_DelSig_DEC_TRIM_VREF_2_DIFF_16_20;
 2122              		.loc 1 1646 0
 2123 0088 324B     		ldr	r3, .L129+8
 2124 008a 1B78     		ldrb	r3, [r3]
 2125 008c DBB2     		uxtb	r3, r3
 2126 008e FB75     		strb	r3, [r7, #23]
1647:Generated_Source\PSoC5/ADC_DelSig.c ****                 }
1648:Generated_Source\PSoC5/ADC_DelSig.c ****                 else
1649:Generated_Source\PSoC5/ADC_DelSig.c ****                 {
1650:Generated_Source\PSoC5/ADC_DelSig.c ****                     flash = ADC_DelSig_DEC_TRIM_VREF_2_DIFF_8_15;
1651:Generated_Source\PSoC5/ADC_DelSig.c ****                 }
1652:Generated_Source\PSoC5/ADC_DelSig.c ****                 break;
 2127              		.loc 1 1652 0
 2128 0090 21E0     		b	.L119
 2129              	.L120:
1650:Generated_Source\PSoC5/ADC_DelSig.c ****                 }
 2130              		.loc 1 1650 0
 2131 0092 314B     		ldr	r3, .L129+12
 2132 0094 1B78     		ldrb	r3, [r3]
 2133 0096 DBB2     		uxtb	r3, r3
 2134 0098 FB75     		strb	r3, [r7, #23]
 2135              		.loc 1 1652 0
 2136 009a 1CE0     		b	.L119
 2137              	.L115:
1653:Generated_Source\PSoC5/ADC_DelSig.c **** 
1654:Generated_Source\PSoC5/ADC_DelSig.c ****             case ADC_DelSig_IR_VNEG_VREF_4_DIFF:
1655:Generated_Source\PSoC5/ADC_DelSig.c ****                 /* Normalize the flash Value */
1656:Generated_Source\PSoC5/ADC_DelSig.c ****                 if(resolution > 15u)
 2138              		.loc 1 1656 0
 2139 009c BB79     		ldrb	r3, [r7, #6]	@ zero_extendqisi2
 2140 009e 0F2B     		cmp	r3, #15
 2141 00a0 04D9     		bls	.L122
1657:Generated_Source\PSoC5/ADC_DelSig.c ****                 {
1658:Generated_Source\PSoC5/ADC_DelSig.c ****                     flash = ADC_DelSig_DEC_TRIM_VREF_4_DIFF_16_20;
 2142              		.loc 1 1658 0
 2143 00a2 2E4B     		ldr	r3, .L129+16
 2144 00a4 1B78     		ldrb	r3, [r3]
 2145 00a6 DBB2     		uxtb	r3, r3
 2146 00a8 FB75     		strb	r3, [r7, #23]
1659:Generated_Source\PSoC5/ADC_DelSig.c ****                 }
1660:Generated_Source\PSoC5/ADC_DelSig.c ****                 else
1661:Generated_Source\PSoC5/ADC_DelSig.c ****                 {
1662:Generated_Source\PSoC5/ADC_DelSig.c ****                     flash = ADC_DelSig_DEC_TRIM_VREF_4_DIFF_8_15;
1663:Generated_Source\PSoC5/ADC_DelSig.c ****                 }
1664:Generated_Source\PSoC5/ADC_DelSig.c ****                 break;
 2147              		.loc 1 1664 0
 2148 00aa 14E0     		b	.L119
 2149              	.L122:
1662:Generated_Source\PSoC5/ADC_DelSig.c ****                 }
 2150              		.loc 1 1662 0
 2151 00ac 2C4B     		ldr	r3, .L129+20
ARM GAS  C:\Users\Matthew\AppData\Local\Temp\ccXxauDk.s 			page 68


 2152 00ae 1B78     		ldrb	r3, [r3]
 2153 00b0 DBB2     		uxtb	r3, r3
 2154 00b2 FB75     		strb	r3, [r7, #23]
 2155              		.loc 1 1664 0
 2156 00b4 0FE0     		b	.L119
 2157              	.L116:
1665:Generated_Source\PSoC5/ADC_DelSig.c **** 
1666:Generated_Source\PSoC5/ADC_DelSig.c ****             case ADC_DelSig_IR_VNEG_VREF_16_DIFF:
1667:Generated_Source\PSoC5/ADC_DelSig.c ****                 /* Normalize the flash Value */
1668:Generated_Source\PSoC5/ADC_DelSig.c ****                 if(resolution > 15u)
 2158              		.loc 1 1668 0
 2159 00b6 BB79     		ldrb	r3, [r7, #6]	@ zero_extendqisi2
 2160 00b8 0F2B     		cmp	r3, #15
 2161 00ba 04D9     		bls	.L124
1669:Generated_Source\PSoC5/ADC_DelSig.c ****                 {
1670:Generated_Source\PSoC5/ADC_DelSig.c ****                     flash = ADC_DelSig_DEC_TRIM_VREF_16_DIFF_16_20;
 2162              		.loc 1 1670 0
 2163 00bc 294B     		ldr	r3, .L129+24
 2164 00be 1B78     		ldrb	r3, [r3]
 2165 00c0 DBB2     		uxtb	r3, r3
 2166 00c2 FB75     		strb	r3, [r7, #23]
1671:Generated_Source\PSoC5/ADC_DelSig.c ****                 }
1672:Generated_Source\PSoC5/ADC_DelSig.c ****                 else
1673:Generated_Source\PSoC5/ADC_DelSig.c ****                 {
1674:Generated_Source\PSoC5/ADC_DelSig.c ****                     flash = ADC_DelSig_DEC_TRIM_VREF_16_DIFF_8_15;
1675:Generated_Source\PSoC5/ADC_DelSig.c ****                 }
1676:Generated_Source\PSoC5/ADC_DelSig.c ****                 break;
 2167              		.loc 1 1676 0
 2168 00c4 07E0     		b	.L119
 2169              	.L124:
1674:Generated_Source\PSoC5/ADC_DelSig.c ****                 }
 2170              		.loc 1 1674 0
 2171 00c6 284B     		ldr	r3, .L129+28
 2172 00c8 1B78     		ldrb	r3, [r3]
 2173 00ca DBB2     		uxtb	r3, r3
 2174 00cc FB75     		strb	r3, [r7, #23]
 2175              		.loc 1 1676 0
 2176 00ce 02E0     		b	.L119
 2177              	.L111:
1677:Generated_Source\PSoC5/ADC_DelSig.c **** 
1678:Generated_Source\PSoC5/ADC_DelSig.c ****             default:
1679:Generated_Source\PSoC5/ADC_DelSig.c ****                 flash = 0;
 2178              		.loc 1 1679 0
 2179 00d0 0023     		movs	r3, #0
 2180 00d2 FB75     		strb	r3, [r7, #23]
1680:Generated_Source\PSoC5/ADC_DelSig.c ****                 break;
 2181              		.loc 1 1680 0
 2182 00d4 00BF     		nop
 2183              	.L119:
1681:Generated_Source\PSoC5/ADC_DelSig.c ****         }
1682:Generated_Source\PSoC5/ADC_DelSig.c **** 
1683:Generated_Source\PSoC5/ADC_DelSig.c ****         /* Add two values */
1684:Generated_Source\PSoC5/ADC_DelSig.c **** 		normalised = (int32)idealDecGain + ((int32)flash * 32);
 2184              		.loc 1 1684 0
 2185 00d6 BA88     		ldrh	r2, [r7, #4]
 2186 00d8 97F91730 		ldrsb	r3, [r7, #23]
 2187 00dc 5B01     		lsls	r3, r3, #5
ARM GAS  C:\Users\Matthew\AppData\Local\Temp\ccXxauDk.s 			page 69


 2188 00de 1344     		add	r3, r3, r2
 2189 00e0 3B61     		str	r3, [r7, #16]
1685:Generated_Source\PSoC5/ADC_DelSig.c ****         gcorTmp = (uint32)normalised * (uint32)idealOddDecGain;
 2190              		.loc 1 1685 0
 2191 00e2 7B88     		ldrh	r3, [r7, #2]
 2192 00e4 3A69     		ldr	r2, [r7, #16]
 2193 00e6 02FB03F3 		mul	r3, r2, r3
 2194 00ea FB60     		str	r3, [r7, #12]
1686:Generated_Source\PSoC5/ADC_DelSig.c ****         gcorValue = (uint16)(gcorTmp / ADC_DelSig_IDEAL_GAIN_CONST);
 2195              		.loc 1 1686 0
 2196 00ec FB68     		ldr	r3, [r7, #12]
 2197 00ee DB0B     		lsrs	r3, r3, #15
 2198 00f0 BB82     		strh	r3, [r7, #20]	@ movhi
1687:Generated_Source\PSoC5/ADC_DelSig.c **** 
1688:Generated_Source\PSoC5/ADC_DelSig.c ****         if (resolution < (ADC_DelSig_MAX_GVAL - 1u))
 2199              		.loc 1 1688 0
 2200 00f2 BB79     		ldrb	r3, [r7, #6]	@ zero_extendqisi2
 2201 00f4 0D2B     		cmp	r3, #13
 2202 00f6 12D8     		bhi	.L126
1689:Generated_Source\PSoC5/ADC_DelSig.c ****         {
1690:Generated_Source\PSoC5/ADC_DelSig.c ****             gcorValue = (gcorValue >> (ADC_DelSig_MAX_GVAL - (resolution + 1u)));
 2203              		.loc 1 1690 0
 2204 00f8 BA8A     		ldrh	r2, [r7, #20]
 2205 00fa BB79     		ldrb	r3, [r7, #6]	@ zero_extendqisi2
 2206 00fc C3F10E03 		rsb	r3, r3, #14
 2207 0100 42FA03F3 		asr	r3, r2, r3
 2208 0104 BB82     		strh	r3, [r7, #20]	@ movhi
1691:Generated_Source\PSoC5/ADC_DelSig.c ****             ADC_DelSig_gcor[config - 1u].gval = (resolution + 1u);
 2209              		.loc 1 1691 0
 2210 0106 97F82830 		ldrb	r3, [r7, #40]	@ zero_extendqisi2
 2211 010a 013B     		subs	r3, r3, #1
 2212 010c BA79     		ldrb	r2, [r7, #6]
 2213 010e 0132     		adds	r2, r2, #1
 2214 0110 D1B2     		uxtb	r1, r2
 2215 0112 164A     		ldr	r2, .L129+32
 2216 0114 9B00     		lsls	r3, r3, #2
 2217 0116 1344     		add	r3, r3, r2
 2218 0118 0A46     		mov	r2, r1
 2219 011a 9A70     		strb	r2, [r3, #2]
 2220 011c 07E0     		b	.L127
 2221              	.L126:
1692:Generated_Source\PSoC5/ADC_DelSig.c ****         }
1693:Generated_Source\PSoC5/ADC_DelSig.c ****         else
1694:Generated_Source\PSoC5/ADC_DelSig.c ****         {
1695:Generated_Source\PSoC5/ADC_DelSig.c ****             /* Use all 16 bits */
1696:Generated_Source\PSoC5/ADC_DelSig.c ****             ADC_DelSig_gcor[config - 1u].gval = ADC_DelSig_MAX_GVAL;
 2222              		.loc 1 1696 0
 2223 011e 97F82830 		ldrb	r3, [r7, #40]	@ zero_extendqisi2
 2224 0122 013B     		subs	r3, r3, #1
 2225 0124 114A     		ldr	r2, .L129+32
 2226 0126 9B00     		lsls	r3, r3, #2
 2227 0128 1344     		add	r3, r3, r2
 2228 012a 0F22     		movs	r2, #15
 2229 012c 9A70     		strb	r2, [r3, #2]
 2230              	.L127:
1697:Generated_Source\PSoC5/ADC_DelSig.c ****         }
1698:Generated_Source\PSoC5/ADC_DelSig.c **** 
ARM GAS  C:\Users\Matthew\AppData\Local\Temp\ccXxauDk.s 			page 70


1699:Generated_Source\PSoC5/ADC_DelSig.c ****         /* Save the gain correction register value */
1700:Generated_Source\PSoC5/ADC_DelSig.c ****         ADC_DelSig_gcor[config - 1u].gcor = gcorValue;
 2231              		.loc 1 1700 0
 2232 012e 97F82830 		ldrb	r3, [r7, #40]	@ zero_extendqisi2
 2233 0132 013B     		subs	r3, r3, #1
 2234 0134 0D49     		ldr	r1, .L129+32
 2235 0136 BA8A     		ldrh	r2, [r7, #20]	@ movhi
 2236 0138 21F82320 		strh	r2, [r1, r3, lsl #2]	@ movhi
 2237 013c 02E0     		b	.L128
 2238              	.L110:
1701:Generated_Source\PSoC5/ADC_DelSig.c ****     }
1702:Generated_Source\PSoC5/ADC_DelSig.c ****     else
1703:Generated_Source\PSoC5/ADC_DelSig.c ****     {
1704:Generated_Source\PSoC5/ADC_DelSig.c ****         /* Halt CPU in debug mode if config is out of valid range */
1705:Generated_Source\PSoC5/ADC_DelSig.c ****         CYASSERT(0u != 0u);
 2239              		.loc 1 1705 0 discriminator 1
 2240 013e 0020     		movs	r0, #0
 2241 0140 FFF7FEFF 		bl	CyHalt
 2242              	.L128:
1706:Generated_Source\PSoC5/ADC_DelSig.c ****     }
1707:Generated_Source\PSoC5/ADC_DelSig.c **** }
 2243              		.loc 1 1707 0
 2244 0144 00BF     		nop
 2245 0146 1C37     		adds	r7, r7, #28
 2246              		.cfi_def_cfa_offset 12
 2247 0148 BD46     		mov	sp, r7
 2248              		.cfi_def_cfa_register 13
 2249              		@ sp needed
 2250 014a 90BD     		pop	{r4, r7, pc}
 2251              	.L130:
 2252              		.align	2
 2253              	.L129:
 2254 014c 18010049 		.word	1224737048
 2255 0150 1C010049 		.word	1224737052
 2256 0154 19010049 		.word	1224737049
 2257 0158 1D010049 		.word	1224737053
 2258 015c 1A010049 		.word	1224737050
 2259 0160 1E010049 		.word	1224737054
 2260 0164 1B010049 		.word	1224737051
 2261 0168 1F010049 		.word	1224737055
 2262 016c 04000000 		.word	ADC_DelSig_gcor
 2263              		.cfi_endproc
 2264              	.LFE21:
 2265              		.size	ADC_DelSig_GainCompensation, .-ADC_DelSig_GainCompensation
 2266              		.section	.text.ADC_DelSig_SetDSMRef0Reg,"ax",%progbits
 2267              		.align	2
 2268              		.thumb
 2269              		.thumb_func
 2270              		.type	ADC_DelSig_SetDSMRef0Reg, %function
 2271              	ADC_DelSig_SetDSMRef0Reg:
 2272              	.LFB22:
1708:Generated_Source\PSoC5/ADC_DelSig.c **** 
1709:Generated_Source\PSoC5/ADC_DelSig.c **** 
1710:Generated_Source\PSoC5/ADC_DelSig.c **** /******************************************************************************
1711:Generated_Source\PSoC5/ADC_DelSig.c **** * Function Name: ADC_DelSig_SetDSMRef0Reg(uint8)
1712:Generated_Source\PSoC5/ADC_DelSig.c **** ******************************************************************************
1713:Generated_Source\PSoC5/ADC_DelSig.c **** *
ARM GAS  C:\Users\Matthew\AppData\Local\Temp\ccXxauDk.s 			page 71


1714:Generated_Source\PSoC5/ADC_DelSig.c **** * Summary:
1715:Generated_Source\PSoC5/ADC_DelSig.c **** *  This API sets the DSM_REF0 register. This is written for internal use.
1716:Generated_Source\PSoC5/ADC_DelSig.c **** *
1717:Generated_Source\PSoC5/ADC_DelSig.c **** * Parameters:
1718:Generated_Source\PSoC5/ADC_DelSig.c **** *  value:  Value to be written to DSM_REF0 register.
1719:Generated_Source\PSoC5/ADC_DelSig.c **** *
1720:Generated_Source\PSoC5/ADC_DelSig.c **** * Return:
1721:Generated_Source\PSoC5/ADC_DelSig.c **** *  None
1722:Generated_Source\PSoC5/ADC_DelSig.c **** *
1723:Generated_Source\PSoC5/ADC_DelSig.c **** ******************************************************************************/
1724:Generated_Source\PSoC5/ADC_DelSig.c **** static void ADC_DelSig_SetDSMRef0Reg(uint8 value) 
1725:Generated_Source\PSoC5/ADC_DelSig.c **** {
 2273              		.loc 1 1725 0
 2274              		.cfi_startproc
 2275              		@ args = 0, pretend = 0, frame = 16
 2276              		@ frame_needed = 1, uses_anonymous_args = 0
 2277 0000 80B5     		push	{r7, lr}
 2278              		.cfi_def_cfa_offset 8
 2279              		.cfi_offset 7, -8
 2280              		.cfi_offset 14, -4
 2281 0002 84B0     		sub	sp, sp, #16
 2282              		.cfi_def_cfa_offset 24
 2283 0004 00AF     		add	r7, sp, #0
 2284              		.cfi_def_cfa_register 7
 2285 0006 0346     		mov	r3, r0
 2286 0008 FB71     		strb	r3, [r7, #7]
1726:Generated_Source\PSoC5/ADC_DelSig.c ****     uint8 enableInterrupts;
1727:Generated_Source\PSoC5/ADC_DelSig.c ****     enableInterrupts = CyEnterCriticalSection();
 2287              		.loc 1 1727 0
 2288 000a FFF7FEFF 		bl	CyEnterCriticalSection
 2289 000e 0346     		mov	r3, r0
 2290 0010 FB73     		strb	r3, [r7, #15]
1728:Generated_Source\PSoC5/ADC_DelSig.c **** 
1729:Generated_Source\PSoC5/ADC_DelSig.c ****     /* Disable PRES, Enable power to VCMBUF0, REFBUF0 and REFBUF1, enable PRES */
1730:Generated_Source\PSoC5/ADC_DelSig.c ****     ADC_DelSig_RESET_CR4_REG |= (ADC_DelSig_IGNORE_PRESA1 | ADC_DelSig_IGNORE_PRESD1);
 2291              		.loc 1 1730 0
 2292 0012 174A     		ldr	r2, .L132
 2293 0014 164B     		ldr	r3, .L132
 2294 0016 1B78     		ldrb	r3, [r3]
 2295 0018 DBB2     		uxtb	r3, r3
 2296 001a 43F00303 		orr	r3, r3, #3
 2297 001e DBB2     		uxtb	r3, r3
 2298 0020 1370     		strb	r3, [r2]
1731:Generated_Source\PSoC5/ADC_DelSig.c ****     ADC_DelSig_RESET_CR5_REG |= (ADC_DelSig_IGNORE_PRESA2 | ADC_DelSig_IGNORE_PRESD2);
 2299              		.loc 1 1731 0
 2300 0022 144A     		ldr	r2, .L132+4
 2301 0024 134B     		ldr	r3, .L132+4
 2302 0026 1B78     		ldrb	r3, [r3]
 2303 0028 DBB2     		uxtb	r3, r3
 2304 002a 43F00303 		orr	r3, r3, #3
 2305 002e DBB2     		uxtb	r3, r3
 2306 0030 1370     		strb	r3, [r2]
1732:Generated_Source\PSoC5/ADC_DelSig.c ****     ADC_DelSig_DSM_REF0_REG = value;
 2307              		.loc 1 1732 0
 2308 0032 114A     		ldr	r2, .L132+8
 2309 0034 FB79     		ldrb	r3, [r7, #7]
 2310 0036 1370     		strb	r3, [r2]
ARM GAS  C:\Users\Matthew\AppData\Local\Temp\ccXxauDk.s 			page 72


1733:Generated_Source\PSoC5/ADC_DelSig.c **** 
1734:Generated_Source\PSoC5/ADC_DelSig.c ****     /* Wait for 3 microseconds */
1735:Generated_Source\PSoC5/ADC_DelSig.c ****     CyDelayUs(ADC_DelSig_PRES_DELAY_TIME);
 2311              		.loc 1 1735 0
 2312 0038 0320     		movs	r0, #3
 2313 003a FFF7FEFF 		bl	CyDelayUs
1736:Generated_Source\PSoC5/ADC_DelSig.c ****     /* Enable the press circuit */
1737:Generated_Source\PSoC5/ADC_DelSig.c ****     ADC_DelSig_RESET_CR4_REG &= (uint8)~(ADC_DelSig_IGNORE_PRESA1 | ADC_DelSig_IGNORE_PRESD1);
 2314              		.loc 1 1737 0
 2315 003e 0C4A     		ldr	r2, .L132
 2316 0040 0B4B     		ldr	r3, .L132
 2317 0042 1B78     		ldrb	r3, [r3]
 2318 0044 DBB2     		uxtb	r3, r3
 2319 0046 23F00303 		bic	r3, r3, #3
 2320 004a DBB2     		uxtb	r3, r3
 2321 004c 1370     		strb	r3, [r2]
1738:Generated_Source\PSoC5/ADC_DelSig.c ****     ADC_DelSig_RESET_CR5_REG &= (uint8)~(ADC_DelSig_IGNORE_PRESA2 | ADC_DelSig_IGNORE_PRESD2);
 2322              		.loc 1 1738 0
 2323 004e 094A     		ldr	r2, .L132+4
 2324 0050 084B     		ldr	r3, .L132+4
 2325 0052 1B78     		ldrb	r3, [r3]
 2326 0054 DBB2     		uxtb	r3, r3
 2327 0056 23F00303 		bic	r3, r3, #3
 2328 005a DBB2     		uxtb	r3, r3
 2329 005c 1370     		strb	r3, [r2]
1739:Generated_Source\PSoC5/ADC_DelSig.c **** 
1740:Generated_Source\PSoC5/ADC_DelSig.c ****     CyExitCriticalSection(enableInterrupts);
 2330              		.loc 1 1740 0
 2331 005e FB7B     		ldrb	r3, [r7, #15]	@ zero_extendqisi2
 2332 0060 1846     		mov	r0, r3
 2333 0062 FFF7FEFF 		bl	CyExitCriticalSection
1741:Generated_Source\PSoC5/ADC_DelSig.c **** }
 2334              		.loc 1 1741 0
 2335 0066 00BF     		nop
 2336 0068 1037     		adds	r7, r7, #16
 2337              		.cfi_def_cfa_offset 8
 2338 006a BD46     		mov	sp, r7
 2339              		.cfi_def_cfa_register 13
 2340              		@ sp needed
 2341 006c 80BD     		pop	{r7, pc}
 2342              	.L133:
 2343 006e 00BF     		.align	2
 2344              	.L132:
 2345 0070 F8460040 		.word	1073759992
 2346 0074 F9460040 		.word	1073759993
 2347 0078 92580040 		.word	1073764498
 2348              		.cfi_endproc
 2349              	.LFE22:
 2350              		.size	ADC_DelSig_SetDSMRef0Reg, .-ADC_DelSig_SetDSMRef0Reg
 2351              		.section	.text.ADC_DelSig_Read8,"ax",%progbits
 2352              		.align	2
 2353              		.global	ADC_DelSig_Read8
 2354              		.thumb
 2355              		.thumb_func
 2356              		.type	ADC_DelSig_Read8, %function
 2357              	ADC_DelSig_Read8:
 2358              	.LFB23:
ARM GAS  C:\Users\Matthew\AppData\Local\Temp\ccXxauDk.s 			page 73


1742:Generated_Source\PSoC5/ADC_DelSig.c **** 
1743:Generated_Source\PSoC5/ADC_DelSig.c **** 
1744:Generated_Source\PSoC5/ADC_DelSig.c **** /*******************************************************************************
1745:Generated_Source\PSoC5/ADC_DelSig.c **** * Function Name: ADC_DelSig_Read8
1746:Generated_Source\PSoC5/ADC_DelSig.c **** ********************************************************************************
1747:Generated_Source\PSoC5/ADC_DelSig.c **** *
1748:Generated_Source\PSoC5/ADC_DelSig.c **** * Summary:
1749:Generated_Source\PSoC5/ADC_DelSig.c **** *  This function simplifies getting results from the ADC when only a
1750:Generated_Source\PSoC5/ADC_DelSig.c **** *  single reading is required. When called, it will start ADC
1751:Generated_Source\PSoC5/ADC_DelSig.c **** *  conversions, wait for the conversion to be complete, stop ADC
1752:Generated_Source\PSoC5/ADC_DelSig.c **** *  conversion and return the result. This is a blocking function and will
1753:Generated_Source\PSoC5/ADC_DelSig.c **** *  not return until the result is ready.
1754:Generated_Source\PSoC5/ADC_DelSig.c **** *
1755:Generated_Source\PSoC5/ADC_DelSig.c **** * Parameters:
1756:Generated_Source\PSoC5/ADC_DelSig.c **** *  None
1757:Generated_Source\PSoC5/ADC_DelSig.c **** *
1758:Generated_Source\PSoC5/ADC_DelSig.c **** * Return:
1759:Generated_Source\PSoC5/ADC_DelSig.c **** *  int8:  ADC result.
1760:Generated_Source\PSoC5/ADC_DelSig.c **** *
1761:Generated_Source\PSoC5/ADC_DelSig.c **** *******************************************************************************/
1762:Generated_Source\PSoC5/ADC_DelSig.c **** int8 ADC_DelSig_Read8(void) 
1763:Generated_Source\PSoC5/ADC_DelSig.c **** {
 2359              		.loc 1 1763 0
 2360              		.cfi_startproc
 2361              		@ args = 0, pretend = 0, frame = 8
 2362              		@ frame_needed = 1, uses_anonymous_args = 0
 2363 0000 80B5     		push	{r7, lr}
 2364              		.cfi_def_cfa_offset 8
 2365              		.cfi_offset 7, -8
 2366              		.cfi_offset 14, -4
 2367 0002 82B0     		sub	sp, sp, #8
 2368              		.cfi_def_cfa_offset 16
 2369 0004 00AF     		add	r7, sp, #0
 2370              		.cfi_def_cfa_register 7
1764:Generated_Source\PSoC5/ADC_DelSig.c ****     int8 result;
1765:Generated_Source\PSoC5/ADC_DelSig.c **** 
1766:Generated_Source\PSoC5/ADC_DelSig.c ****     /* Clear pending conversion done status */
1767:Generated_Source\PSoC5/ADC_DelSig.c ****     ADC_DelSig_DEC_SR_REG |= ADC_DelSig_DEC_INTR_CLEAR;
 2371              		.loc 1 1767 0
 2372 0006 0C4A     		ldr	r2, .L136
 2373 0008 0B4B     		ldr	r3, .L136
 2374 000a 1B78     		ldrb	r3, [r3]
 2375 000c DBB2     		uxtb	r3, r3
 2376 000e 43F00403 		orr	r3, r3, #4
 2377 0012 DBB2     		uxtb	r3, r3
 2378 0014 1370     		strb	r3, [r2]
1768:Generated_Source\PSoC5/ADC_DelSig.c ****     ADC_DelSig_StartConvert();
 2379              		.loc 1 1768 0
 2380 0016 FFF7FEFF 		bl	ADC_DelSig_StartConvert
1769:Generated_Source\PSoC5/ADC_DelSig.c ****     (void)ADC_DelSig_IsEndConversion(ADC_DelSig_WAIT_FOR_RESULT);
 2381              		.loc 1 1769 0
 2382 001a 0020     		movs	r0, #0
 2383 001c FFF7FEFF 		bl	ADC_DelSig_IsEndConversion
