ARM GAS  C:\Users\Matthew\AppData\Local\Temp\ccIwewKZ.s 			page 1


   1              		.syntax unified
   2              		.cpu cortex-m3
   3              		.fpu softvfp
   4              		.eabi_attribute 20, 1
   5              		.eabi_attribute 21, 1
   6              		.eabi_attribute 23, 3
   7              		.eabi_attribute 24, 1
   8              		.eabi_attribute 25, 1
   9              		.eabi_attribute 26, 1
  10              		.eabi_attribute 30, 6
  11              		.eabi_attribute 34, 1
  12              		.eabi_attribute 18, 4
  13              		.thumb
  14              		.syntax unified
  15              		.file	"audio_isr.c"
  16              		.text
  17              	.Ltext0:
  18              		.cfi_sections	.debug_frame
  19              		.global	high
  20              		.bss
  21              		.align	2
  22              		.type	high, %object
  23              		.size	high, 4
  24              	high:
  25 0000 00000000 		.space	4
  26              		.global	c4_table_idx
  27              		.align	2
  28              		.type	c4_table_idx, %object
  29              		.size	c4_table_idx, 4
  30              	c4_table_idx:
  31 0004 00000000 		.space	4
  32              		.section	.text.audio_isr_Start,"ax",%progbits
  33              		.align	2
  34              		.global	audio_isr_Start
  35              		.thumb
  36              		.thumb_func
  37              		.type	audio_isr_Start, %function
  38              	audio_isr_Start:
  39              	.LFB0:
  40              		.file 1 "Generated_Source\\PSoC5\\audio_isr.c"
   1:Generated_Source\PSoC5/audio_isr.c **** /*******************************************************************************
   2:Generated_Source\PSoC5/audio_isr.c **** * File Name: audio_isr.c  
   3:Generated_Source\PSoC5/audio_isr.c **** * Version 1.70
   4:Generated_Source\PSoC5/audio_isr.c **** *
   5:Generated_Source\PSoC5/audio_isr.c **** *  Description:
   6:Generated_Source\PSoC5/audio_isr.c **** *   API for controlling the state of an interrupt.
   7:Generated_Source\PSoC5/audio_isr.c **** *
   8:Generated_Source\PSoC5/audio_isr.c **** *
   9:Generated_Source\PSoC5/audio_isr.c **** *  Note:
  10:Generated_Source\PSoC5/audio_isr.c **** *
  11:Generated_Source\PSoC5/audio_isr.c **** ********************************************************************************
  12:Generated_Source\PSoC5/audio_isr.c **** * Copyright 2008-2015, Cypress Semiconductor Corporation.  All rights reserved.
  13:Generated_Source\PSoC5/audio_isr.c **** * You may use this file only in accordance with the license, terms, conditions, 
  14:Generated_Source\PSoC5/audio_isr.c **** * disclaimers, and limitations in the end user license agreement accompanying 
  15:Generated_Source\PSoC5/audio_isr.c **** * the software package with which this file was provided.
  16:Generated_Source\PSoC5/audio_isr.c **** *******************************************************************************/
  17:Generated_Source\PSoC5/audio_isr.c **** 
ARM GAS  C:\Users\Matthew\AppData\Local\Temp\ccIwewKZ.s 			page 2


  18:Generated_Source\PSoC5/audio_isr.c **** 
  19:Generated_Source\PSoC5/audio_isr.c **** #include <cydevice_trm.h>
  20:Generated_Source\PSoC5/audio_isr.c **** #include <CyLib.h>
  21:Generated_Source\PSoC5/audio_isr.c **** #include <audio_isr.h>
  22:Generated_Source\PSoC5/audio_isr.c **** #include "cyapicallbacks.h"
  23:Generated_Source\PSoC5/audio_isr.c **** 
  24:Generated_Source\PSoC5/audio_isr.c **** #if !defined(audio_isr__REMOVED) /* Check for removal by optimization */
  25:Generated_Source\PSoC5/audio_isr.c **** 
  26:Generated_Source\PSoC5/audio_isr.c **** /*******************************************************************************
  27:Generated_Source\PSoC5/audio_isr.c **** *  Place your includes, defines and code here 
  28:Generated_Source\PSoC5/audio_isr.c **** ********************************************************************************/
  29:Generated_Source\PSoC5/audio_isr.c **** /* `#START audio_isr_intc` */
  30:Generated_Source\PSoC5/audio_isr.c **** #include "Timer_1.h"
  31:Generated_Source\PSoC5/audio_isr.c **** #include "TIMER_1_ISR_PIN.h"
  32:Generated_Source\PSoC5/audio_isr.c **** #include "VDAC8_1.h"
  33:Generated_Source\PSoC5/audio_isr.c **** #include "wav_tables.h"
  34:Generated_Source\PSoC5/audio_isr.c **** #include "common.h"
  35:Generated_Source\PSoC5/audio_isr.c **** int high = 0;
  36:Generated_Source\PSoC5/audio_isr.c **** int c4_table_idx = 0;
  37:Generated_Source\PSoC5/audio_isr.c **** /* `#END` */
  38:Generated_Source\PSoC5/audio_isr.c **** 
  39:Generated_Source\PSoC5/audio_isr.c **** #ifndef CYINT_IRQ_BASE
  40:Generated_Source\PSoC5/audio_isr.c **** #define CYINT_IRQ_BASE      16
  41:Generated_Source\PSoC5/audio_isr.c **** #endif /* CYINT_IRQ_BASE */
  42:Generated_Source\PSoC5/audio_isr.c **** #ifndef CYINT_VECT_TABLE
  43:Generated_Source\PSoC5/audio_isr.c **** #define CYINT_VECT_TABLE    ((cyisraddress **) CYREG_NVIC_VECT_OFFSET)
  44:Generated_Source\PSoC5/audio_isr.c **** #endif /* CYINT_VECT_TABLE */
  45:Generated_Source\PSoC5/audio_isr.c **** 
  46:Generated_Source\PSoC5/audio_isr.c **** /* Declared in startup, used to set unused interrupts to. */
  47:Generated_Source\PSoC5/audio_isr.c **** CY_ISR_PROTO(IntDefaultHandler);
  48:Generated_Source\PSoC5/audio_isr.c **** 
  49:Generated_Source\PSoC5/audio_isr.c **** 
  50:Generated_Source\PSoC5/audio_isr.c **** /*******************************************************************************
  51:Generated_Source\PSoC5/audio_isr.c **** * Function Name: audio_isr_Start
  52:Generated_Source\PSoC5/audio_isr.c **** ********************************************************************************
  53:Generated_Source\PSoC5/audio_isr.c **** *
  54:Generated_Source\PSoC5/audio_isr.c **** * Summary:
  55:Generated_Source\PSoC5/audio_isr.c **** *  Set up the interrupt and enable it. This function disables the interrupt, 
  56:Generated_Source\PSoC5/audio_isr.c **** *  sets the default interrupt vector, sets the priority from the value in the
  57:Generated_Source\PSoC5/audio_isr.c **** *  Design Wide Resources Interrupt Editor, then enables the interrupt to the 
  58:Generated_Source\PSoC5/audio_isr.c **** *  interrupt controller.
  59:Generated_Source\PSoC5/audio_isr.c **** *
  60:Generated_Source\PSoC5/audio_isr.c **** * Parameters:  
  61:Generated_Source\PSoC5/audio_isr.c **** *   None
  62:Generated_Source\PSoC5/audio_isr.c **** *
  63:Generated_Source\PSoC5/audio_isr.c **** * Return:
  64:Generated_Source\PSoC5/audio_isr.c **** *   None
  65:Generated_Source\PSoC5/audio_isr.c **** *
  66:Generated_Source\PSoC5/audio_isr.c **** *******************************************************************************/
  67:Generated_Source\PSoC5/audio_isr.c **** void audio_isr_Start(void)
  68:Generated_Source\PSoC5/audio_isr.c **** {
  41              		.loc 1 68 0
  42              		.cfi_startproc
  43              		@ args = 0, pretend = 0, frame = 0
  44              		@ frame_needed = 1, uses_anonymous_args = 0
  45 0000 80B5     		push	{r7, lr}
  46              		.cfi_def_cfa_offset 8
ARM GAS  C:\Users\Matthew\AppData\Local\Temp\ccIwewKZ.s 			page 3


  47              		.cfi_offset 7, -8
  48              		.cfi_offset 14, -4
  49 0002 00AF     		add	r7, sp, #0
  50              		.cfi_def_cfa_register 7
  69:Generated_Source\PSoC5/audio_isr.c ****     /* For all we know the interrupt is active. */
  70:Generated_Source\PSoC5/audio_isr.c ****     audio_isr_Disable();
  51              		.loc 1 70 0
  52 0004 FFF7FEFF 		bl	audio_isr_Disable
  71:Generated_Source\PSoC5/audio_isr.c **** 
  72:Generated_Source\PSoC5/audio_isr.c ****     /* Set the ISR to point to the audio_isr Interrupt. */
  73:Generated_Source\PSoC5/audio_isr.c ****     audio_isr_SetVector(&audio_isr_Interrupt);
  53              		.loc 1 73 0
  54 0008 0448     		ldr	r0, .L2
  55 000a FFF7FEFF 		bl	audio_isr_SetVector
  74:Generated_Source\PSoC5/audio_isr.c **** 
  75:Generated_Source\PSoC5/audio_isr.c ****     /* Set the priority. */
  76:Generated_Source\PSoC5/audio_isr.c ****     audio_isr_SetPriority((uint8)audio_isr_INTC_PRIOR_NUMBER);
  56              		.loc 1 76 0
  57 000e 0720     		movs	r0, #7
  58 0010 FFF7FEFF 		bl	audio_isr_SetPriority
  77:Generated_Source\PSoC5/audio_isr.c **** 
  78:Generated_Source\PSoC5/audio_isr.c ****     /* Enable it. */
  79:Generated_Source\PSoC5/audio_isr.c ****     audio_isr_Enable();
  59              		.loc 1 79 0
  60 0014 FFF7FEFF 		bl	audio_isr_Enable
  80:Generated_Source\PSoC5/audio_isr.c **** }
  61              		.loc 1 80 0
  62 0018 00BF     		nop
  63 001a 80BD     		pop	{r7, pc}
  64              	.L3:
  65              		.align	2
  66              	.L2:
  67 001c 00000000 		.word	audio_isr_Interrupt
  68              		.cfi_endproc
  69              	.LFE0:
  70              		.size	audio_isr_Start, .-audio_isr_Start
  71              		.section	.text.audio_isr_StartEx,"ax",%progbits
  72              		.align	2
  73              		.global	audio_isr_StartEx
  74              		.thumb
  75              		.thumb_func
  76              		.type	audio_isr_StartEx, %function
  77              	audio_isr_StartEx:
  78              	.LFB1:
  81:Generated_Source\PSoC5/audio_isr.c **** 
  82:Generated_Source\PSoC5/audio_isr.c **** 
  83:Generated_Source\PSoC5/audio_isr.c **** /*******************************************************************************
  84:Generated_Source\PSoC5/audio_isr.c **** * Function Name: audio_isr_StartEx
  85:Generated_Source\PSoC5/audio_isr.c **** ********************************************************************************
  86:Generated_Source\PSoC5/audio_isr.c **** *
  87:Generated_Source\PSoC5/audio_isr.c **** * Summary:
  88:Generated_Source\PSoC5/audio_isr.c **** *  Sets up the interrupt and enables it. This function disables the interrupt,
  89:Generated_Source\PSoC5/audio_isr.c **** *  sets the interrupt vector based on the address passed in, sets the priority 
  90:Generated_Source\PSoC5/audio_isr.c **** *  from the value in the Design Wide Resources Interrupt Editor, then enables 
  91:Generated_Source\PSoC5/audio_isr.c **** *  the interrupt to the interrupt controller.
  92:Generated_Source\PSoC5/audio_isr.c **** *  
  93:Generated_Source\PSoC5/audio_isr.c **** *  When defining ISR functions, the CY_ISR and CY_ISR_PROTO macros should be 
ARM GAS  C:\Users\Matthew\AppData\Local\Temp\ccIwewKZ.s 			page 4


  94:Generated_Source\PSoC5/audio_isr.c **** *  used to provide consistent definition across compilers:
  95:Generated_Source\PSoC5/audio_isr.c **** *  
  96:Generated_Source\PSoC5/audio_isr.c **** *  Function definition example:
  97:Generated_Source\PSoC5/audio_isr.c **** *   CY_ISR(MyISR)
  98:Generated_Source\PSoC5/audio_isr.c **** *   {
  99:Generated_Source\PSoC5/audio_isr.c **** *   }
 100:Generated_Source\PSoC5/audio_isr.c **** *   Function prototype example:
 101:Generated_Source\PSoC5/audio_isr.c **** *   CY_ISR_PROTO(MyISR);
 102:Generated_Source\PSoC5/audio_isr.c **** *
 103:Generated_Source\PSoC5/audio_isr.c **** * Parameters:  
 104:Generated_Source\PSoC5/audio_isr.c **** *   address: Address of the ISR to set in the interrupt vector table.
 105:Generated_Source\PSoC5/audio_isr.c **** *
 106:Generated_Source\PSoC5/audio_isr.c **** * Return:
 107:Generated_Source\PSoC5/audio_isr.c **** *   None
 108:Generated_Source\PSoC5/audio_isr.c **** *
 109:Generated_Source\PSoC5/audio_isr.c **** *******************************************************************************/
 110:Generated_Source\PSoC5/audio_isr.c **** void audio_isr_StartEx(cyisraddress address)
 111:Generated_Source\PSoC5/audio_isr.c **** {
  79              		.loc 1 111 0
  80              		.cfi_startproc
  81              		@ args = 0, pretend = 0, frame = 8
  82              		@ frame_needed = 1, uses_anonymous_args = 0
  83 0000 80B5     		push	{r7, lr}
  84              		.cfi_def_cfa_offset 8
  85              		.cfi_offset 7, -8
  86              		.cfi_offset 14, -4
  87 0002 82B0     		sub	sp, sp, #8
  88              		.cfi_def_cfa_offset 16
  89 0004 00AF     		add	r7, sp, #0
  90              		.cfi_def_cfa_register 7
  91 0006 7860     		str	r0, [r7, #4]
 112:Generated_Source\PSoC5/audio_isr.c ****     /* For all we know the interrupt is active. */
 113:Generated_Source\PSoC5/audio_isr.c ****     audio_isr_Disable();
  92              		.loc 1 113 0
  93 0008 FFF7FEFF 		bl	audio_isr_Disable
 114:Generated_Source\PSoC5/audio_isr.c **** 
 115:Generated_Source\PSoC5/audio_isr.c ****     /* Set the ISR to point to the audio_isr Interrupt. */
 116:Generated_Source\PSoC5/audio_isr.c ****     audio_isr_SetVector(address);
  94              		.loc 1 116 0
  95 000c 7868     		ldr	r0, [r7, #4]
  96 000e FFF7FEFF 		bl	audio_isr_SetVector
 117:Generated_Source\PSoC5/audio_isr.c **** 
 118:Generated_Source\PSoC5/audio_isr.c ****     /* Set the priority. */
 119:Generated_Source\PSoC5/audio_isr.c ****     audio_isr_SetPriority((uint8)audio_isr_INTC_PRIOR_NUMBER);
  97              		.loc 1 119 0
  98 0012 0720     		movs	r0, #7
  99 0014 FFF7FEFF 		bl	audio_isr_SetPriority
 120:Generated_Source\PSoC5/audio_isr.c **** 
 121:Generated_Source\PSoC5/audio_isr.c ****     /* Enable it. */
 122:Generated_Source\PSoC5/audio_isr.c ****     audio_isr_Enable();
 100              		.loc 1 122 0
 101 0018 FFF7FEFF 		bl	audio_isr_Enable
 123:Generated_Source\PSoC5/audio_isr.c **** }
 102              		.loc 1 123 0
 103 001c 00BF     		nop
 104 001e 0837     		adds	r7, r7, #8
 105              		.cfi_def_cfa_offset 8
ARM GAS  C:\Users\Matthew\AppData\Local\Temp\ccIwewKZ.s 			page 5


 106 0020 BD46     		mov	sp, r7
 107              		.cfi_def_cfa_register 13
 108              		@ sp needed
 109 0022 80BD     		pop	{r7, pc}
 110              		.cfi_endproc
 111              	.LFE1:
 112              		.size	audio_isr_StartEx, .-audio_isr_StartEx
 113              		.section	.text.audio_isr_Stop,"ax",%progbits
 114              		.align	2
 115              		.global	audio_isr_Stop
 116              		.thumb
 117              		.thumb_func
 118              		.type	audio_isr_Stop, %function
 119              	audio_isr_Stop:
 120              	.LFB2:
 124:Generated_Source\PSoC5/audio_isr.c **** 
 125:Generated_Source\PSoC5/audio_isr.c **** 
 126:Generated_Source\PSoC5/audio_isr.c **** /*******************************************************************************
 127:Generated_Source\PSoC5/audio_isr.c **** * Function Name: audio_isr_Stop
 128:Generated_Source\PSoC5/audio_isr.c **** ********************************************************************************
 129:Generated_Source\PSoC5/audio_isr.c **** *
 130:Generated_Source\PSoC5/audio_isr.c **** * Summary:
 131:Generated_Source\PSoC5/audio_isr.c **** *   Disables and removes the interrupt.
 132:Generated_Source\PSoC5/audio_isr.c **** *
 133:Generated_Source\PSoC5/audio_isr.c **** * Parameters:  
 134:Generated_Source\PSoC5/audio_isr.c **** *   None
 135:Generated_Source\PSoC5/audio_isr.c **** *
 136:Generated_Source\PSoC5/audio_isr.c **** * Return:
 137:Generated_Source\PSoC5/audio_isr.c **** *   None
 138:Generated_Source\PSoC5/audio_isr.c **** *
 139:Generated_Source\PSoC5/audio_isr.c **** *******************************************************************************/
 140:Generated_Source\PSoC5/audio_isr.c **** void audio_isr_Stop(void)
 141:Generated_Source\PSoC5/audio_isr.c **** {
 121              		.loc 1 141 0
 122              		.cfi_startproc
 123              		@ args = 0, pretend = 0, frame = 0
 124              		@ frame_needed = 1, uses_anonymous_args = 0
 125 0000 80B5     		push	{r7, lr}
 126              		.cfi_def_cfa_offset 8
 127              		.cfi_offset 7, -8
 128              		.cfi_offset 14, -4
 129 0002 00AF     		add	r7, sp, #0
 130              		.cfi_def_cfa_register 7
 142:Generated_Source\PSoC5/audio_isr.c ****     /* Disable this interrupt. */
 143:Generated_Source\PSoC5/audio_isr.c ****     audio_isr_Disable();
 131              		.loc 1 143 0
 132 0004 FFF7FEFF 		bl	audio_isr_Disable
 144:Generated_Source\PSoC5/audio_isr.c **** 
 145:Generated_Source\PSoC5/audio_isr.c ****     /* Set the ISR to point to the passive one. */
 146:Generated_Source\PSoC5/audio_isr.c ****     audio_isr_SetVector(&IntDefaultHandler);
 133              		.loc 1 146 0
 134 0008 0248     		ldr	r0, .L6
 135 000a FFF7FEFF 		bl	audio_isr_SetVector
 147:Generated_Source\PSoC5/audio_isr.c **** }
 136              		.loc 1 147 0
 137 000e 00BF     		nop
 138 0010 80BD     		pop	{r7, pc}
ARM GAS  C:\Users\Matthew\AppData\Local\Temp\ccIwewKZ.s 			page 6


 139              	.L7:
 140 0012 00BF     		.align	2
 141              	.L6:
 142 0014 00000000 		.word	IntDefaultHandler
 143              		.cfi_endproc
 144              	.LFE2:
 145              		.size	audio_isr_Stop, .-audio_isr_Stop
 146              		.global	__aeabi_i2f
 147              		.global	__aeabi_fmul
 148              		.global	__aeabi_f2iz
 149              		.section	.text.audio_isr_Interrupt,"ax",%progbits
 150              		.align	2
 151              		.global	audio_isr_Interrupt
 152              		.thumb
 153              		.thumb_func
 154              		.type	audio_isr_Interrupt, %function
 155              	audio_isr_Interrupt:
 156              	.LFB3:
 148:Generated_Source\PSoC5/audio_isr.c **** 
 149:Generated_Source\PSoC5/audio_isr.c **** 
 150:Generated_Source\PSoC5/audio_isr.c **** /*******************************************************************************
 151:Generated_Source\PSoC5/audio_isr.c **** * Function Name: audio_isr_Interrupt
 152:Generated_Source\PSoC5/audio_isr.c **** ********************************************************************************
 153:Generated_Source\PSoC5/audio_isr.c **** *
 154:Generated_Source\PSoC5/audio_isr.c **** * Summary:
 155:Generated_Source\PSoC5/audio_isr.c **** *   The default Interrupt Service Routine for audio_isr.
 156:Generated_Source\PSoC5/audio_isr.c **** *
 157:Generated_Source\PSoC5/audio_isr.c **** *   Add custom code between the coments to keep the next version of this file
 158:Generated_Source\PSoC5/audio_isr.c **** *   from over writting your code.
 159:Generated_Source\PSoC5/audio_isr.c **** *
 160:Generated_Source\PSoC5/audio_isr.c **** * Parameters:  
 161:Generated_Source\PSoC5/audio_isr.c **** *
 162:Generated_Source\PSoC5/audio_isr.c **** * Return:
 163:Generated_Source\PSoC5/audio_isr.c **** *   None
 164:Generated_Source\PSoC5/audio_isr.c **** *
 165:Generated_Source\PSoC5/audio_isr.c **** *******************************************************************************/
 166:Generated_Source\PSoC5/audio_isr.c **** CY_ISR(audio_isr_Interrupt)
 167:Generated_Source\PSoC5/audio_isr.c **** {
 157              		.loc 1 167 0
 158              		.cfi_startproc
 159              		@ args = 0, pretend = 0, frame = 8
 160              		@ frame_needed = 1, uses_anonymous_args = 0
 161 0000 90B5     		push	{r4, r7, lr}
 162              		.cfi_def_cfa_offset 12
 163              		.cfi_offset 4, -12
 164              		.cfi_offset 7, -8
 165              		.cfi_offset 14, -4
 166 0002 83B0     		sub	sp, sp, #12
 167              		.cfi_def_cfa_offset 24
 168 0004 00AF     		add	r7, sp, #0
 169              		.cfi_def_cfa_register 7
 168:Generated_Source\PSoC5/audio_isr.c ****     #ifdef audio_isr_INTERRUPT_INTERRUPT_CALLBACK
 169:Generated_Source\PSoC5/audio_isr.c ****         audio_isr_Interrupt_InterruptCallback();
 170:Generated_Source\PSoC5/audio_isr.c ****     #endif /* audio_isr_INTERRUPT_INTERRUPT_CALLBACK */ 
 171:Generated_Source\PSoC5/audio_isr.c **** 
 172:Generated_Source\PSoC5/audio_isr.c ****     /*  Place your Interrupt code here. */
 173:Generated_Source\PSoC5/audio_isr.c ****     /* `#START audio_isr_Interrupt` */
ARM GAS  C:\Users\Matthew\AppData\Local\Temp\ccIwewKZ.s 			page 7


 174:Generated_Source\PSoC5/audio_isr.c ****     Timer_1_ReadStatusRegister();
 170              		.loc 1 174 0
 171 0006 FFF7FEFF 		bl	Timer_1_ReadStatusRegister
 175:Generated_Source\PSoC5/audio_isr.c ****     
 176:Generated_Source\PSoC5/audio_isr.c ****     int val = (int) (harmonica.volume_multiplier * (float) get_sound_output(&harmonica));
 172              		.loc 1 176 0
 173 000a 0E4B     		ldr	r3, .L9
 174 000c 1C69     		ldr	r4, [r3, #16]	@ float
 175 000e 0D48     		ldr	r0, .L9
 176 0010 FFF7FEFF 		bl	get_sound_output
 177 0014 0346     		mov	r3, r0
 178 0016 1846     		mov	r0, r3
 179 0018 FFF7FEFF 		bl	__aeabi_i2f
 180 001c 0346     		mov	r3, r0
 181 001e 1946     		mov	r1, r3
 182 0020 2046     		mov	r0, r4
 183 0022 FFF7FEFF 		bl	__aeabi_fmul
 184 0026 0346     		mov	r3, r0
 185 0028 1846     		mov	r0, r3
 186 002a FFF7FEFF 		bl	__aeabi_f2iz
 187 002e 0346     		mov	r3, r0
 188 0030 7B60     		str	r3, [r7, #4]
 177:Generated_Source\PSoC5/audio_isr.c ****     VDAC8_1_SetValue(val);
 189              		.loc 1 177 0
 190 0032 7B68     		ldr	r3, [r7, #4]
 191 0034 DBB2     		uxtb	r3, r3
 192 0036 1846     		mov	r0, r3
 193 0038 FFF7FEFF 		bl	VDAC8_1_SetValue
 178:Generated_Source\PSoC5/audio_isr.c ****     
 179:Generated_Source\PSoC5/audio_isr.c **** 
 180:Generated_Source\PSoC5/audio_isr.c ****     
 181:Generated_Source\PSoC5/audio_isr.c ****     /* `#END` */
 182:Generated_Source\PSoC5/audio_isr.c **** }
 194              		.loc 1 182 0
 195 003c 00BF     		nop
 196 003e 0C37     		adds	r7, r7, #12
 197              		.cfi_def_cfa_offset 12
 198 0040 BD46     		mov	sp, r7
 199              		.cfi_def_cfa_register 13
 200              		@ sp needed
 201 0042 90BD     		pop	{r4, r7, pc}
 202              	.L10:
 203              		.align	2
 204              	.L9:
 205 0044 00000000 		.word	harmonica
 206              		.cfi_endproc
 207              	.LFE3:
 208              		.size	audio_isr_Interrupt, .-audio_isr_Interrupt
 209              		.section	.text.audio_isr_SetVector,"ax",%progbits
 210              		.align	2
 211              		.global	audio_isr_SetVector
 212              		.thumb
 213              		.thumb_func
 214              		.type	audio_isr_SetVector, %function
 215              	audio_isr_SetVector:
 216              	.LFB4:
 183:Generated_Source\PSoC5/audio_isr.c **** 
ARM GAS  C:\Users\Matthew\AppData\Local\Temp\ccIwewKZ.s 			page 8


 184:Generated_Source\PSoC5/audio_isr.c **** 
 185:Generated_Source\PSoC5/audio_isr.c **** /*******************************************************************************
 186:Generated_Source\PSoC5/audio_isr.c **** * Function Name: audio_isr_SetVector
 187:Generated_Source\PSoC5/audio_isr.c **** ********************************************************************************
 188:Generated_Source\PSoC5/audio_isr.c **** *
 189:Generated_Source\PSoC5/audio_isr.c **** * Summary:
 190:Generated_Source\PSoC5/audio_isr.c **** *   Change the ISR vector for the Interrupt. Note calling audio_isr_Start
 191:Generated_Source\PSoC5/audio_isr.c **** *   will override any effect this method would have had. To set the vector 
 192:Generated_Source\PSoC5/audio_isr.c **** *   before the component has been started use audio_isr_StartEx instead.
 193:Generated_Source\PSoC5/audio_isr.c **** * 
 194:Generated_Source\PSoC5/audio_isr.c **** *   When defining ISR functions, the CY_ISR and CY_ISR_PROTO macros should be 
 195:Generated_Source\PSoC5/audio_isr.c **** *   used to provide consistent definition across compilers:
 196:Generated_Source\PSoC5/audio_isr.c **** *
 197:Generated_Source\PSoC5/audio_isr.c **** *   Function definition example:
 198:Generated_Source\PSoC5/audio_isr.c **** *   CY_ISR(MyISR)
 199:Generated_Source\PSoC5/audio_isr.c **** *   {
 200:Generated_Source\PSoC5/audio_isr.c **** *   }
 201:Generated_Source\PSoC5/audio_isr.c **** *
 202:Generated_Source\PSoC5/audio_isr.c **** *   Function prototype example:
 203:Generated_Source\PSoC5/audio_isr.c **** *     CY_ISR_PROTO(MyISR);
 204:Generated_Source\PSoC5/audio_isr.c **** *
 205:Generated_Source\PSoC5/audio_isr.c **** * Parameters:
 206:Generated_Source\PSoC5/audio_isr.c **** *   address: Address of the ISR to set in the interrupt vector table.
 207:Generated_Source\PSoC5/audio_isr.c **** *
 208:Generated_Source\PSoC5/audio_isr.c **** * Return:
 209:Generated_Source\PSoC5/audio_isr.c **** *   None
 210:Generated_Source\PSoC5/audio_isr.c **** *
 211:Generated_Source\PSoC5/audio_isr.c **** *******************************************************************************/
 212:Generated_Source\PSoC5/audio_isr.c **** void audio_isr_SetVector(cyisraddress address)
 213:Generated_Source\PSoC5/audio_isr.c **** {
 217              		.loc 1 213 0
 218              		.cfi_startproc
 219              		@ args = 0, pretend = 0, frame = 16
 220              		@ frame_needed = 1, uses_anonymous_args = 0
 221              		@ link register save eliminated.
 222 0000 80B4     		push	{r7}
 223              		.cfi_def_cfa_offset 4
 224              		.cfi_offset 7, -4
 225 0002 85B0     		sub	sp, sp, #20
 226              		.cfi_def_cfa_offset 24
 227 0004 00AF     		add	r7, sp, #0
 228              		.cfi_def_cfa_register 7
 229 0006 7860     		str	r0, [r7, #4]
 214:Generated_Source\PSoC5/audio_isr.c ****     cyisraddress * ramVectorTable;
 215:Generated_Source\PSoC5/audio_isr.c **** 
 216:Generated_Source\PSoC5/audio_isr.c ****     ramVectorTable = (cyisraddress *) *CYINT_VECT_TABLE;
 230              		.loc 1 216 0
 231 0008 054B     		ldr	r3, .L12
 232 000a 1B68     		ldr	r3, [r3]
 233 000c FB60     		str	r3, [r7, #12]
 217:Generated_Source\PSoC5/audio_isr.c **** 
 218:Generated_Source\PSoC5/audio_isr.c ****     ramVectorTable[CYINT_IRQ_BASE + (uint32)audio_isr__INTC_NUMBER] = address;
 234              		.loc 1 218 0
 235 000e FB68     		ldr	r3, [r7, #12]
 236 0010 4433     		adds	r3, r3, #68
 237 0012 7A68     		ldr	r2, [r7, #4]
 238 0014 1A60     		str	r2, [r3]
ARM GAS  C:\Users\Matthew\AppData\Local\Temp\ccIwewKZ.s 			page 9


 219:Generated_Source\PSoC5/audio_isr.c **** }
 239              		.loc 1 219 0
 240 0016 00BF     		nop
 241 0018 1437     		adds	r7, r7, #20
 242              		.cfi_def_cfa_offset 4
 243 001a BD46     		mov	sp, r7
 244              		.cfi_def_cfa_register 13
 245              		@ sp needed
 246 001c 80BC     		pop	{r7}
 247              		.cfi_restore 7
 248              		.cfi_def_cfa_offset 0
 249 001e 7047     		bx	lr
 250              	.L13:
 251              		.align	2
 252              	.L12:
 253 0020 08ED00E0 		.word	-536810232
 254              		.cfi_endproc
 255              	.LFE4:
 256              		.size	audio_isr_SetVector, .-audio_isr_SetVector
 257              		.section	.text.audio_isr_GetVector,"ax",%progbits
 258              		.align	2
 259              		.global	audio_isr_GetVector
 260              		.thumb
 261              		.thumb_func
 262              		.type	audio_isr_GetVector, %function
 263              	audio_isr_GetVector:
 264              	.LFB5:
 220:Generated_Source\PSoC5/audio_isr.c **** 
 221:Generated_Source\PSoC5/audio_isr.c **** 
 222:Generated_Source\PSoC5/audio_isr.c **** /*******************************************************************************
 223:Generated_Source\PSoC5/audio_isr.c **** * Function Name: audio_isr_GetVector
 224:Generated_Source\PSoC5/audio_isr.c **** ********************************************************************************
 225:Generated_Source\PSoC5/audio_isr.c **** *
 226:Generated_Source\PSoC5/audio_isr.c **** * Summary:
 227:Generated_Source\PSoC5/audio_isr.c **** *   Gets the "address" of the current ISR vector for the Interrupt.
 228:Generated_Source\PSoC5/audio_isr.c **** *
 229:Generated_Source\PSoC5/audio_isr.c **** * Parameters:
 230:Generated_Source\PSoC5/audio_isr.c **** *   None
 231:Generated_Source\PSoC5/audio_isr.c **** *
 232:Generated_Source\PSoC5/audio_isr.c **** * Return:
 233:Generated_Source\PSoC5/audio_isr.c **** *   Address of the ISR in the interrupt vector table.
 234:Generated_Source\PSoC5/audio_isr.c **** *
 235:Generated_Source\PSoC5/audio_isr.c **** *******************************************************************************/
 236:Generated_Source\PSoC5/audio_isr.c **** cyisraddress audio_isr_GetVector(void)
 237:Generated_Source\PSoC5/audio_isr.c **** {
 265              		.loc 1 237 0
 266              		.cfi_startproc
 267              		@ args = 0, pretend = 0, frame = 8
 268              		@ frame_needed = 1, uses_anonymous_args = 0
 269              		@ link register save eliminated.
 270 0000 80B4     		push	{r7}
 271              		.cfi_def_cfa_offset 4
 272              		.cfi_offset 7, -4
 273 0002 83B0     		sub	sp, sp, #12
 274              		.cfi_def_cfa_offset 16
 275 0004 00AF     		add	r7, sp, #0
 276              		.cfi_def_cfa_register 7
ARM GAS  C:\Users\Matthew\AppData\Local\Temp\ccIwewKZ.s 			page 10


 238:Generated_Source\PSoC5/audio_isr.c ****     cyisraddress * ramVectorTable;
 239:Generated_Source\PSoC5/audio_isr.c **** 
 240:Generated_Source\PSoC5/audio_isr.c ****     ramVectorTable = (cyisraddress *) *CYINT_VECT_TABLE;
 277              		.loc 1 240 0
 278 0006 054B     		ldr	r3, .L16
 279 0008 1B68     		ldr	r3, [r3]
 280 000a 7B60     		str	r3, [r7, #4]
 241:Generated_Source\PSoC5/audio_isr.c **** 
 242:Generated_Source\PSoC5/audio_isr.c ****     return ramVectorTable[CYINT_IRQ_BASE + (uint32)audio_isr__INTC_NUMBER];
 281              		.loc 1 242 0
 282 000c 7B68     		ldr	r3, [r7, #4]
 283 000e 5B6C     		ldr	r3, [r3, #68]
 243:Generated_Source\PSoC5/audio_isr.c **** }
 284              		.loc 1 243 0
 285 0010 1846     		mov	r0, r3
 286 0012 0C37     		adds	r7, r7, #12
 287              		.cfi_def_cfa_offset 4
 288 0014 BD46     		mov	sp, r7
 289              		.cfi_def_cfa_register 13
 290              		@ sp needed
 291 0016 80BC     		pop	{r7}
 292              		.cfi_restore 7
 293              		.cfi_def_cfa_offset 0
 294 0018 7047     		bx	lr
 295              	.L17:
 296 001a 00BF     		.align	2
 297              	.L16:
 298 001c 08ED00E0 		.word	-536810232
 299              		.cfi_endproc
 300              	.LFE5:
 301              		.size	audio_isr_GetVector, .-audio_isr_GetVector
 302              		.section	.text.audio_isr_SetPriority,"ax",%progbits
 303              		.align	2
 304              		.global	audio_isr_SetPriority
 305              		.thumb
 306              		.thumb_func
 307              		.type	audio_isr_SetPriority, %function
 308              	audio_isr_SetPriority:
 309              	.LFB6:
 244:Generated_Source\PSoC5/audio_isr.c **** 
 245:Generated_Source\PSoC5/audio_isr.c **** 
 246:Generated_Source\PSoC5/audio_isr.c **** /*******************************************************************************
 247:Generated_Source\PSoC5/audio_isr.c **** * Function Name: audio_isr_SetPriority
 248:Generated_Source\PSoC5/audio_isr.c **** ********************************************************************************
 249:Generated_Source\PSoC5/audio_isr.c **** *
 250:Generated_Source\PSoC5/audio_isr.c **** * Summary:
 251:Generated_Source\PSoC5/audio_isr.c **** *   Sets the Priority of the Interrupt. 
 252:Generated_Source\PSoC5/audio_isr.c **** *
 253:Generated_Source\PSoC5/audio_isr.c **** *   Note calling audio_isr_Start or audio_isr_StartEx will 
 254:Generated_Source\PSoC5/audio_isr.c **** *   override any effect this API would have had. This API should only be called
 255:Generated_Source\PSoC5/audio_isr.c **** *   after audio_isr_Start or audio_isr_StartEx has been called. 
 256:Generated_Source\PSoC5/audio_isr.c **** *   To set the initial priority for the component, use the Design-Wide Resources
 257:Generated_Source\PSoC5/audio_isr.c **** *   Interrupt Editor.
 258:Generated_Source\PSoC5/audio_isr.c **** *
 259:Generated_Source\PSoC5/audio_isr.c **** *   Note This API has no effect on Non-maskable interrupt NMI).
 260:Generated_Source\PSoC5/audio_isr.c **** *
 261:Generated_Source\PSoC5/audio_isr.c **** * Parameters:
ARM GAS  C:\Users\Matthew\AppData\Local\Temp\ccIwewKZ.s 			page 11


 262:Generated_Source\PSoC5/audio_isr.c **** *   priority: Priority of the interrupt, 0 being the highest priority
 263:Generated_Source\PSoC5/audio_isr.c **** *             PSoC 3 and PSoC 5LP: Priority is from 0 to 7.
 264:Generated_Source\PSoC5/audio_isr.c **** *             PSoC 4: Priority is from 0 to 3.
 265:Generated_Source\PSoC5/audio_isr.c **** *
 266:Generated_Source\PSoC5/audio_isr.c **** * Return:
 267:Generated_Source\PSoC5/audio_isr.c **** *   None
 268:Generated_Source\PSoC5/audio_isr.c **** *
 269:Generated_Source\PSoC5/audio_isr.c **** *******************************************************************************/
 270:Generated_Source\PSoC5/audio_isr.c **** void audio_isr_SetPriority(uint8 priority)
 271:Generated_Source\PSoC5/audio_isr.c **** {
 310              		.loc 1 271 0
 311              		.cfi_startproc
 312              		@ args = 0, pretend = 0, frame = 8
 313              		@ frame_needed = 1, uses_anonymous_args = 0
 314              		@ link register save eliminated.
 315 0000 80B4     		push	{r7}
 316              		.cfi_def_cfa_offset 4
 317              		.cfi_offset 7, -4
 318 0002 83B0     		sub	sp, sp, #12
 319              		.cfi_def_cfa_offset 16
 320 0004 00AF     		add	r7, sp, #0
 321              		.cfi_def_cfa_register 7
 322 0006 0346     		mov	r3, r0
 323 0008 FB71     		strb	r3, [r7, #7]
 272:Generated_Source\PSoC5/audio_isr.c ****     *audio_isr_INTC_PRIOR = priority << 5;
 324              		.loc 1 272 0
 325 000a 054A     		ldr	r2, .L19
 326 000c FB79     		ldrb	r3, [r7, #7]
 327 000e 5B01     		lsls	r3, r3, #5
 328 0010 DBB2     		uxtb	r3, r3
 329 0012 1370     		strb	r3, [r2]
 273:Generated_Source\PSoC5/audio_isr.c **** }
 330              		.loc 1 273 0
 331 0014 00BF     		nop
 332 0016 0C37     		adds	r7, r7, #12
 333              		.cfi_def_cfa_offset 4
 334 0018 BD46     		mov	sp, r7
 335              		.cfi_def_cfa_register 13
 336              		@ sp needed
 337 001a 80BC     		pop	{r7}
 338              		.cfi_restore 7
 339              		.cfi_def_cfa_offset 0
 340 001c 7047     		bx	lr
 341              	.L20:
 342 001e 00BF     		.align	2
 343              	.L19:
 344 0020 01E400E0 		.word	-536812543
 345              		.cfi_endproc
 346              	.LFE6:
 347              		.size	audio_isr_SetPriority, .-audio_isr_SetPriority
 348              		.section	.text.audio_isr_GetPriority,"ax",%progbits
 349              		.align	2
 350              		.global	audio_isr_GetPriority
 351              		.thumb
 352              		.thumb_func
 353              		.type	audio_isr_GetPriority, %function
 354              	audio_isr_GetPriority:
ARM GAS  C:\Users\Matthew\AppData\Local\Temp\ccIwewKZ.s 			page 12


 355              	.LFB7:
 274:Generated_Source\PSoC5/audio_isr.c **** 
 275:Generated_Source\PSoC5/audio_isr.c **** 
 276:Generated_Source\PSoC5/audio_isr.c **** /*******************************************************************************
 277:Generated_Source\PSoC5/audio_isr.c **** * Function Name: audio_isr_GetPriority
 278:Generated_Source\PSoC5/audio_isr.c **** ********************************************************************************
 279:Generated_Source\PSoC5/audio_isr.c **** *
 280:Generated_Source\PSoC5/audio_isr.c **** * Summary:
 281:Generated_Source\PSoC5/audio_isr.c **** *   Gets the Priority of the Interrupt.
 282:Generated_Source\PSoC5/audio_isr.c **** *
 283:Generated_Source\PSoC5/audio_isr.c **** * Parameters:
 284:Generated_Source\PSoC5/audio_isr.c **** *   None
 285:Generated_Source\PSoC5/audio_isr.c **** *
 286:Generated_Source\PSoC5/audio_isr.c **** * Return:
 287:Generated_Source\PSoC5/audio_isr.c **** *   Priority of the interrupt, 0 being the highest priority
 288:Generated_Source\PSoC5/audio_isr.c **** *    PSoC 3 and PSoC 5LP: Priority is from 0 to 7.
 289:Generated_Source\PSoC5/audio_isr.c **** *    PSoC 4: Priority is from 0 to 3.
 290:Generated_Source\PSoC5/audio_isr.c **** *
 291:Generated_Source\PSoC5/audio_isr.c **** *******************************************************************************/
 292:Generated_Source\PSoC5/audio_isr.c **** uint8 audio_isr_GetPriority(void)
 293:Generated_Source\PSoC5/audio_isr.c **** {
 356              		.loc 1 293 0
 357              		.cfi_startproc
 358              		@ args = 0, pretend = 0, frame = 8
 359              		@ frame_needed = 1, uses_anonymous_args = 0
 360              		@ link register save eliminated.
 361 0000 80B4     		push	{r7}
 362              		.cfi_def_cfa_offset 4
 363              		.cfi_offset 7, -4
 364 0002 83B0     		sub	sp, sp, #12
 365              		.cfi_def_cfa_offset 16
 366 0004 00AF     		add	r7, sp, #0
 367              		.cfi_def_cfa_register 7
 294:Generated_Source\PSoC5/audio_isr.c ****     uint8 priority;
 295:Generated_Source\PSoC5/audio_isr.c **** 
 296:Generated_Source\PSoC5/audio_isr.c **** 
 297:Generated_Source\PSoC5/audio_isr.c ****     priority = *audio_isr_INTC_PRIOR >> 5;
 368              		.loc 1 297 0
 369 0006 054B     		ldr	r3, .L23
 370 0008 1B78     		ldrb	r3, [r3]
 371 000a DBB2     		uxtb	r3, r3
 372 000c 5B09     		lsrs	r3, r3, #5
 373 000e FB71     		strb	r3, [r7, #7]
 298:Generated_Source\PSoC5/audio_isr.c **** 
 299:Generated_Source\PSoC5/audio_isr.c ****     return priority;
 374              		.loc 1 299 0
 375 0010 FB79     		ldrb	r3, [r7, #7]	@ zero_extendqisi2
 300:Generated_Source\PSoC5/audio_isr.c **** }
 376              		.loc 1 300 0
 377 0012 1846     		mov	r0, r3
 378 0014 0C37     		adds	r7, r7, #12
 379              		.cfi_def_cfa_offset 4
 380 0016 BD46     		mov	sp, r7
 381              		.cfi_def_cfa_register 13
 382              		@ sp needed
 383 0018 80BC     		pop	{r7}
 384              		.cfi_restore 7
ARM GAS  C:\Users\Matthew\AppData\Local\Temp\ccIwewKZ.s 			page 13


 385              		.cfi_def_cfa_offset 0
 386 001a 7047     		bx	lr
 387              	.L24:
 388              		.align	2
 389              	.L23:
 390 001c 01E400E0 		.word	-536812543
 391              		.cfi_endproc
 392              	.LFE7:
 393              		.size	audio_isr_GetPriority, .-audio_isr_GetPriority
 394              		.section	.text.audio_isr_Enable,"ax",%progbits
 395              		.align	2
 396              		.global	audio_isr_Enable
 397              		.thumb
 398              		.thumb_func
 399              		.type	audio_isr_Enable, %function
 400              	audio_isr_Enable:
 401              	.LFB8:
 301:Generated_Source\PSoC5/audio_isr.c **** 
 302:Generated_Source\PSoC5/audio_isr.c **** 
 303:Generated_Source\PSoC5/audio_isr.c **** /*******************************************************************************
 304:Generated_Source\PSoC5/audio_isr.c **** * Function Name: audio_isr_Enable
 305:Generated_Source\PSoC5/audio_isr.c **** ********************************************************************************
 306:Generated_Source\PSoC5/audio_isr.c **** *
 307:Generated_Source\PSoC5/audio_isr.c **** * Summary:
 308:Generated_Source\PSoC5/audio_isr.c **** *   Enables the interrupt to the interrupt controller. Do not call this function
 309:Generated_Source\PSoC5/audio_isr.c **** *   unless ISR_Start() has been called or the functionality of the ISR_Start() 
 310:Generated_Source\PSoC5/audio_isr.c **** *   function, which sets the vector and the priority, has been called.
 311:Generated_Source\PSoC5/audio_isr.c **** *
 312:Generated_Source\PSoC5/audio_isr.c **** * Parameters:
 313:Generated_Source\PSoC5/audio_isr.c **** *   None
 314:Generated_Source\PSoC5/audio_isr.c **** *
 315:Generated_Source\PSoC5/audio_isr.c **** * Return:
 316:Generated_Source\PSoC5/audio_isr.c **** *   None
 317:Generated_Source\PSoC5/audio_isr.c **** *
 318:Generated_Source\PSoC5/audio_isr.c **** *******************************************************************************/
 319:Generated_Source\PSoC5/audio_isr.c **** void audio_isr_Enable(void)
 320:Generated_Source\PSoC5/audio_isr.c **** {
 402              		.loc 1 320 0
 403              		.cfi_startproc
 404              		@ args = 0, pretend = 0, frame = 0
 405              		@ frame_needed = 1, uses_anonymous_args = 0
 406              		@ link register save eliminated.
 407 0000 80B4     		push	{r7}
 408              		.cfi_def_cfa_offset 4
 409              		.cfi_offset 7, -4
 410 0002 00AF     		add	r7, sp, #0
 411              		.cfi_def_cfa_register 7
 321:Generated_Source\PSoC5/audio_isr.c ****     /* Enable the general interrupt. */
 322:Generated_Source\PSoC5/audio_isr.c ****     *audio_isr_INTC_SET_EN = audio_isr__INTC_MASK;
 412              		.loc 1 322 0
 413 0004 034B     		ldr	r3, .L26
 414 0006 0222     		movs	r2, #2
 415 0008 1A60     		str	r2, [r3]
 323:Generated_Source\PSoC5/audio_isr.c **** }
 416              		.loc 1 323 0
 417 000a 00BF     		nop
 418 000c BD46     		mov	sp, r7
ARM GAS  C:\Users\Matthew\AppData\Local\Temp\ccIwewKZ.s 			page 14


 419              		.cfi_def_cfa_register 13
 420              		@ sp needed
 421 000e 80BC     		pop	{r7}
 422              		.cfi_restore 7
 423              		.cfi_def_cfa_offset 0
 424 0010 7047     		bx	lr
 425              	.L27:
 426 0012 00BF     		.align	2
 427              	.L26:
 428 0014 00E100E0 		.word	-536813312
 429              		.cfi_endproc
 430              	.LFE8:
 431              		.size	audio_isr_Enable, .-audio_isr_Enable
 432              		.section	.text.audio_isr_GetState,"ax",%progbits
 433              		.align	2
 434              		.global	audio_isr_GetState
 435              		.thumb
 436              		.thumb_func
 437              		.type	audio_isr_GetState, %function
 438              	audio_isr_GetState:
 439              	.LFB9:
 324:Generated_Source\PSoC5/audio_isr.c **** 
 325:Generated_Source\PSoC5/audio_isr.c **** 
 326:Generated_Source\PSoC5/audio_isr.c **** /*******************************************************************************
 327:Generated_Source\PSoC5/audio_isr.c **** * Function Name: audio_isr_GetState
 328:Generated_Source\PSoC5/audio_isr.c **** ********************************************************************************
 329:Generated_Source\PSoC5/audio_isr.c **** *
 330:Generated_Source\PSoC5/audio_isr.c **** * Summary:
 331:Generated_Source\PSoC5/audio_isr.c **** *   Gets the state (enabled, disabled) of the Interrupt.
 332:Generated_Source\PSoC5/audio_isr.c **** *
 333:Generated_Source\PSoC5/audio_isr.c **** * Parameters:
 334:Generated_Source\PSoC5/audio_isr.c **** *   None
 335:Generated_Source\PSoC5/audio_isr.c **** *
 336:Generated_Source\PSoC5/audio_isr.c **** * Return:
 337:Generated_Source\PSoC5/audio_isr.c **** *   1 if enabled, 0 if disabled.
 338:Generated_Source\PSoC5/audio_isr.c **** *
 339:Generated_Source\PSoC5/audio_isr.c **** *******************************************************************************/
 340:Generated_Source\PSoC5/audio_isr.c **** uint8 audio_isr_GetState(void)
 341:Generated_Source\PSoC5/audio_isr.c **** {
 440              		.loc 1 341 0
 441              		.cfi_startproc
 442              		@ args = 0, pretend = 0, frame = 0
 443              		@ frame_needed = 1, uses_anonymous_args = 0
 444              		@ link register save eliminated.
 445 0000 80B4     		push	{r7}
 446              		.cfi_def_cfa_offset 4
 447              		.cfi_offset 7, -4
 448 0002 00AF     		add	r7, sp, #0
 449              		.cfi_def_cfa_register 7
 342:Generated_Source\PSoC5/audio_isr.c ****     /* Get the state of the general interrupt. */
 343:Generated_Source\PSoC5/audio_isr.c ****     return ((*audio_isr_INTC_SET_EN & (uint32)audio_isr__INTC_MASK) != 0u) ? 1u:0u;
 450              		.loc 1 343 0
 451 0004 064B     		ldr	r3, .L32
 452 0006 1B68     		ldr	r3, [r3]
 453 0008 03F00203 		and	r3, r3, #2
 454 000c 002B     		cmp	r3, #0
 455 000e 01D0     		beq	.L29
ARM GAS  C:\Users\Matthew\AppData\Local\Temp\ccIwewKZ.s 			page 15


 456              		.loc 1 343 0 is_stmt 0 discriminator 1
 457 0010 0123     		movs	r3, #1
 458 0012 00E0     		b	.L30
 459              	.L29:
 460              		.loc 1 343 0 discriminator 2
 461 0014 0023     		movs	r3, #0
 462              	.L30:
 344:Generated_Source\PSoC5/audio_isr.c **** }
 463              		.loc 1 344 0 is_stmt 1 discriminator 4
 464 0016 1846     		mov	r0, r3
 465 0018 BD46     		mov	sp, r7
 466              		.cfi_def_cfa_register 13
 467              		@ sp needed
 468 001a 80BC     		pop	{r7}
 469              		.cfi_restore 7
 470              		.cfi_def_cfa_offset 0
 471 001c 7047     		bx	lr
 472              	.L33:
 473 001e 00BF     		.align	2
 474              	.L32:
 475 0020 00E100E0 		.word	-536813312
 476              		.cfi_endproc
 477              	.LFE9:
 478              		.size	audio_isr_GetState, .-audio_isr_GetState
 479              		.section	.text.audio_isr_Disable,"ax",%progbits
 480              		.align	2
 481              		.global	audio_isr_Disable
 482              		.thumb
 483              		.thumb_func
 484              		.type	audio_isr_Disable, %function
 485              	audio_isr_Disable:
 486              	.LFB10:
 345:Generated_Source\PSoC5/audio_isr.c **** 
 346:Generated_Source\PSoC5/audio_isr.c **** 
 347:Generated_Source\PSoC5/audio_isr.c **** /*******************************************************************************
 348:Generated_Source\PSoC5/audio_isr.c **** * Function Name: audio_isr_Disable
 349:Generated_Source\PSoC5/audio_isr.c **** ********************************************************************************
 350:Generated_Source\PSoC5/audio_isr.c **** *
 351:Generated_Source\PSoC5/audio_isr.c **** * Summary:
 352:Generated_Source\PSoC5/audio_isr.c **** *   Disables the Interrupt in the interrupt controller.
 353:Generated_Source\PSoC5/audio_isr.c **** *
 354:Generated_Source\PSoC5/audio_isr.c **** * Parameters:
 355:Generated_Source\PSoC5/audio_isr.c **** *   None
 356:Generated_Source\PSoC5/audio_isr.c **** *
 357:Generated_Source\PSoC5/audio_isr.c **** * Return:
 358:Generated_Source\PSoC5/audio_isr.c **** *   None
 359:Generated_Source\PSoC5/audio_isr.c **** *
 360:Generated_Source\PSoC5/audio_isr.c **** *******************************************************************************/
 361:Generated_Source\PSoC5/audio_isr.c **** void audio_isr_Disable(void)
 362:Generated_Source\PSoC5/audio_isr.c **** {
 487              		.loc 1 362 0
 488              		.cfi_startproc
 489              		@ args = 0, pretend = 0, frame = 0
 490              		@ frame_needed = 1, uses_anonymous_args = 0
 491              		@ link register save eliminated.
 492 0000 80B4     		push	{r7}
 493              		.cfi_def_cfa_offset 4
ARM GAS  C:\Users\Matthew\AppData\Local\Temp\ccIwewKZ.s 			page 16


 494              		.cfi_offset 7, -4
 495 0002 00AF     		add	r7, sp, #0
 496              		.cfi_def_cfa_register 7
 363:Generated_Source\PSoC5/audio_isr.c ****     /* Disable the general interrupt. */
 364:Generated_Source\PSoC5/audio_isr.c ****     *audio_isr_INTC_CLR_EN = audio_isr__INTC_MASK;
 497              		.loc 1 364 0
 498 0004 034B     		ldr	r3, .L35
 499 0006 0222     		movs	r2, #2
 500 0008 1A60     		str	r2, [r3]
 365:Generated_Source\PSoC5/audio_isr.c **** }
 501              		.loc 1 365 0
 502 000a 00BF     		nop
 503 000c BD46     		mov	sp, r7
 504              		.cfi_def_cfa_register 13
 505              		@ sp needed
 506 000e 80BC     		pop	{r7}
 507              		.cfi_restore 7
 508              		.cfi_def_cfa_offset 0
 509 0010 7047     		bx	lr
 510              	.L36:
 511 0012 00BF     		.align	2
 512              	.L35:
 513 0014 80E100E0 		.word	-536813184
 514              		.cfi_endproc
 515              	.LFE10:
 516              		.size	audio_isr_Disable, .-audio_isr_Disable
 517              		.section	.text.audio_isr_SetPending,"ax",%progbits
 518              		.align	2
 519              		.global	audio_isr_SetPending
 520              		.thumb
 521              		.thumb_func
 522              		.type	audio_isr_SetPending, %function
 523              	audio_isr_SetPending:
 524              	.LFB11:
 366:Generated_Source\PSoC5/audio_isr.c **** 
 367:Generated_Source\PSoC5/audio_isr.c **** 
 368:Generated_Source\PSoC5/audio_isr.c **** /*******************************************************************************
 369:Generated_Source\PSoC5/audio_isr.c **** * Function Name: audio_isr_SetPending
 370:Generated_Source\PSoC5/audio_isr.c **** ********************************************************************************
 371:Generated_Source\PSoC5/audio_isr.c **** *
 372:Generated_Source\PSoC5/audio_isr.c **** * Summary:
 373:Generated_Source\PSoC5/audio_isr.c **** *   Causes the Interrupt to enter the pending state, a software method of
 374:Generated_Source\PSoC5/audio_isr.c **** *   generating the interrupt.
 375:Generated_Source\PSoC5/audio_isr.c **** *
 376:Generated_Source\PSoC5/audio_isr.c **** * Parameters:
 377:Generated_Source\PSoC5/audio_isr.c **** *   None
 378:Generated_Source\PSoC5/audio_isr.c **** *
 379:Generated_Source\PSoC5/audio_isr.c **** * Return:
 380:Generated_Source\PSoC5/audio_isr.c **** *   None
 381:Generated_Source\PSoC5/audio_isr.c **** *
 382:Generated_Source\PSoC5/audio_isr.c **** * Side Effects:
 383:Generated_Source\PSoC5/audio_isr.c **** *   If interrupts are enabled and the interrupt is set up properly, the ISR is
 384:Generated_Source\PSoC5/audio_isr.c **** *   entered (depending on the priority of this interrupt and other pending 
 385:Generated_Source\PSoC5/audio_isr.c **** *   interrupts).
 386:Generated_Source\PSoC5/audio_isr.c **** *
 387:Generated_Source\PSoC5/audio_isr.c **** *******************************************************************************/
 388:Generated_Source\PSoC5/audio_isr.c **** void audio_isr_SetPending(void)
ARM GAS  C:\Users\Matthew\AppData\Local\Temp\ccIwewKZ.s 			page 17


 389:Generated_Source\PSoC5/audio_isr.c **** {
 525              		.loc 1 389 0
 526              		.cfi_startproc
 527              		@ args = 0, pretend = 0, frame = 0
 528              		@ frame_needed = 1, uses_anonymous_args = 0
 529              		@ link register save eliminated.
 530 0000 80B4     		push	{r7}
 531              		.cfi_def_cfa_offset 4
 532              		.cfi_offset 7, -4
 533 0002 00AF     		add	r7, sp, #0
 534              		.cfi_def_cfa_register 7
 390:Generated_Source\PSoC5/audio_isr.c ****     *audio_isr_INTC_SET_PD = audio_isr__INTC_MASK;
 535              		.loc 1 390 0
 536 0004 034B     		ldr	r3, .L38
 537 0006 0222     		movs	r2, #2
 538 0008 1A60     		str	r2, [r3]
 391:Generated_Source\PSoC5/audio_isr.c **** }
 539              		.loc 1 391 0
 540 000a 00BF     		nop
 541 000c BD46     		mov	sp, r7
 542              		.cfi_def_cfa_register 13
 543              		@ sp needed
 544 000e 80BC     		pop	{r7}
 545              		.cfi_restore 7
 546              		.cfi_def_cfa_offset 0
 547 0010 7047     		bx	lr
 548              	.L39:
 549 0012 00BF     		.align	2
 550              	.L38:
 551 0014 00E200E0 		.word	-536813056
 552              		.cfi_endproc
 553              	.LFE11:
 554              		.size	audio_isr_SetPending, .-audio_isr_SetPending
 555              		.section	.text.audio_isr_ClearPending,"ax",%progbits
 556              		.align	2
 557              		.global	audio_isr_ClearPending
 558              		.thumb
 559              		.thumb_func
 560              		.type	audio_isr_ClearPending, %function
 561              	audio_isr_ClearPending:
 562              	.LFB12:
 392:Generated_Source\PSoC5/audio_isr.c **** 
 393:Generated_Source\PSoC5/audio_isr.c **** 
 394:Generated_Source\PSoC5/audio_isr.c **** /*******************************************************************************
 395:Generated_Source\PSoC5/audio_isr.c **** * Function Name: audio_isr_ClearPending
 396:Generated_Source\PSoC5/audio_isr.c **** ********************************************************************************
 397:Generated_Source\PSoC5/audio_isr.c **** *
 398:Generated_Source\PSoC5/audio_isr.c **** * Summary:
 399:Generated_Source\PSoC5/audio_isr.c **** *   Clears a pending interrupt in the interrupt controller.
 400:Generated_Source\PSoC5/audio_isr.c **** *
 401:Generated_Source\PSoC5/audio_isr.c **** *   Note Some interrupt sources are clear-on-read and require the block 
 402:Generated_Source\PSoC5/audio_isr.c **** *   interrupt/status register to be read/cleared with the appropriate block API 
 403:Generated_Source\PSoC5/audio_isr.c **** *   (GPIO, UART, and so on). Otherwise the ISR will continue to remain in 
 404:Generated_Source\PSoC5/audio_isr.c **** *   pending state even though the interrupt itself is cleared using this API.
 405:Generated_Source\PSoC5/audio_isr.c **** *
 406:Generated_Source\PSoC5/audio_isr.c **** * Parameters:
 407:Generated_Source\PSoC5/audio_isr.c **** *   None
ARM GAS  C:\Users\Matthew\AppData\Local\Temp\ccIwewKZ.s 			page 18


 408:Generated_Source\PSoC5/audio_isr.c **** *
 409:Generated_Source\PSoC5/audio_isr.c **** * Return:
 410:Generated_Source\PSoC5/audio_isr.c **** *   None
 411:Generated_Source\PSoC5/audio_isr.c **** *
 412:Generated_Source\PSoC5/audio_isr.c **** *******************************************************************************/
 413:Generated_Source\PSoC5/audio_isr.c **** void audio_isr_ClearPending(void)
 414:Generated_Source\PSoC5/audio_isr.c **** {
 563              		.loc 1 414 0
 564              		.cfi_startproc
 565              		@ args = 0, pretend = 0, frame = 0
 566              		@ frame_needed = 1, uses_anonymous_args = 0
 567              		@ link register save eliminated.
 568 0000 80B4     		push	{r7}
 569              		.cfi_def_cfa_offset 4
 570              		.cfi_offset 7, -4
 571 0002 00AF     		add	r7, sp, #0
 572              		.cfi_def_cfa_register 7
 415:Generated_Source\PSoC5/audio_isr.c ****     *audio_isr_INTC_CLR_PD = audio_isr__INTC_MASK;
 573              		.loc 1 415 0
 574 0004 034B     		ldr	r3, .L41
 575 0006 0222     		movs	r2, #2
 576 0008 1A60     		str	r2, [r3]
 416:Generated_Source\PSoC5/audio_isr.c **** }
 577              		.loc 1 416 0
 578 000a 00BF     		nop
 579 000c BD46     		mov	sp, r7
 580              		.cfi_def_cfa_register 13
 581              		@ sp needed
 582 000e 80BC     		pop	{r7}
 583              		.cfi_restore 7
 584              		.cfi_def_cfa_offset 0
 585 0010 7047     		bx	lr
 586              	.L42:
 587 0012 00BF     		.align	2
 588              	.L41:
 589 0014 80E200E0 		.word	-536812928
 590              		.cfi_endproc
 591              	.LFE12:
 592              		.size	audio_isr_ClearPending, .-audio_isr_ClearPending
 593              		.text
 594              	.Letext0:
 595              		.file 2 "Generated_Source\\PSoC5/cytypes.h"
 596              		.file 3 "./harmonica_control.h"