ARM GAS  C:\Users\Matthew\AppData\Local\Temp\ccQU4WZ4.s 			page 1


   1              		.syntax unified
   2              		.cpu cortex-m3
   3              		.fpu softvfp
   4              		.eabi_attribute 20, 1
   5              		.eabi_attribute 21, 1
   6              		.eabi_attribute 23, 3
   7              		.eabi_attribute 24, 1
   8              		.eabi_attribute 25, 1
   9              		.eabi_attribute 26, 1
  10              		.eabi_attribute 30, 6
  11              		.eabi_attribute 34, 1
  12              		.eabi_attribute 18, 4
  13              		.thumb
  14              		.syntax unified
  15              		.file	"button.c"
  16              		.text
  17              	.Ltext0:
  18              		.cfi_sections	.debug_frame
  19              		.global	DEBOUNCE_TIME
  20              		.section	.rodata
  21              		.type	DEBOUNCE_TIME, %object
  22              		.size	DEBOUNCE_TIME, 1
  23              	DEBOUNCE_TIME:
  24 0000 3C       		.byte	60
  25              		.section	.text.init_button,"ax",%progbits
  26              		.align	2
  27              		.global	init_button
  28              		.thumb
  29              		.thumb_func
  30              		.type	init_button, %function
  31              	init_button:
  32              	.LFB0:
  33              		.file 1 "button.c"
   1:button.c      **** /* ========================================
   2:button.c      ****  *
   3:button.c      ****  * Copyright YOUR COMPANY, THE YEAR
   4:button.c      ****  * All Rights Reserved
   5:button.c      ****  * UNPUBLISHED, LICENSED SOFTWARE.
   6:button.c      ****  *
   7:button.c      ****  * CONFIDENTIAL AND PROPRIETARY INFORMATION
   8:button.c      ****  * WHICH IS THE PROPERTY OF your company.
   9:button.c      ****  *
  10:button.c      ****  * ========================================
  11:button.c      **** */
  12:button.c      **** #include "button.h"
  13:button.c      **** const uint8 DEBOUNCE_TIME = 60;
  14:button.c      **** void init_button(Button* b) {
  34              		.loc 1 14 0
  35              		.cfi_startproc
  36              		@ args = 0, pretend = 0, frame = 8
  37              		@ frame_needed = 1, uses_anonymous_args = 0
  38 0000 80B5     		push	{r7, lr}
  39              		.cfi_def_cfa_offset 8
  40              		.cfi_offset 7, -8
  41              		.cfi_offset 14, -4
  42 0002 82B0     		sub	sp, sp, #8
  43              		.cfi_def_cfa_offset 16
ARM GAS  C:\Users\Matthew\AppData\Local\Temp\ccQU4WZ4.s 			page 2


  44 0004 00AF     		add	r7, sp, #0
  45              		.cfi_def_cfa_register 7
  46 0006 7860     		str	r0, [r7, #4]
  15:button.c      ****     b->edge = 0;
  47              		.loc 1 15 0
  48 0008 7B68     		ldr	r3, [r7, #4]
  49 000a 0022     		movs	r2, #0
  50 000c 1A73     		strb	r2, [r3, #12]
  16:button.c      ****     b->last_edge_time = CySysTickGetValue();
  51              		.loc 1 16 0
  52 000e FFF7FEFF 		bl	CySysTickGetValue
  53 0012 0346     		mov	r3, r0
  54 0014 1A46     		mov	r2, r3
  55 0016 7B68     		ldr	r3, [r7, #4]
  56 0018 1A60     		str	r2, [r3]
  17:button.c      ****     b->last_state = UNHELD;
  57              		.loc 1 17 0
  58 001a 7B68     		ldr	r3, [r7, #4]
  59 001c 0122     		movs	r2, #1
  60 001e 1A71     		strb	r2, [r3, #4]
  18:button.c      ****     b->num_presses = 0;
  61              		.loc 1 18 0
  62 0020 7B68     		ldr	r3, [r7, #4]
  63 0022 0022     		movs	r2, #0
  64 0024 9A60     		str	r2, [r3, #8]
  19:button.c      **** }
  65              		.loc 1 19 0
  66 0026 00BF     		nop
  67 0028 0837     		adds	r7, r7, #8
  68              		.cfi_def_cfa_offset 8
  69 002a BD46     		mov	sp, r7
  70              		.cfi_def_cfa_register 13
  71              		@ sp needed
  72 002c 80BD     		pop	{r7, pc}
  73              		.cfi_endproc
  74              	.LFE0:
  75              		.size	init_button, .-init_button
  76 002e 00BF     		.section	.text.poll_button,"ax",%progbits
  77              		.align	2
  78              		.global	poll_button
  79              		.thumb
  80              		.thumb_func
  81              		.type	poll_button, %function
  82              	poll_button:
  83              	.LFB1:
  20:button.c      **** 
  21:button.c      **** Button_State poll_button(Button* b, uint8 pin_value) {
  84              		.loc 1 21 0
  85              		.cfi_startproc
  86              		@ args = 0, pretend = 0, frame = 16
  87              		@ frame_needed = 1, uses_anonymous_args = 0
  88 0000 80B5     		push	{r7, lr}
  89              		.cfi_def_cfa_offset 8
  90              		.cfi_offset 7, -8
  91              		.cfi_offset 14, -4
  92 0002 84B0     		sub	sp, sp, #16
  93              		.cfi_def_cfa_offset 24
ARM GAS  C:\Users\Matthew\AppData\Local\Temp\ccQU4WZ4.s 			page 3


  94 0004 00AF     		add	r7, sp, #0
  95              		.cfi_def_cfa_register 7
  96 0006 7860     		str	r0, [r7, #4]
  97 0008 0B46     		mov	r3, r1
  98 000a FB70     		strb	r3, [r7, #3]
  22:button.c      ****     
  23:button.c      ****     Button_State current_state = (pin_value == 0) ? HELD : UNHELD;
  99              		.loc 1 23 0
 100 000c FB78     		ldrb	r3, [r7, #3]	@ zero_extendqisi2
 101 000e 002B     		cmp	r3, #0
 102 0010 14BF     		ite	ne
 103 0012 0123     		movne	r3, #1
 104 0014 0023     		moveq	r3, #0
 105 0016 DBB2     		uxtb	r3, r3
 106 0018 FB73     		strb	r3, [r7, #15]
  24:button.c      ****     
  25:button.c      ****     if(current_state != b->last_state) {
 107              		.loc 1 25 0
 108 001a 7B68     		ldr	r3, [r7, #4]
 109 001c 1B79     		ldrb	r3, [r3, #4]	@ zero_extendqisi2
 110 001e FA7B     		ldrb	r2, [r7, #15]	@ zero_extendqisi2
 111 0020 9A42     		cmp	r2, r3
 112 0022 0CD0     		beq	.L3
 113              	.LBB2:
  26:button.c      ****         // edge detected
  27:button.c      ****         b->last_state = current_state;
 114              		.loc 1 27 0
 115 0024 7B68     		ldr	r3, [r7, #4]
 116 0026 FA7B     		ldrb	r2, [r7, #15]
 117 0028 1A71     		strb	r2, [r3, #4]
  28:button.c      ****         b->last_edge_time = ms_counter_ReadCounter();
 118              		.loc 1 28 0
 119 002a FFF7FEFF 		bl	ms_counter_ReadCounter
 120 002e 0346     		mov	r3, r0
 121 0030 1A46     		mov	r2, r3
 122 0032 7B68     		ldr	r3, [r7, #4]
 123 0034 1A60     		str	r2, [r3]
  29:button.c      ****         b->edge = 1;
 124              		.loc 1 29 0
 125 0036 7B68     		ldr	r3, [r7, #4]
 126 0038 0122     		movs	r2, #1
 127 003a 1A73     		strb	r2, [r3, #12]
 128              	.LBE2:
 129 003c 15E0     		b	.L4
 130              	.L3:
  30:button.c      ****     } else {
  31:button.c      ****         
  32:button.c      ****         if(b->edge == 1) {
 131              		.loc 1 32 0
 132 003e 7B68     		ldr	r3, [r7, #4]
 133 0040 1B7B     		ldrb	r3, [r3, #12]	@ zero_extendqisi2
 134 0042 012B     		cmp	r3, #1
 135 0044 11D1     		bne	.L4
  33:button.c      ****             b->edge = 0;
 136              		.loc 1 33 0
 137 0046 7B68     		ldr	r3, [r7, #4]
 138 0048 0022     		movs	r2, #0
ARM GAS  C:\Users\Matthew\AppData\Local\Temp\ccQU4WZ4.s 			page 4


 139 004a 1A73     		strb	r2, [r3, #12]
  34:button.c      ****             
  35:button.c      ****             if(current_state == UNHELD) {
 140              		.loc 1 35 0
 141 004c FB7B     		ldrb	r3, [r7, #15]	@ zero_extendqisi2
 142 004e 012B     		cmp	r3, #1
 143 0050 04D1     		bne	.L5
  36:button.c      ****                 b->num_presses++;
 144              		.loc 1 36 0
 145 0052 7B68     		ldr	r3, [r7, #4]
 146 0054 9B68     		ldr	r3, [r3, #8]
 147 0056 5A1C     		adds	r2, r3, #1
 148 0058 7B68     		ldr	r3, [r7, #4]
 149 005a 9A60     		str	r2, [r3, #8]
 150              	.L5:
  37:button.c      ****             }
  38:button.c      ****             
  39:button.c      ****             return (current_state == UNHELD) ? FALLING_EDGE : RISING_EDGE;
 151              		.loc 1 39 0
 152 005c FB7B     		ldrb	r3, [r7, #15]	@ zero_extendqisi2
 153 005e 012B     		cmp	r3, #1
 154 0060 01D1     		bne	.L6
 155              		.loc 1 39 0 is_stmt 0 discriminator 1
 156 0062 0323     		movs	r3, #3
 157 0064 02E0     		b	.L8
 158              	.L6:
 159              		.loc 1 39 0 discriminator 2
 160 0066 0223     		movs	r3, #2
 161 0068 00E0     		b	.L8
 162              	.L4:
  40:button.c      ****         }
  41:button.c      ****         
  42:button.c      ****     }
  43:button.c      ****     return current_state;
 163              		.loc 1 43 0 is_stmt 1
 164 006a FB7B     		ldrb	r3, [r7, #15]	@ zero_extendqisi2
 165              	.L8:
  44:button.c      **** }
 166              		.loc 1 44 0
 167 006c 1846     		mov	r0, r3
 168 006e 1037     		adds	r7, r7, #16
 169              		.cfi_def_cfa_offset 8
 170 0070 BD46     		mov	sp, r7
 171              		.cfi_def_cfa_register 13
 172              		@ sp needed
 173 0072 80BD     		pop	{r7, pc}
 174              		.cfi_endproc
 175              	.LFE1:
 176              		.size	poll_button, .-poll_button
 177              		.text
 178              	.Letext0:
 179              		.file 2 "Generated_Source\\PSoC5/cytypes.h"
 180              		.file 3 "button.h"