ARM GAS  C:\Users\Matthew\AppData\Local\Temp\cc8wohvf.s 			page 1


   1              		.syntax unified
   2              		.cpu cortex-m3
   3              		.fpu softvfp
   4              		.eabi_attribute 20, 1
   5              		.eabi_attribute 21, 1
   6              		.eabi_attribute 23, 3
   7              		.eabi_attribute 24, 1
   8              		.eabi_attribute 25, 1
   9              		.eabi_attribute 26, 1
  10              		.eabi_attribute 30, 6
  11              		.eabi_attribute 34, 1
  12              		.eabi_attribute 18, 4
  13              		.thumb
  14              		.syntax unified
  15              		.file	"game_random_mode_generator.c"
  16              		.text
  17              	.Ltext0:
  18              		.cfi_sections	.debug_frame
  19              		.global	game_random_mode_generator_initVar
  20              		.bss
  21              		.type	game_random_mode_generator_initVar, %object
  22              		.size	game_random_mode_generator_initVar, 1
  23              	game_random_mode_generator_initVar:
  24 0000 00       		.space	1
  25              		.section	.text.game_random_mode_generator_Init,"ax",%progbits
  26              		.align	2
  27              		.global	game_random_mode_generator_Init
  28              		.thumb
  29              		.thumb_func
  30              		.type	game_random_mode_generator_Init, %function
  31              	game_random_mode_generator_Init:
  32              	.LFB0:
  33              		.file 1 "Generated_Source\\PSoC5\\game_random_mode_generator.c"
   1:Generated_Source\PSoC5/game_random_mode_generator.c **** /*******************************************************************************
   2:Generated_Source\PSoC5/game_random_mode_generator.c **** * File Name: game_random_mode_generator.c  
   3:Generated_Source\PSoC5/game_random_mode_generator.c **** * Version 3.0
   4:Generated_Source\PSoC5/game_random_mode_generator.c **** *
   5:Generated_Source\PSoC5/game_random_mode_generator.c **** *  Description:
   6:Generated_Source\PSoC5/game_random_mode_generator.c **** *     The Counter component consists of a 8, 16, 24 or 32-bit counter with
   7:Generated_Source\PSoC5/game_random_mode_generator.c **** *     a selectable period between 2 and 2^Width - 1.  
   8:Generated_Source\PSoC5/game_random_mode_generator.c **** *
   9:Generated_Source\PSoC5/game_random_mode_generator.c **** *   Note:
  10:Generated_Source\PSoC5/game_random_mode_generator.c **** *     None
  11:Generated_Source\PSoC5/game_random_mode_generator.c **** *
  12:Generated_Source\PSoC5/game_random_mode_generator.c **** ********************************************************************************
  13:Generated_Source\PSoC5/game_random_mode_generator.c **** * Copyright 2008-2012, Cypress Semiconductor Corporation.  All rights reserved.
  14:Generated_Source\PSoC5/game_random_mode_generator.c **** * You may use this file only in accordance with the license, terms, conditions, 
  15:Generated_Source\PSoC5/game_random_mode_generator.c **** * disclaimers, and limitations in the end user license agreement accompanying 
  16:Generated_Source\PSoC5/game_random_mode_generator.c **** * the software package with which this file was provided.
  17:Generated_Source\PSoC5/game_random_mode_generator.c **** *******************************************************************************/
  18:Generated_Source\PSoC5/game_random_mode_generator.c **** 
  19:Generated_Source\PSoC5/game_random_mode_generator.c **** #include "game_random_mode_generator.h"
  20:Generated_Source\PSoC5/game_random_mode_generator.c **** 
  21:Generated_Source\PSoC5/game_random_mode_generator.c **** uint8 game_random_mode_generator_initVar = 0u;
  22:Generated_Source\PSoC5/game_random_mode_generator.c **** 
  23:Generated_Source\PSoC5/game_random_mode_generator.c **** 
  24:Generated_Source\PSoC5/game_random_mode_generator.c **** /*******************************************************************************
ARM GAS  C:\Users\Matthew\AppData\Local\Temp\cc8wohvf.s 			page 2


  25:Generated_Source\PSoC5/game_random_mode_generator.c **** * Function Name: game_random_mode_generator_Init
  26:Generated_Source\PSoC5/game_random_mode_generator.c **** ********************************************************************************
  27:Generated_Source\PSoC5/game_random_mode_generator.c **** * Summary:
  28:Generated_Source\PSoC5/game_random_mode_generator.c **** *     Initialize to the schematic state
  29:Generated_Source\PSoC5/game_random_mode_generator.c **** * 
  30:Generated_Source\PSoC5/game_random_mode_generator.c **** * Parameters:  
  31:Generated_Source\PSoC5/game_random_mode_generator.c **** *  void  
  32:Generated_Source\PSoC5/game_random_mode_generator.c **** *
  33:Generated_Source\PSoC5/game_random_mode_generator.c **** * Return: 
  34:Generated_Source\PSoC5/game_random_mode_generator.c **** *  void
  35:Generated_Source\PSoC5/game_random_mode_generator.c **** *
  36:Generated_Source\PSoC5/game_random_mode_generator.c **** *******************************************************************************/
  37:Generated_Source\PSoC5/game_random_mode_generator.c **** void game_random_mode_generator_Init(void) 
  38:Generated_Source\PSoC5/game_random_mode_generator.c **** {
  34              		.loc 1 38 0
  35              		.cfi_startproc
  36              		@ args = 0, pretend = 0, frame = 0
  37              		@ frame_needed = 1, uses_anonymous_args = 0
  38 0000 80B5     		push	{r7, lr}
  39              		.cfi_def_cfa_offset 8
  40              		.cfi_offset 7, -8
  41              		.cfi_offset 14, -4
  42 0002 00AF     		add	r7, sp, #0
  43              		.cfi_def_cfa_register 7
  39:Generated_Source\PSoC5/game_random_mode_generator.c ****         #if (!game_random_mode_generator_UsingFixedFunction && !game_random_mode_generator_ControlR
  40:Generated_Source\PSoC5/game_random_mode_generator.c ****             uint8 ctrl;
  41:Generated_Source\PSoC5/game_random_mode_generator.c ****         #endif /* (!game_random_mode_generator_UsingFixedFunction && !game_random_mode_generator_Co
  42:Generated_Source\PSoC5/game_random_mode_generator.c ****         
  43:Generated_Source\PSoC5/game_random_mode_generator.c ****         #if(!game_random_mode_generator_UsingFixedFunction) 
  44:Generated_Source\PSoC5/game_random_mode_generator.c ****             /* Interrupt State Backup for Critical Region*/
  45:Generated_Source\PSoC5/game_random_mode_generator.c ****             uint8 game_random_mode_generator_interruptState;
  46:Generated_Source\PSoC5/game_random_mode_generator.c ****         #endif /* (!game_random_mode_generator_UsingFixedFunction) */
  47:Generated_Source\PSoC5/game_random_mode_generator.c ****         
  48:Generated_Source\PSoC5/game_random_mode_generator.c ****         #if (game_random_mode_generator_UsingFixedFunction)
  49:Generated_Source\PSoC5/game_random_mode_generator.c ****             /* Clear all bits but the enable bit (if it's already set for Timer operation */
  50:Generated_Source\PSoC5/game_random_mode_generator.c ****             game_random_mode_generator_CONTROL &= game_random_mode_generator_CTRL_ENABLE;
  44              		.loc 1 50 0
  45 0004 214A     		ldr	r2, .L2
  46 0006 214B     		ldr	r3, .L2
  47 0008 1B78     		ldrb	r3, [r3]
  48 000a DBB2     		uxtb	r3, r3
  49 000c 03F00103 		and	r3, r3, #1
  50 0010 DBB2     		uxtb	r3, r3
  51 0012 1370     		strb	r3, [r2]
  51:Generated_Source\PSoC5/game_random_mode_generator.c ****             
  52:Generated_Source\PSoC5/game_random_mode_generator.c ****             /* Clear the mode bits for continuous run mode */
  53:Generated_Source\PSoC5/game_random_mode_generator.c ****             #if (CY_PSOC5A)
  54:Generated_Source\PSoC5/game_random_mode_generator.c ****                 game_random_mode_generator_CONTROL2 &= ((uint8)(~game_random_mode_generator_CTRL_MO
  55:Generated_Source\PSoC5/game_random_mode_generator.c ****             #endif /* (CY_PSOC5A) */
  56:Generated_Source\PSoC5/game_random_mode_generator.c ****             #if (CY_PSOC3 || CY_PSOC5LP)
  57:Generated_Source\PSoC5/game_random_mode_generator.c ****                 game_random_mode_generator_CONTROL3 &= ((uint8)(~game_random_mode_generator_CTRL_MO
  52              		.loc 1 57 0
  53 0014 1E4A     		ldr	r2, .L2+4
  54 0016 1E4B     		ldr	r3, .L2+4
  55 0018 1B78     		ldrb	r3, [r3]
  56 001a DBB2     		uxtb	r3, r3
  57 001c 23F00303 		bic	r3, r3, #3
ARM GAS  C:\Users\Matthew\AppData\Local\Temp\cc8wohvf.s 			page 3


  58 0020 DBB2     		uxtb	r3, r3
  59 0022 1370     		strb	r3, [r2]
  58:Generated_Source\PSoC5/game_random_mode_generator.c ****             #endif /* (CY_PSOC3 || CY_PSOC5LP) */
  59:Generated_Source\PSoC5/game_random_mode_generator.c ****             /* Check if One Shot mode is enabled i.e. RunMode !=0*/
  60:Generated_Source\PSoC5/game_random_mode_generator.c ****             #if (game_random_mode_generator_RunModeUsed != 0x0u)
  61:Generated_Source\PSoC5/game_random_mode_generator.c ****                 /* Set 3rd bit of Control register to enable one shot mode */
  62:Generated_Source\PSoC5/game_random_mode_generator.c ****                 game_random_mode_generator_CONTROL |= game_random_mode_generator_ONESHOT;
  63:Generated_Source\PSoC5/game_random_mode_generator.c ****             #endif /* (game_random_mode_generator_RunModeUsed != 0x0u) */
  64:Generated_Source\PSoC5/game_random_mode_generator.c ****             
  65:Generated_Source\PSoC5/game_random_mode_generator.c ****             /* Set the IRQ to use the status register interrupts */
  66:Generated_Source\PSoC5/game_random_mode_generator.c ****             game_random_mode_generator_CONTROL2 |= game_random_mode_generator_CTRL2_IRQ_SEL;
  60              		.loc 1 66 0
  61 0024 1B4A     		ldr	r2, .L2+8
  62 0026 1B4B     		ldr	r3, .L2+8
  63 0028 1B78     		ldrb	r3, [r3]
  64 002a DBB2     		uxtb	r3, r3
  65 002c 43F00103 		orr	r3, r3, #1
  66 0030 DBB2     		uxtb	r3, r3
  67 0032 1370     		strb	r3, [r2]
  67:Generated_Source\PSoC5/game_random_mode_generator.c ****             
  68:Generated_Source\PSoC5/game_random_mode_generator.c ****             /* Clear and Set SYNCTC and SYNCCMP bits of RT1 register */
  69:Generated_Source\PSoC5/game_random_mode_generator.c ****             game_random_mode_generator_RT1 &= ((uint8)(~game_random_mode_generator_RT1_MASK));
  68              		.loc 1 69 0
  69 0034 184A     		ldr	r2, .L2+12
  70 0036 184B     		ldr	r3, .L2+12
  71 0038 1B78     		ldrb	r3, [r3]
  72 003a DBB2     		uxtb	r3, r3
  73 003c 23F03003 		bic	r3, r3, #48
  74 0040 DBB2     		uxtb	r3, r3
  75 0042 1370     		strb	r3, [r2]
  70:Generated_Source\PSoC5/game_random_mode_generator.c ****             game_random_mode_generator_RT1 |= game_random_mode_generator_SYNC;     
  76              		.loc 1 70 0
  77 0044 144A     		ldr	r2, .L2+12
  78 0046 144B     		ldr	r3, .L2+12
  79 0048 1B78     		ldrb	r3, [r3]
  80 004a DBB2     		uxtb	r3, r3
  81 004c 43F03003 		orr	r3, r3, #48
  82 0050 DBB2     		uxtb	r3, r3
  83 0052 1370     		strb	r3, [r2]
  71:Generated_Source\PSoC5/game_random_mode_generator.c ****                     
  72:Generated_Source\PSoC5/game_random_mode_generator.c ****             /*Enable DSI Sync all all inputs of the Timer*/
  73:Generated_Source\PSoC5/game_random_mode_generator.c ****             game_random_mode_generator_RT1 &= ((uint8)(~game_random_mode_generator_SYNCDSI_MASK));
  84              		.loc 1 73 0
  85 0054 104A     		ldr	r2, .L2+12
  86 0056 104B     		ldr	r3, .L2+12
  87 0058 1B78     		ldrb	r3, [r3]
  88 005a DBB2     		uxtb	r3, r3
  89 005c 23F00F03 		bic	r3, r3, #15
  90 0060 DBB2     		uxtb	r3, r3
  91 0062 1370     		strb	r3, [r2]
  74:Generated_Source\PSoC5/game_random_mode_generator.c ****             game_random_mode_generator_RT1 |= game_random_mode_generator_SYNCDSI_EN;
  92              		.loc 1 74 0
  93 0064 0C4A     		ldr	r2, .L2+12
  94 0066 0C4B     		ldr	r3, .L2+12
  95 0068 1B78     		ldrb	r3, [r3]
  96 006a DBB2     		uxtb	r3, r3
  97 006c 43F00F03 		orr	r3, r3, #15
ARM GAS  C:\Users\Matthew\AppData\Local\Temp\cc8wohvf.s 			page 4


  98 0070 DBB2     		uxtb	r3, r3
  99 0072 1370     		strb	r3, [r2]
  75:Generated_Source\PSoC5/game_random_mode_generator.c **** 
  76:Generated_Source\PSoC5/game_random_mode_generator.c ****         #else
  77:Generated_Source\PSoC5/game_random_mode_generator.c ****             #if(!game_random_mode_generator_ControlRegRemoved)
  78:Generated_Source\PSoC5/game_random_mode_generator.c ****             /* Set the default compare mode defined in the parameter */
  79:Generated_Source\PSoC5/game_random_mode_generator.c ****             ctrl = game_random_mode_generator_CONTROL & ((uint8)(~game_random_mode_generator_CTRL_C
  80:Generated_Source\PSoC5/game_random_mode_generator.c ****             game_random_mode_generator_CONTROL = ctrl | game_random_mode_generator_DEFAULT_COMPARE_
  81:Generated_Source\PSoC5/game_random_mode_generator.c ****             
  82:Generated_Source\PSoC5/game_random_mode_generator.c ****             /* Set the default capture mode defined in the parameter */
  83:Generated_Source\PSoC5/game_random_mode_generator.c ****             ctrl = game_random_mode_generator_CONTROL & ((uint8)(~game_random_mode_generator_CTRL_C
  84:Generated_Source\PSoC5/game_random_mode_generator.c ****             
  85:Generated_Source\PSoC5/game_random_mode_generator.c ****             #if( 0 != game_random_mode_generator_CAPTURE_MODE_CONF)
  86:Generated_Source\PSoC5/game_random_mode_generator.c ****                 game_random_mode_generator_CONTROL = ctrl | game_random_mode_generator_DEFAULT_CAPT
  87:Generated_Source\PSoC5/game_random_mode_generator.c ****             #else
  88:Generated_Source\PSoC5/game_random_mode_generator.c ****                 game_random_mode_generator_CONTROL = ctrl;
  89:Generated_Source\PSoC5/game_random_mode_generator.c ****             #endif /* 0 != game_random_mode_generator_CAPTURE_MODE */ 
  90:Generated_Source\PSoC5/game_random_mode_generator.c ****             
  91:Generated_Source\PSoC5/game_random_mode_generator.c ****             #endif /* (!game_random_mode_generator_ControlRegRemoved) */
  92:Generated_Source\PSoC5/game_random_mode_generator.c ****         #endif /* (game_random_mode_generator_UsingFixedFunction) */
  93:Generated_Source\PSoC5/game_random_mode_generator.c ****         
  94:Generated_Source\PSoC5/game_random_mode_generator.c ****         /* Clear all data in the FIFO's */
  95:Generated_Source\PSoC5/game_random_mode_generator.c ****         #if (!game_random_mode_generator_UsingFixedFunction)
  96:Generated_Source\PSoC5/game_random_mode_generator.c ****             game_random_mode_generator_ClearFIFO();
  97:Generated_Source\PSoC5/game_random_mode_generator.c ****         #endif /* (!game_random_mode_generator_UsingFixedFunction) */
  98:Generated_Source\PSoC5/game_random_mode_generator.c ****         
  99:Generated_Source\PSoC5/game_random_mode_generator.c ****         /* Set Initial values from Configuration */
 100:Generated_Source\PSoC5/game_random_mode_generator.c ****         game_random_mode_generator_WritePeriod(game_random_mode_generator_INIT_PERIOD_VALUE);
 100              		.loc 1 100 0
 101 0074 4FF6FF70 		movw	r0, #65535
 102 0078 FFF7FEFF 		bl	game_random_mode_generator_WritePeriod
 101:Generated_Source\PSoC5/game_random_mode_generator.c ****         #if (!(game_random_mode_generator_UsingFixedFunction && (CY_PSOC5A)))
 102:Generated_Source\PSoC5/game_random_mode_generator.c ****             game_random_mode_generator_WriteCounter(game_random_mode_generator_INIT_COUNTER_VALUE);
 103              		.loc 1 102 0
 104 007c 0020     		movs	r0, #0
 105 007e FFF7FEFF 		bl	game_random_mode_generator_WriteCounter
 103:Generated_Source\PSoC5/game_random_mode_generator.c ****         #endif /* (!(game_random_mode_generator_UsingFixedFunction && (CY_PSOC5A))) */
 104:Generated_Source\PSoC5/game_random_mode_generator.c ****         game_random_mode_generator_SetInterruptMode(game_random_mode_generator_INIT_INTERRUPTS_MASK
 106              		.loc 1 104 0
 107 0082 0020     		movs	r0, #0
 108 0084 FFF7FEFF 		bl	game_random_mode_generator_SetInterruptMode
 105:Generated_Source\PSoC5/game_random_mode_generator.c ****         
 106:Generated_Source\PSoC5/game_random_mode_generator.c ****         #if (!game_random_mode_generator_UsingFixedFunction)
 107:Generated_Source\PSoC5/game_random_mode_generator.c ****             /* Read the status register to clear the unwanted interrupts */
 108:Generated_Source\PSoC5/game_random_mode_generator.c ****             (void)game_random_mode_generator_ReadStatusRegister();
 109:Generated_Source\PSoC5/game_random_mode_generator.c ****             /* Set the compare value (only available to non-fixed function implementation */
 110:Generated_Source\PSoC5/game_random_mode_generator.c ****             game_random_mode_generator_WriteCompare(game_random_mode_generator_INIT_COMPARE_VALUE);
 111:Generated_Source\PSoC5/game_random_mode_generator.c ****             /* Use the interrupt output of the status register for IRQ output */
 112:Generated_Source\PSoC5/game_random_mode_generator.c ****             
 113:Generated_Source\PSoC5/game_random_mode_generator.c ****             /* CyEnterCriticalRegion and CyExitCriticalRegion are used to mark following region cri
 114:Generated_Source\PSoC5/game_random_mode_generator.c ****             /* Enter Critical Region*/
 115:Generated_Source\PSoC5/game_random_mode_generator.c ****             game_random_mode_generator_interruptState = CyEnterCriticalSection();
 116:Generated_Source\PSoC5/game_random_mode_generator.c ****             
 117:Generated_Source\PSoC5/game_random_mode_generator.c ****             game_random_mode_generator_STATUS_AUX_CTRL |= game_random_mode_generator_STATUS_ACTL_IN
 118:Generated_Source\PSoC5/game_random_mode_generator.c ****             
 119:Generated_Source\PSoC5/game_random_mode_generator.c ****             /* Exit Critical Region*/
 120:Generated_Source\PSoC5/game_random_mode_generator.c ****             CyExitCriticalSection(game_random_mode_generator_interruptState);
ARM GAS  C:\Users\Matthew\AppData\Local\Temp\cc8wohvf.s 			page 5


 121:Generated_Source\PSoC5/game_random_mode_generator.c ****             
 122:Generated_Source\PSoC5/game_random_mode_generator.c ****         #endif /* (!game_random_mode_generator_UsingFixedFunction) */
 123:Generated_Source\PSoC5/game_random_mode_generator.c **** }
 109              		.loc 1 123 0
 110 0088 00BF     		nop
 111 008a 80BD     		pop	{r7, pc}
 112              	.L3:
 113              		.align	2
 114              	.L2:
 115 008c 0C4F0040 		.word	1073762060
 116 0090 0E4F0040 		.word	1073762062
 117 0094 0D4F0040 		.word	1073762061
 118 0098 174F0040 		.word	1073762071
 119              		.cfi_endproc
 120              	.LFE0:
 121              		.size	game_random_mode_generator_Init, .-game_random_mode_generator_Init
 122              		.section	.text.game_random_mode_generator_Enable,"ax",%progbits
 123              		.align	2
 124              		.global	game_random_mode_generator_Enable
 125              		.thumb
 126              		.thumb_func
 127              		.type	game_random_mode_generator_Enable, %function
 128              	game_random_mode_generator_Enable:
 129              	.LFB1:
 124:Generated_Source\PSoC5/game_random_mode_generator.c **** 
 125:Generated_Source\PSoC5/game_random_mode_generator.c **** 
 126:Generated_Source\PSoC5/game_random_mode_generator.c **** /*******************************************************************************
 127:Generated_Source\PSoC5/game_random_mode_generator.c **** * Function Name: game_random_mode_generator_Enable
 128:Generated_Source\PSoC5/game_random_mode_generator.c **** ********************************************************************************
 129:Generated_Source\PSoC5/game_random_mode_generator.c **** * Summary:
 130:Generated_Source\PSoC5/game_random_mode_generator.c **** *     Enable the Counter
 131:Generated_Source\PSoC5/game_random_mode_generator.c **** * 
 132:Generated_Source\PSoC5/game_random_mode_generator.c **** * Parameters:  
 133:Generated_Source\PSoC5/game_random_mode_generator.c **** *  void  
 134:Generated_Source\PSoC5/game_random_mode_generator.c **** *
 135:Generated_Source\PSoC5/game_random_mode_generator.c **** * Return: 
 136:Generated_Source\PSoC5/game_random_mode_generator.c **** *  void
 137:Generated_Source\PSoC5/game_random_mode_generator.c **** *
 138:Generated_Source\PSoC5/game_random_mode_generator.c **** * Side Effects: 
 139:Generated_Source\PSoC5/game_random_mode_generator.c **** *   If the Enable mode is set to Hardware only then this function has no effect 
 140:Generated_Source\PSoC5/game_random_mode_generator.c **** *   on the operation of the counter.
 141:Generated_Source\PSoC5/game_random_mode_generator.c **** *
 142:Generated_Source\PSoC5/game_random_mode_generator.c **** *******************************************************************************/
 143:Generated_Source\PSoC5/game_random_mode_generator.c **** void game_random_mode_generator_Enable(void) 
 144:Generated_Source\PSoC5/game_random_mode_generator.c **** {
 130              		.loc 1 144 0
 131              		.cfi_startproc
 132              		@ args = 0, pretend = 0, frame = 0
 133              		@ frame_needed = 1, uses_anonymous_args = 0
 134              		@ link register save eliminated.
 135 0000 80B4     		push	{r7}
 136              		.cfi_def_cfa_offset 4
 137              		.cfi_offset 7, -4
 138 0002 00AF     		add	r7, sp, #0
 139              		.cfi_def_cfa_register 7
 145:Generated_Source\PSoC5/game_random_mode_generator.c ****     /* Globally Enable the Fixed Function Block chosen */
 146:Generated_Source\PSoC5/game_random_mode_generator.c ****     #if (game_random_mode_generator_UsingFixedFunction)
ARM GAS  C:\Users\Matthew\AppData\Local\Temp\cc8wohvf.s 			page 6


 147:Generated_Source\PSoC5/game_random_mode_generator.c ****         game_random_mode_generator_GLOBAL_ENABLE |= game_random_mode_generator_BLOCK_EN_MASK;
 140              		.loc 1 147 0
 141 0004 0D4A     		ldr	r2, .L5
 142 0006 0D4B     		ldr	r3, .L5
 143 0008 1B78     		ldrb	r3, [r3]
 144 000a DBB2     		uxtb	r3, r3
 145 000c 43F00203 		orr	r3, r3, #2
 146 0010 DBB2     		uxtb	r3, r3
 147 0012 1370     		strb	r3, [r2]
 148:Generated_Source\PSoC5/game_random_mode_generator.c ****         game_random_mode_generator_GLOBAL_STBY_ENABLE |= game_random_mode_generator_BLOCK_STBY_EN_M
 148              		.loc 1 148 0
 149 0014 0A4A     		ldr	r2, .L5+4
 150 0016 0A4B     		ldr	r3, .L5+4
 151 0018 1B78     		ldrb	r3, [r3]
 152 001a DBB2     		uxtb	r3, r3
 153 001c 43F00203 		orr	r3, r3, #2
 154 0020 DBB2     		uxtb	r3, r3
 155 0022 1370     		strb	r3, [r2]
 149:Generated_Source\PSoC5/game_random_mode_generator.c ****     #endif /* (game_random_mode_generator_UsingFixedFunction) */  
 150:Generated_Source\PSoC5/game_random_mode_generator.c ****         
 151:Generated_Source\PSoC5/game_random_mode_generator.c ****     /* Enable the counter from the control register  */
 152:Generated_Source\PSoC5/game_random_mode_generator.c ****     /* If Fixed Function then make sure Mode is set correctly */
 153:Generated_Source\PSoC5/game_random_mode_generator.c ****     /* else make sure reset is clear */
 154:Generated_Source\PSoC5/game_random_mode_generator.c ****     #if(!game_random_mode_generator_ControlRegRemoved || game_random_mode_generator_UsingFixedFunct
 155:Generated_Source\PSoC5/game_random_mode_generator.c ****         game_random_mode_generator_CONTROL |= game_random_mode_generator_CTRL_ENABLE;              
 156              		.loc 1 155 0
 157 0024 074A     		ldr	r2, .L5+8
 158 0026 074B     		ldr	r3, .L5+8
 159 0028 1B78     		ldrb	r3, [r3]
 160 002a DBB2     		uxtb	r3, r3
 161 002c 43F00103 		orr	r3, r3, #1
 162 0030 DBB2     		uxtb	r3, r3
 163 0032 1370     		strb	r3, [r2]
 156:Generated_Source\PSoC5/game_random_mode_generator.c ****     #endif /* (!game_random_mode_generator_ControlRegRemoved || game_random_mode_generator_UsingFix
 157:Generated_Source\PSoC5/game_random_mode_generator.c ****     
 158:Generated_Source\PSoC5/game_random_mode_generator.c **** }
 164              		.loc 1 158 0
 165 0034 00BF     		nop
 166 0036 BD46     		mov	sp, r7
 167              		.cfi_def_cfa_register 13
 168              		@ sp needed
 169 0038 80BC     		pop	{r7}
 170              		.cfi_restore 7
 171              		.cfi_def_cfa_offset 0
 172 003a 7047     		bx	lr
 173              	.L6:
 174              		.align	2
 175              	.L5:
 176 003c A3430040 		.word	1073759139
 177 0040 B3430040 		.word	1073759155
 178 0044 0C4F0040 		.word	1073762060
 179              		.cfi_endproc
 180              	.LFE1:
 181              		.size	game_random_mode_generator_Enable, .-game_random_mode_generator_Enable
 182              		.section	.text.game_random_mode_generator_Start,"ax",%progbits
 183              		.align	2
 184              		.global	game_random_mode_generator_Start
ARM GAS  C:\Users\Matthew\AppData\Local\Temp\cc8wohvf.s 			page 7


 185              		.thumb
 186              		.thumb_func
 187              		.type	game_random_mode_generator_Start, %function
 188              	game_random_mode_generator_Start:
 189              	.LFB2:
 159:Generated_Source\PSoC5/game_random_mode_generator.c **** 
 160:Generated_Source\PSoC5/game_random_mode_generator.c **** 
 161:Generated_Source\PSoC5/game_random_mode_generator.c **** /*******************************************************************************
 162:Generated_Source\PSoC5/game_random_mode_generator.c **** * Function Name: game_random_mode_generator_Start
 163:Generated_Source\PSoC5/game_random_mode_generator.c **** ********************************************************************************
 164:Generated_Source\PSoC5/game_random_mode_generator.c **** * Summary:
 165:Generated_Source\PSoC5/game_random_mode_generator.c **** *  Enables the counter for operation 
 166:Generated_Source\PSoC5/game_random_mode_generator.c **** *
 167:Generated_Source\PSoC5/game_random_mode_generator.c **** * Parameters:  
 168:Generated_Source\PSoC5/game_random_mode_generator.c **** *  void  
 169:Generated_Source\PSoC5/game_random_mode_generator.c **** *
 170:Generated_Source\PSoC5/game_random_mode_generator.c **** * Return: 
 171:Generated_Source\PSoC5/game_random_mode_generator.c **** *  void
 172:Generated_Source\PSoC5/game_random_mode_generator.c **** *
 173:Generated_Source\PSoC5/game_random_mode_generator.c **** * Global variables:
 174:Generated_Source\PSoC5/game_random_mode_generator.c **** *  game_random_mode_generator_initVar: Is modified when this function is called for the  
 175:Generated_Source\PSoC5/game_random_mode_generator.c **** *   first time. Is used to ensure that initialization happens only once.
 176:Generated_Source\PSoC5/game_random_mode_generator.c **** *
 177:Generated_Source\PSoC5/game_random_mode_generator.c **** *******************************************************************************/
 178:Generated_Source\PSoC5/game_random_mode_generator.c **** void game_random_mode_generator_Start(void) 
 179:Generated_Source\PSoC5/game_random_mode_generator.c **** {
 190              		.loc 1 179 0
 191              		.cfi_startproc
 192              		@ args = 0, pretend = 0, frame = 0
 193              		@ frame_needed = 1, uses_anonymous_args = 0
 194 0000 80B5     		push	{r7, lr}
 195              		.cfi_def_cfa_offset 8
 196              		.cfi_offset 7, -8
 197              		.cfi_offset 14, -4
 198 0002 00AF     		add	r7, sp, #0
 199              		.cfi_def_cfa_register 7
 180:Generated_Source\PSoC5/game_random_mode_generator.c ****     if(game_random_mode_generator_initVar == 0u)
 200              		.loc 1 180 0
 201 0004 064B     		ldr	r3, .L9
 202 0006 1B78     		ldrb	r3, [r3]	@ zero_extendqisi2
 203 0008 002B     		cmp	r3, #0
 204 000a 04D1     		bne	.L8
 181:Generated_Source\PSoC5/game_random_mode_generator.c ****     {
 182:Generated_Source\PSoC5/game_random_mode_generator.c ****         game_random_mode_generator_Init();
 205              		.loc 1 182 0
 206 000c FFF7FEFF 		bl	game_random_mode_generator_Init
 183:Generated_Source\PSoC5/game_random_mode_generator.c ****         
 184:Generated_Source\PSoC5/game_random_mode_generator.c ****         game_random_mode_generator_initVar = 1u; /* Clear this bit for Initialization */        
 207              		.loc 1 184 0
 208 0010 034B     		ldr	r3, .L9
 209 0012 0122     		movs	r2, #1
 210 0014 1A70     		strb	r2, [r3]
 211              	.L8:
 185:Generated_Source\PSoC5/game_random_mode_generator.c ****     }
 186:Generated_Source\PSoC5/game_random_mode_generator.c ****     
 187:Generated_Source\PSoC5/game_random_mode_generator.c ****     /* Enable the Counter */
 188:Generated_Source\PSoC5/game_random_mode_generator.c ****     game_random_mode_generator_Enable();        
ARM GAS  C:\Users\Matthew\AppData\Local\Temp\cc8wohvf.s 			page 8


 212              		.loc 1 188 0
 213 0016 FFF7FEFF 		bl	game_random_mode_generator_Enable
 189:Generated_Source\PSoC5/game_random_mode_generator.c **** }
 214              		.loc 1 189 0
 215 001a 00BF     		nop
 216 001c 80BD     		pop	{r7, pc}
 217              	.L10:
 218 001e 00BF     		.align	2
 219              	.L9:
 220 0020 00000000 		.word	game_random_mode_generator_initVar
 221              		.cfi_endproc
 222              	.LFE2:
 223              		.size	game_random_mode_generator_Start, .-game_random_mode_generator_Start
 224              		.section	.text.game_random_mode_generator_Stop,"ax",%progbits
 225              		.align	2
 226              		.global	game_random_mode_generator_Stop
 227              		.thumb
 228              		.thumb_func
 229              		.type	game_random_mode_generator_Stop, %function
 230              	game_random_mode_generator_Stop:
 231              	.LFB3:
 190:Generated_Source\PSoC5/game_random_mode_generator.c **** 
 191:Generated_Source\PSoC5/game_random_mode_generator.c **** 
 192:Generated_Source\PSoC5/game_random_mode_generator.c **** /*******************************************************************************
 193:Generated_Source\PSoC5/game_random_mode_generator.c **** * Function Name: game_random_mode_generator_Stop
 194:Generated_Source\PSoC5/game_random_mode_generator.c **** ********************************************************************************
 195:Generated_Source\PSoC5/game_random_mode_generator.c **** * Summary:
 196:Generated_Source\PSoC5/game_random_mode_generator.c **** * Halts the counter, but does not change any modes or disable interrupts.
 197:Generated_Source\PSoC5/game_random_mode_generator.c **** *
 198:Generated_Source\PSoC5/game_random_mode_generator.c **** * Parameters:  
 199:Generated_Source\PSoC5/game_random_mode_generator.c **** *  void  
 200:Generated_Source\PSoC5/game_random_mode_generator.c **** *
 201:Generated_Source\PSoC5/game_random_mode_generator.c **** * Return: 
 202:Generated_Source\PSoC5/game_random_mode_generator.c **** *  void
 203:Generated_Source\PSoC5/game_random_mode_generator.c **** *
 204:Generated_Source\PSoC5/game_random_mode_generator.c **** * Side Effects: If the Enable mode is set to Hardware only then this function
 205:Generated_Source\PSoC5/game_random_mode_generator.c **** *               has no effect on the operation of the counter.
 206:Generated_Source\PSoC5/game_random_mode_generator.c **** *
 207:Generated_Source\PSoC5/game_random_mode_generator.c **** *******************************************************************************/
 208:Generated_Source\PSoC5/game_random_mode_generator.c **** void game_random_mode_generator_Stop(void) 
 209:Generated_Source\PSoC5/game_random_mode_generator.c **** {
 232              		.loc 1 209 0
 233              		.cfi_startproc
 234              		@ args = 0, pretend = 0, frame = 0
 235              		@ frame_needed = 1, uses_anonymous_args = 0
 236              		@ link register save eliminated.
 237 0000 80B4     		push	{r7}
 238              		.cfi_def_cfa_offset 4
 239              		.cfi_offset 7, -4
 240 0002 00AF     		add	r7, sp, #0
 241              		.cfi_def_cfa_register 7
 210:Generated_Source\PSoC5/game_random_mode_generator.c ****     /* Disable Counter */
 211:Generated_Source\PSoC5/game_random_mode_generator.c ****     #if(!game_random_mode_generator_ControlRegRemoved || game_random_mode_generator_UsingFixedFunct
 212:Generated_Source\PSoC5/game_random_mode_generator.c ****         game_random_mode_generator_CONTROL &= ((uint8)(~game_random_mode_generator_CTRL_ENABLE));  
 242              		.loc 1 212 0
 243 0004 0D4A     		ldr	r2, .L12
 244 0006 0D4B     		ldr	r3, .L12
ARM GAS  C:\Users\Matthew\AppData\Local\Temp\cc8wohvf.s 			page 9


 245 0008 1B78     		ldrb	r3, [r3]
 246 000a DBB2     		uxtb	r3, r3
 247 000c 23F00103 		bic	r3, r3, #1
 248 0010 DBB2     		uxtb	r3, r3
 249 0012 1370     		strb	r3, [r2]
 213:Generated_Source\PSoC5/game_random_mode_generator.c ****     #endif /* (!game_random_mode_generator_ControlRegRemoved || game_random_mode_generator_UsingFix
 214:Generated_Source\PSoC5/game_random_mode_generator.c ****     
 215:Generated_Source\PSoC5/game_random_mode_generator.c ****     /* Globally disable the Fixed Function Block chosen */
 216:Generated_Source\PSoC5/game_random_mode_generator.c ****     #if (game_random_mode_generator_UsingFixedFunction)
 217:Generated_Source\PSoC5/game_random_mode_generator.c ****         game_random_mode_generator_GLOBAL_ENABLE &= ((uint8)(~game_random_mode_generator_BLOCK_EN_M
 250              		.loc 1 217 0
 251 0014 0A4A     		ldr	r2, .L12+4
 252 0016 0A4B     		ldr	r3, .L12+4
 253 0018 1B78     		ldrb	r3, [r3]
 254 001a DBB2     		uxtb	r3, r3
 255 001c 23F00203 		bic	r3, r3, #2
 256 0020 DBB2     		uxtb	r3, r3
 257 0022 1370     		strb	r3, [r2]
 218:Generated_Source\PSoC5/game_random_mode_generator.c ****         game_random_mode_generator_GLOBAL_STBY_ENABLE &= ((uint8)(~game_random_mode_generator_BLOCK
 258              		.loc 1 218 0
 259 0024 074A     		ldr	r2, .L12+8
 260 0026 074B     		ldr	r3, .L12+8
 261 0028 1B78     		ldrb	r3, [r3]
 262 002a DBB2     		uxtb	r3, r3
 263 002c 23F00203 		bic	r3, r3, #2
 264 0030 DBB2     		uxtb	r3, r3
 265 0032 1370     		strb	r3, [r2]
 219:Generated_Source\PSoC5/game_random_mode_generator.c ****     #endif /* (game_random_mode_generator_UsingFixedFunction) */
 220:Generated_Source\PSoC5/game_random_mode_generator.c **** }
 266              		.loc 1 220 0
 267 0034 00BF     		nop
 268 0036 BD46     		mov	sp, r7
 269              		.cfi_def_cfa_register 13
 270              		@ sp needed
 271 0038 80BC     		pop	{r7}
 272              		.cfi_restore 7
 273              		.cfi_def_cfa_offset 0
 274 003a 7047     		bx	lr
 275              	.L13:
 276              		.align	2
 277              	.L12:
 278 003c 0C4F0040 		.word	1073762060
 279 0040 A3430040 		.word	1073759139
 280 0044 B3430040 		.word	1073759155
 281              		.cfi_endproc
 282              	.LFE3:
 283              		.size	game_random_mode_generator_Stop, .-game_random_mode_generator_Stop
 284              		.section	.text.game_random_mode_generator_SetInterruptMode,"ax",%progbits
 285              		.align	2
 286              		.global	game_random_mode_generator_SetInterruptMode
 287              		.thumb
 288              		.thumb_func
 289              		.type	game_random_mode_generator_SetInterruptMode, %function
 290              	game_random_mode_generator_SetInterruptMode:
 291              	.LFB4:
 221:Generated_Source\PSoC5/game_random_mode_generator.c **** 
 222:Generated_Source\PSoC5/game_random_mode_generator.c **** 
ARM GAS  C:\Users\Matthew\AppData\Local\Temp\cc8wohvf.s 			page 10


 223:Generated_Source\PSoC5/game_random_mode_generator.c **** /*******************************************************************************
 224:Generated_Source\PSoC5/game_random_mode_generator.c **** * Function Name: game_random_mode_generator_SetInterruptMode
 225:Generated_Source\PSoC5/game_random_mode_generator.c **** ********************************************************************************
 226:Generated_Source\PSoC5/game_random_mode_generator.c **** * Summary:
 227:Generated_Source\PSoC5/game_random_mode_generator.c **** * Configures which interrupt sources are enabled to generate the final interrupt
 228:Generated_Source\PSoC5/game_random_mode_generator.c **** *
 229:Generated_Source\PSoC5/game_random_mode_generator.c **** * Parameters:  
 230:Generated_Source\PSoC5/game_random_mode_generator.c **** *  InterruptsMask: This parameter is an or'd collection of the status bits
 231:Generated_Source\PSoC5/game_random_mode_generator.c **** *                   which will be allowed to generate the counters interrupt.   
 232:Generated_Source\PSoC5/game_random_mode_generator.c **** *
 233:Generated_Source\PSoC5/game_random_mode_generator.c **** * Return: 
 234:Generated_Source\PSoC5/game_random_mode_generator.c **** *  void
 235:Generated_Source\PSoC5/game_random_mode_generator.c **** *
 236:Generated_Source\PSoC5/game_random_mode_generator.c **** *******************************************************************************/
 237:Generated_Source\PSoC5/game_random_mode_generator.c **** void game_random_mode_generator_SetInterruptMode(uint8 interruptsMask) 
 238:Generated_Source\PSoC5/game_random_mode_generator.c **** {
 292              		.loc 1 238 0
 293              		.cfi_startproc
 294              		@ args = 0, pretend = 0, frame = 8
 295              		@ frame_needed = 1, uses_anonymous_args = 0
 296              		@ link register save eliminated.
 297 0000 80B4     		push	{r7}
 298              		.cfi_def_cfa_offset 4
 299              		.cfi_offset 7, -4
 300 0002 83B0     		sub	sp, sp, #12
 301              		.cfi_def_cfa_offset 16
 302 0004 00AF     		add	r7, sp, #0
 303              		.cfi_def_cfa_register 7
 304 0006 0346     		mov	r3, r0
 305 0008 FB71     		strb	r3, [r7, #7]
 239:Generated_Source\PSoC5/game_random_mode_generator.c ****     game_random_mode_generator_STATUS_MASK = interruptsMask;
 306              		.loc 1 239 0
 307 000a 044A     		ldr	r2, .L15
 308 000c FB79     		ldrb	r3, [r7, #7]
 309 000e 1370     		strb	r3, [r2]
 240:Generated_Source\PSoC5/game_random_mode_generator.c **** }
 310              		.loc 1 240 0
 311 0010 00BF     		nop
 312 0012 0C37     		adds	r7, r7, #12
 313              		.cfi_def_cfa_offset 4
 314 0014 BD46     		mov	sp, r7
 315              		.cfi_def_cfa_register 13
 316              		@ sp needed
 317 0016 80BC     		pop	{r7}
 318              		.cfi_restore 7
 319              		.cfi_def_cfa_offset 0
 320 0018 7047     		bx	lr
 321              	.L16:
 322 001a 00BF     		.align	2
 323              	.L15:
 324 001c 0F4F0040 		.word	1073762063
 325              		.cfi_endproc
 326              	.LFE4:
 327              		.size	game_random_mode_generator_SetInterruptMode, .-game_random_mode_generator_SetInterruptMode
 328              		.section	.text.game_random_mode_generator_ReadStatusRegister,"ax",%progbits
 329              		.align	2
 330              		.global	game_random_mode_generator_ReadStatusRegister
ARM GAS  C:\Users\Matthew\AppData\Local\Temp\cc8wohvf.s 			page 11


 331              		.thumb
 332              		.thumb_func
 333              		.type	game_random_mode_generator_ReadStatusRegister, %function
 334              	game_random_mode_generator_ReadStatusRegister:
 335              	.LFB5:
 241:Generated_Source\PSoC5/game_random_mode_generator.c **** 
 242:Generated_Source\PSoC5/game_random_mode_generator.c **** 
 243:Generated_Source\PSoC5/game_random_mode_generator.c **** /*******************************************************************************
 244:Generated_Source\PSoC5/game_random_mode_generator.c **** * Function Name: game_random_mode_generator_ReadStatusRegister
 245:Generated_Source\PSoC5/game_random_mode_generator.c **** ********************************************************************************
 246:Generated_Source\PSoC5/game_random_mode_generator.c **** * Summary:
 247:Generated_Source\PSoC5/game_random_mode_generator.c **** *   Reads the status register and returns it's state. This function should use
 248:Generated_Source\PSoC5/game_random_mode_generator.c **** *       defined types for the bit-field information as the bits in this
 249:Generated_Source\PSoC5/game_random_mode_generator.c **** *       register may be permuteable.
 250:Generated_Source\PSoC5/game_random_mode_generator.c **** *
 251:Generated_Source\PSoC5/game_random_mode_generator.c **** * Parameters:  
 252:Generated_Source\PSoC5/game_random_mode_generator.c **** *  void
 253:Generated_Source\PSoC5/game_random_mode_generator.c **** *
 254:Generated_Source\PSoC5/game_random_mode_generator.c **** * Return: 
 255:Generated_Source\PSoC5/game_random_mode_generator.c **** *  (uint8) The contents of the status register
 256:Generated_Source\PSoC5/game_random_mode_generator.c **** *
 257:Generated_Source\PSoC5/game_random_mode_generator.c **** * Side Effects:
 258:Generated_Source\PSoC5/game_random_mode_generator.c **** *   Status register bits may be clear on read. 
 259:Generated_Source\PSoC5/game_random_mode_generator.c **** *
 260:Generated_Source\PSoC5/game_random_mode_generator.c **** *******************************************************************************/
 261:Generated_Source\PSoC5/game_random_mode_generator.c **** uint8   game_random_mode_generator_ReadStatusRegister(void) 
 262:Generated_Source\PSoC5/game_random_mode_generator.c **** {
 336              		.loc 1 262 0
 337              		.cfi_startproc
 338              		@ args = 0, pretend = 0, frame = 0
 339              		@ frame_needed = 1, uses_anonymous_args = 0
 340              		@ link register save eliminated.
 341 0000 80B4     		push	{r7}
 342              		.cfi_def_cfa_offset 4
 343              		.cfi_offset 7, -4
 344 0002 00AF     		add	r7, sp, #0
 345              		.cfi_def_cfa_register 7
 263:Generated_Source\PSoC5/game_random_mode_generator.c ****     return game_random_mode_generator_STATUS;
 346              		.loc 1 263 0
 347 0004 034B     		ldr	r3, .L19
 348 0006 1B78     		ldrb	r3, [r3]
 349 0008 DBB2     		uxtb	r3, r3
 264:Generated_Source\PSoC5/game_random_mode_generator.c **** }
 350              		.loc 1 264 0
 351 000a 1846     		mov	r0, r3
 352 000c BD46     		mov	sp, r7
 353              		.cfi_def_cfa_register 13
 354              		@ sp needed
 355 000e 80BC     		pop	{r7}
 356              		.cfi_restore 7
 357              		.cfi_def_cfa_offset 0
 358 0010 7047     		bx	lr
 359              	.L20:
 360 0012 00BF     		.align	2
 361              	.L19:
 362 0014 0F4F0040 		.word	1073762063
 363              		.cfi_endproc
ARM GAS  C:\Users\Matthew\AppData\Local\Temp\cc8wohvf.s 			page 12


 364              	.LFE5:
 365              		.size	game_random_mode_generator_ReadStatusRegister, .-game_random_mode_generator_ReadStatusRegist
 366              		.section	.text.game_random_mode_generator_ReadControlRegister,"ax",%progbits
 367              		.align	2
 368              		.global	game_random_mode_generator_ReadControlRegister
 369              		.thumb
 370              		.thumb_func
 371              		.type	game_random_mode_generator_ReadControlRegister, %function
 372              	game_random_mode_generator_ReadControlRegister:
 373              	.LFB6:
 265:Generated_Source\PSoC5/game_random_mode_generator.c **** 
 266:Generated_Source\PSoC5/game_random_mode_generator.c **** 
 267:Generated_Source\PSoC5/game_random_mode_generator.c **** #if(!game_random_mode_generator_ControlRegRemoved)
 268:Generated_Source\PSoC5/game_random_mode_generator.c **** /*******************************************************************************
 269:Generated_Source\PSoC5/game_random_mode_generator.c **** * Function Name: game_random_mode_generator_ReadControlRegister
 270:Generated_Source\PSoC5/game_random_mode_generator.c **** ********************************************************************************
 271:Generated_Source\PSoC5/game_random_mode_generator.c **** * Summary:
 272:Generated_Source\PSoC5/game_random_mode_generator.c **** *   Reads the control register and returns it's state. This function should use
 273:Generated_Source\PSoC5/game_random_mode_generator.c **** *       defined types for the bit-field information as the bits in this
 274:Generated_Source\PSoC5/game_random_mode_generator.c **** *       register may be permuteable.
 275:Generated_Source\PSoC5/game_random_mode_generator.c **** *
 276:Generated_Source\PSoC5/game_random_mode_generator.c **** * Parameters:  
 277:Generated_Source\PSoC5/game_random_mode_generator.c **** *  void
 278:Generated_Source\PSoC5/game_random_mode_generator.c **** *
 279:Generated_Source\PSoC5/game_random_mode_generator.c **** * Return: 
 280:Generated_Source\PSoC5/game_random_mode_generator.c **** *  (uint8) The contents of the control register
 281:Generated_Source\PSoC5/game_random_mode_generator.c **** *
 282:Generated_Source\PSoC5/game_random_mode_generator.c **** *******************************************************************************/
 283:Generated_Source\PSoC5/game_random_mode_generator.c **** uint8   game_random_mode_generator_ReadControlRegister(void) 
 284:Generated_Source\PSoC5/game_random_mode_generator.c **** {
 374              		.loc 1 284 0
 375              		.cfi_startproc
 376              		@ args = 0, pretend = 0, frame = 0
 377              		@ frame_needed = 1, uses_anonymous_args = 0
 378              		@ link register save eliminated.
 379 0000 80B4     		push	{r7}
 380              		.cfi_def_cfa_offset 4
 381              		.cfi_offset 7, -4
 382 0002 00AF     		add	r7, sp, #0
 383              		.cfi_def_cfa_register 7
 285:Generated_Source\PSoC5/game_random_mode_generator.c ****     return game_random_mode_generator_CONTROL;
 384              		.loc 1 285 0
 385 0004 034B     		ldr	r3, .L23
 386 0006 1B78     		ldrb	r3, [r3]
 387 0008 DBB2     		uxtb	r3, r3
 286:Generated_Source\PSoC5/game_random_mode_generator.c **** }
 388              		.loc 1 286 0
 389 000a 1846     		mov	r0, r3
 390 000c BD46     		mov	sp, r7
 391              		.cfi_def_cfa_register 13
 392              		@ sp needed
 393 000e 80BC     		pop	{r7}
 394              		.cfi_restore 7
 395              		.cfi_def_cfa_offset 0
 396 0010 7047     		bx	lr
 397              	.L24:
 398 0012 00BF     		.align	2
ARM GAS  C:\Users\Matthew\AppData\Local\Temp\cc8wohvf.s 			page 13


 399              	.L23:
 400 0014 0C4F0040 		.word	1073762060
 401              		.cfi_endproc
 402              	.LFE6:
 403              		.size	game_random_mode_generator_ReadControlRegister, .-game_random_mode_generator_ReadControlRegi
 404              		.section	.text.game_random_mode_generator_WriteControlRegister,"ax",%progbits
 405              		.align	2
 406              		.global	game_random_mode_generator_WriteControlRegister
 407              		.thumb
 408              		.thumb_func
 409              		.type	game_random_mode_generator_WriteControlRegister, %function
 410              	game_random_mode_generator_WriteControlRegister:
 411              	.LFB7:
 287:Generated_Source\PSoC5/game_random_mode_generator.c **** 
 288:Generated_Source\PSoC5/game_random_mode_generator.c **** 
 289:Generated_Source\PSoC5/game_random_mode_generator.c **** /*******************************************************************************
 290:Generated_Source\PSoC5/game_random_mode_generator.c **** * Function Name: game_random_mode_generator_WriteControlRegister
 291:Generated_Source\PSoC5/game_random_mode_generator.c **** ********************************************************************************
 292:Generated_Source\PSoC5/game_random_mode_generator.c **** * Summary:
 293:Generated_Source\PSoC5/game_random_mode_generator.c **** *   Sets the bit-field of the control register.  This function should use
 294:Generated_Source\PSoC5/game_random_mode_generator.c **** *       defined types for the bit-field information as the bits in this
 295:Generated_Source\PSoC5/game_random_mode_generator.c **** *       register may be permuteable.
 296:Generated_Source\PSoC5/game_random_mode_generator.c **** *
 297:Generated_Source\PSoC5/game_random_mode_generator.c **** * Parameters:  
 298:Generated_Source\PSoC5/game_random_mode_generator.c **** *  void
 299:Generated_Source\PSoC5/game_random_mode_generator.c **** *
 300:Generated_Source\PSoC5/game_random_mode_generator.c **** * Return: 
 301:Generated_Source\PSoC5/game_random_mode_generator.c **** *  (uint8) The contents of the control register
 302:Generated_Source\PSoC5/game_random_mode_generator.c **** *
 303:Generated_Source\PSoC5/game_random_mode_generator.c **** *******************************************************************************/
 304:Generated_Source\PSoC5/game_random_mode_generator.c **** void    game_random_mode_generator_WriteControlRegister(uint8 control) 
 305:Generated_Source\PSoC5/game_random_mode_generator.c **** {
 412              		.loc 1 305 0
 413              		.cfi_startproc
 414              		@ args = 0, pretend = 0, frame = 8
 415              		@ frame_needed = 1, uses_anonymous_args = 0
 416              		@ link register save eliminated.
 417 0000 80B4     		push	{r7}
 418              		.cfi_def_cfa_offset 4
 419              		.cfi_offset 7, -4
 420 0002 83B0     		sub	sp, sp, #12
 421              		.cfi_def_cfa_offset 16
 422 0004 00AF     		add	r7, sp, #0
 423              		.cfi_def_cfa_register 7
 424 0006 0346     		mov	r3, r0
 425 0008 FB71     		strb	r3, [r7, #7]
 306:Generated_Source\PSoC5/game_random_mode_generator.c ****     game_random_mode_generator_CONTROL = control;
 426              		.loc 1 306 0
 427 000a 044A     		ldr	r2, .L26
 428 000c FB79     		ldrb	r3, [r7, #7]
 429 000e 1370     		strb	r3, [r2]
 307:Generated_Source\PSoC5/game_random_mode_generator.c **** }
 430              		.loc 1 307 0
 431 0010 00BF     		nop
 432 0012 0C37     		adds	r7, r7, #12
 433              		.cfi_def_cfa_offset 4
 434 0014 BD46     		mov	sp, r7
ARM GAS  C:\Users\Matthew\AppData\Local\Temp\cc8wohvf.s 			page 14


 435              		.cfi_def_cfa_register 13
 436              		@ sp needed
 437 0016 80BC     		pop	{r7}
 438              		.cfi_restore 7
 439              		.cfi_def_cfa_offset 0
 440 0018 7047     		bx	lr
 441              	.L27:
 442 001a 00BF     		.align	2
 443              	.L26:
 444 001c 0C4F0040 		.word	1073762060
 445              		.cfi_endproc
 446              	.LFE7:
 447              		.size	game_random_mode_generator_WriteControlRegister, .-game_random_mode_generator_WriteControlRe
 448              		.section	.text.game_random_mode_generator_WriteCounter,"ax",%progbits
 449              		.align	2
 450              		.global	game_random_mode_generator_WriteCounter
 451              		.thumb
 452              		.thumb_func
 453              		.type	game_random_mode_generator_WriteCounter, %function
 454              	game_random_mode_generator_WriteCounter:
 455              	.LFB8:
 308:Generated_Source\PSoC5/game_random_mode_generator.c **** 
 309:Generated_Source\PSoC5/game_random_mode_generator.c **** #endif  /* (!game_random_mode_generator_ControlRegRemoved) */
 310:Generated_Source\PSoC5/game_random_mode_generator.c **** 
 311:Generated_Source\PSoC5/game_random_mode_generator.c **** 
 312:Generated_Source\PSoC5/game_random_mode_generator.c **** #if (!(game_random_mode_generator_UsingFixedFunction && (CY_PSOC5A)))
 313:Generated_Source\PSoC5/game_random_mode_generator.c **** /*******************************************************************************
 314:Generated_Source\PSoC5/game_random_mode_generator.c **** * Function Name: game_random_mode_generator_WriteCounter
 315:Generated_Source\PSoC5/game_random_mode_generator.c **** ********************************************************************************
 316:Generated_Source\PSoC5/game_random_mode_generator.c **** * Summary:
 317:Generated_Source\PSoC5/game_random_mode_generator.c **** *   This funtion is used to set the counter to a specific value
 318:Generated_Source\PSoC5/game_random_mode_generator.c **** *
 319:Generated_Source\PSoC5/game_random_mode_generator.c **** * Parameters:  
 320:Generated_Source\PSoC5/game_random_mode_generator.c **** *  counter:  New counter value. 
 321:Generated_Source\PSoC5/game_random_mode_generator.c **** *
 322:Generated_Source\PSoC5/game_random_mode_generator.c **** * Return: 
 323:Generated_Source\PSoC5/game_random_mode_generator.c **** *  void 
 324:Generated_Source\PSoC5/game_random_mode_generator.c **** *
 325:Generated_Source\PSoC5/game_random_mode_generator.c **** *******************************************************************************/
 326:Generated_Source\PSoC5/game_random_mode_generator.c **** void game_random_mode_generator_WriteCounter(uint16 counter) \
 327:Generated_Source\PSoC5/game_random_mode_generator.c ****                                    
 328:Generated_Source\PSoC5/game_random_mode_generator.c **** {
 456              		.loc 1 328 0
 457              		.cfi_startproc
 458              		@ args = 0, pretend = 0, frame = 8
 459              		@ frame_needed = 1, uses_anonymous_args = 0
 460 0000 80B5     		push	{r7, lr}
 461              		.cfi_def_cfa_offset 8
 462              		.cfi_offset 7, -8
 463              		.cfi_offset 14, -4
 464 0002 82B0     		sub	sp, sp, #8
 465              		.cfi_def_cfa_offset 16
 466 0004 00AF     		add	r7, sp, #0
 467              		.cfi_def_cfa_register 7
 468 0006 0346     		mov	r3, r0
 469 0008 FB80     		strh	r3, [r7, #6]	@ movhi
 329:Generated_Source\PSoC5/game_random_mode_generator.c ****     #if(game_random_mode_generator_UsingFixedFunction)
ARM GAS  C:\Users\Matthew\AppData\Local\Temp\cc8wohvf.s 			page 15


 330:Generated_Source\PSoC5/game_random_mode_generator.c ****         /* assert if block is already enabled */
 331:Generated_Source\PSoC5/game_random_mode_generator.c ****         CYASSERT (0u == (game_random_mode_generator_GLOBAL_ENABLE & game_random_mode_generator_BLOC
 470              		.loc 1 331 0
 471 000a 104B     		ldr	r3, .L30
 472 000c 1B78     		ldrb	r3, [r3]
 473 000e DBB2     		uxtb	r3, r3
 474 0010 03F00203 		and	r3, r3, #2
 475 0014 002B     		cmp	r3, #0
 476 0016 02D0     		beq	.L29
 477              		.loc 1 331 0 is_stmt 0 discriminator 1
 478 0018 0020     		movs	r0, #0
 479 001a FFF7FEFF 		bl	CyHalt
 480              	.L29:
 332:Generated_Source\PSoC5/game_random_mode_generator.c ****         /* If block is disabled, enable it and then write the counter */
 333:Generated_Source\PSoC5/game_random_mode_generator.c ****         game_random_mode_generator_GLOBAL_ENABLE |= game_random_mode_generator_BLOCK_EN_MASK;
 481              		.loc 1 333 0 is_stmt 1
 482 001e 0B4A     		ldr	r2, .L30
 483 0020 0A4B     		ldr	r3, .L30
 484 0022 1B78     		ldrb	r3, [r3]
 485 0024 DBB2     		uxtb	r3, r3
 486 0026 43F00203 		orr	r3, r3, #2
 487 002a DBB2     		uxtb	r3, r3
 488 002c 1370     		strb	r3, [r2]
 334:Generated_Source\PSoC5/game_random_mode_generator.c ****         CY_SET_REG16(game_random_mode_generator_COUNTER_LSB_PTR, (uint16)counter);
 489              		.loc 1 334 0
 490 002e 084A     		ldr	r2, .L30+4
 491 0030 FB88     		ldrh	r3, [r7, #6]	@ movhi
 492 0032 1380     		strh	r3, [r2]	@ movhi
 335:Generated_Source\PSoC5/game_random_mode_generator.c ****         game_random_mode_generator_GLOBAL_ENABLE &= ((uint8)(~game_random_mode_generator_BLOCK_EN_M
 493              		.loc 1 335 0
 494 0034 054A     		ldr	r2, .L30
 495 0036 054B     		ldr	r3, .L30
 496 0038 1B78     		ldrb	r3, [r3]
 497 003a DBB2     		uxtb	r3, r3
 498 003c 23F00203 		bic	r3, r3, #2
 499 0040 DBB2     		uxtb	r3, r3
 500 0042 1370     		strb	r3, [r2]
 336:Generated_Source\PSoC5/game_random_mode_generator.c ****     #else
 337:Generated_Source\PSoC5/game_random_mode_generator.c ****         CY_SET_REG16(game_random_mode_generator_COUNTER_LSB_PTR, counter);
 338:Generated_Source\PSoC5/game_random_mode_generator.c ****     #endif /* (game_random_mode_generator_UsingFixedFunction) */
 339:Generated_Source\PSoC5/game_random_mode_generator.c **** }
 501              		.loc 1 339 0
 502 0044 00BF     		nop
 503 0046 0837     		adds	r7, r7, #8
 504              		.cfi_def_cfa_offset 8
 505 0048 BD46     		mov	sp, r7
 506              		.cfi_def_cfa_register 13
 507              		@ sp needed
 508 004a 80BD     		pop	{r7, pc}
 509              	.L31:
 510              		.align	2
 511              	.L30:
 512 004c A3430040 		.word	1073759139
 513 0050 124F0040 		.word	1073762066
 514              		.cfi_endproc
 515              	.LFE8:
 516              		.size	game_random_mode_generator_WriteCounter, .-game_random_mode_generator_WriteCounter
ARM GAS  C:\Users\Matthew\AppData\Local\Temp\cc8wohvf.s 			page 16


 517              		.section	.text.game_random_mode_generator_ReadCounter,"ax",%progbits
 518              		.align	2
 519              		.global	game_random_mode_generator_ReadCounter
 520              		.thumb
 521              		.thumb_func
 522              		.type	game_random_mode_generator_ReadCounter, %function
 523              	game_random_mode_generator_ReadCounter:
 524              	.LFB9:
 340:Generated_Source\PSoC5/game_random_mode_generator.c **** #endif /* (!(game_random_mode_generator_UsingFixedFunction && (CY_PSOC5A))) */
 341:Generated_Source\PSoC5/game_random_mode_generator.c **** 
 342:Generated_Source\PSoC5/game_random_mode_generator.c **** 
 343:Generated_Source\PSoC5/game_random_mode_generator.c **** /*******************************************************************************
 344:Generated_Source\PSoC5/game_random_mode_generator.c **** * Function Name: game_random_mode_generator_ReadCounter
 345:Generated_Source\PSoC5/game_random_mode_generator.c **** ********************************************************************************
 346:Generated_Source\PSoC5/game_random_mode_generator.c **** * Summary:
 347:Generated_Source\PSoC5/game_random_mode_generator.c **** * Returns the current value of the counter.  It doesn't matter
 348:Generated_Source\PSoC5/game_random_mode_generator.c **** * if the counter is enabled or running.
 349:Generated_Source\PSoC5/game_random_mode_generator.c **** *
 350:Generated_Source\PSoC5/game_random_mode_generator.c **** * Parameters:  
 351:Generated_Source\PSoC5/game_random_mode_generator.c **** *  void:  
 352:Generated_Source\PSoC5/game_random_mode_generator.c **** *
 353:Generated_Source\PSoC5/game_random_mode_generator.c **** * Return: 
 354:Generated_Source\PSoC5/game_random_mode_generator.c **** *  (uint16) The present value of the counter.
 355:Generated_Source\PSoC5/game_random_mode_generator.c **** *
 356:Generated_Source\PSoC5/game_random_mode_generator.c **** *******************************************************************************/
 357:Generated_Source\PSoC5/game_random_mode_generator.c **** uint16 game_random_mode_generator_ReadCounter(void) 
 358:Generated_Source\PSoC5/game_random_mode_generator.c **** {
 525              		.loc 1 358 0
 526              		.cfi_startproc
 527              		@ args = 0, pretend = 0, frame = 0
 528              		@ frame_needed = 1, uses_anonymous_args = 0
 529              		@ link register save eliminated.
 530 0000 80B4     		push	{r7}
 531              		.cfi_def_cfa_offset 4
 532              		.cfi_offset 7, -4
 533 0002 00AF     		add	r7, sp, #0
 534              		.cfi_def_cfa_register 7
 359:Generated_Source\PSoC5/game_random_mode_generator.c ****     /* Force capture by reading Accumulator */
 360:Generated_Source\PSoC5/game_random_mode_generator.c ****     /* Must first do a software capture to be able to read the counter */
 361:Generated_Source\PSoC5/game_random_mode_generator.c ****     /* It is up to the user code to make sure there isn't already captured data in the FIFO */
 362:Generated_Source\PSoC5/game_random_mode_generator.c ****     #if(game_random_mode_generator_UsingFixedFunction)
 363:Generated_Source\PSoC5/game_random_mode_generator.c **** 		(void)CY_GET_REG16(game_random_mode_generator_COUNTER_LSB_PTR);
 535              		.loc 1 363 0
 536 0004 044B     		ldr	r3, .L34
 537 0006 1B88     		ldrh	r3, [r3]	@ movhi
 364:Generated_Source\PSoC5/game_random_mode_generator.c **** 	#else
 365:Generated_Source\PSoC5/game_random_mode_generator.c **** 		(void)CY_GET_REG8(game_random_mode_generator_COUNTER_LSB_PTR_8BIT);
 366:Generated_Source\PSoC5/game_random_mode_generator.c **** 	#endif/* (game_random_mode_generator_UsingFixedFunction) */
 367:Generated_Source\PSoC5/game_random_mode_generator.c ****     
 368:Generated_Source\PSoC5/game_random_mode_generator.c ****     /* Read the data from the FIFO (or capture register for Fixed Function)*/
 369:Generated_Source\PSoC5/game_random_mode_generator.c ****     #if(game_random_mode_generator_UsingFixedFunction)
 370:Generated_Source\PSoC5/game_random_mode_generator.c ****         return ((uint16)CY_GET_REG16(game_random_mode_generator_STATICCOUNT_LSB_PTR));
 538              		.loc 1 370 0
 539 0008 044B     		ldr	r3, .L34+4
 540 000a 1B88     		ldrh	r3, [r3]	@ movhi
 541 000c 9BB2     		uxth	r3, r3
 371:Generated_Source\PSoC5/game_random_mode_generator.c ****     #else
ARM GAS  C:\Users\Matthew\AppData\Local\Temp\cc8wohvf.s 			page 17


 372:Generated_Source\PSoC5/game_random_mode_generator.c ****         return (CY_GET_REG16(game_random_mode_generator_STATICCOUNT_LSB_PTR));
 373:Generated_Source\PSoC5/game_random_mode_generator.c ****     #endif /* (game_random_mode_generator_UsingFixedFunction) */
 374:Generated_Source\PSoC5/game_random_mode_generator.c **** }
 542              		.loc 1 374 0
 543 000e 1846     		mov	r0, r3
 544 0010 BD46     		mov	sp, r7
 545              		.cfi_def_cfa_register 13
 546              		@ sp needed
 547 0012 80BC     		pop	{r7}
 548              		.cfi_restore 7
 549              		.cfi_def_cfa_offset 0
 550 0014 7047     		bx	lr
 551              	.L35:
 552 0016 00BF     		.align	2
 553              	.L34:
 554 0018 124F0040 		.word	1073762066
 555 001c 144F0040 		.word	1073762068
 556              		.cfi_endproc
 557              	.LFE9:
 558              		.size	game_random_mode_generator_ReadCounter, .-game_random_mode_generator_ReadCounter
 559              		.section	.text.game_random_mode_generator_ReadCapture,"ax",%progbits
 560              		.align	2
 561              		.global	game_random_mode_generator_ReadCapture
 562              		.thumb
 563              		.thumb_func
 564              		.type	game_random_mode_generator_ReadCapture, %function
 565              	game_random_mode_generator_ReadCapture:
 566              	.LFB10:
 375:Generated_Source\PSoC5/game_random_mode_generator.c **** 
 376:Generated_Source\PSoC5/game_random_mode_generator.c **** 
 377:Generated_Source\PSoC5/game_random_mode_generator.c **** /*******************************************************************************
 378:Generated_Source\PSoC5/game_random_mode_generator.c **** * Function Name: game_random_mode_generator_ReadCapture
 379:Generated_Source\PSoC5/game_random_mode_generator.c **** ********************************************************************************
 380:Generated_Source\PSoC5/game_random_mode_generator.c **** * Summary:
 381:Generated_Source\PSoC5/game_random_mode_generator.c **** *   This function returns the last value captured.
 382:Generated_Source\PSoC5/game_random_mode_generator.c **** *
 383:Generated_Source\PSoC5/game_random_mode_generator.c **** * Parameters:  
 384:Generated_Source\PSoC5/game_random_mode_generator.c **** *  void
 385:Generated_Source\PSoC5/game_random_mode_generator.c **** *
 386:Generated_Source\PSoC5/game_random_mode_generator.c **** * Return: 
 387:Generated_Source\PSoC5/game_random_mode_generator.c **** *  (uint16) Present Capture value.
 388:Generated_Source\PSoC5/game_random_mode_generator.c **** *
 389:Generated_Source\PSoC5/game_random_mode_generator.c **** *******************************************************************************/
 390:Generated_Source\PSoC5/game_random_mode_generator.c **** uint16 game_random_mode_generator_ReadCapture(void) 
 391:Generated_Source\PSoC5/game_random_mode_generator.c **** {
 567              		.loc 1 391 0
 568              		.cfi_startproc
 569              		@ args = 0, pretend = 0, frame = 0
 570              		@ frame_needed = 1, uses_anonymous_args = 0
 571              		@ link register save eliminated.
 572 0000 80B4     		push	{r7}
 573              		.cfi_def_cfa_offset 4
 574              		.cfi_offset 7, -4
 575 0002 00AF     		add	r7, sp, #0
 576              		.cfi_def_cfa_register 7
 392:Generated_Source\PSoC5/game_random_mode_generator.c ****     #if(game_random_mode_generator_UsingFixedFunction)
 393:Generated_Source\PSoC5/game_random_mode_generator.c ****         return ((uint16)CY_GET_REG16(game_random_mode_generator_STATICCOUNT_LSB_PTR));
ARM GAS  C:\Users\Matthew\AppData\Local\Temp\cc8wohvf.s 			page 18


 577              		.loc 1 393 0
 578 0004 034B     		ldr	r3, .L38
 579 0006 1B88     		ldrh	r3, [r3]	@ movhi
 580 0008 9BB2     		uxth	r3, r3
 394:Generated_Source\PSoC5/game_random_mode_generator.c ****     #else
 395:Generated_Source\PSoC5/game_random_mode_generator.c ****         return (CY_GET_REG16(game_random_mode_generator_STATICCOUNT_LSB_PTR));
 396:Generated_Source\PSoC5/game_random_mode_generator.c ****     #endif /* (game_random_mode_generator_UsingFixedFunction) */
 397:Generated_Source\PSoC5/game_random_mode_generator.c **** }
 581              		.loc 1 397 0
 582 000a 1846     		mov	r0, r3
 583 000c BD46     		mov	sp, r7
 584              		.cfi_def_cfa_register 13
 585              		@ sp needed
 586 000e 80BC     		pop	{r7}
 587              		.cfi_restore 7
 588              		.cfi_def_cfa_offset 0
 589 0010 7047     		bx	lr
 590              	.L39:
 591 0012 00BF     		.align	2
 592              	.L38:
 593 0014 144F0040 		.word	1073762068
 594              		.cfi_endproc
 595              	.LFE10:
 596              		.size	game_random_mode_generator_ReadCapture, .-game_random_mode_generator_ReadCapture
 597              		.section	.text.game_random_mode_generator_WritePeriod,"ax",%progbits
 598              		.align	2
 599              		.global	game_random_mode_generator_WritePeriod
 600              		.thumb
 601              		.thumb_func
 602              		.type	game_random_mode_generator_WritePeriod, %function
 603              	game_random_mode_generator_WritePeriod:
 604              	.LFB11:
 398:Generated_Source\PSoC5/game_random_mode_generator.c **** 
 399:Generated_Source\PSoC5/game_random_mode_generator.c **** 
 400:Generated_Source\PSoC5/game_random_mode_generator.c **** /*******************************************************************************
 401:Generated_Source\PSoC5/game_random_mode_generator.c **** * Function Name: game_random_mode_generator_WritePeriod
 402:Generated_Source\PSoC5/game_random_mode_generator.c **** ********************************************************************************
 403:Generated_Source\PSoC5/game_random_mode_generator.c **** * Summary:
 404:Generated_Source\PSoC5/game_random_mode_generator.c **** * Changes the period of the counter.  The new period 
 405:Generated_Source\PSoC5/game_random_mode_generator.c **** * will be loaded the next time terminal count is detected.
 406:Generated_Source\PSoC5/game_random_mode_generator.c **** *
 407:Generated_Source\PSoC5/game_random_mode_generator.c **** * Parameters:  
 408:Generated_Source\PSoC5/game_random_mode_generator.c **** *  period: (uint16) A value of 0 will result in
 409:Generated_Source\PSoC5/game_random_mode_generator.c **** *         the counter remaining at zero.  
 410:Generated_Source\PSoC5/game_random_mode_generator.c **** *
 411:Generated_Source\PSoC5/game_random_mode_generator.c **** * Return: 
 412:Generated_Source\PSoC5/game_random_mode_generator.c **** *  void
 413:Generated_Source\PSoC5/game_random_mode_generator.c **** *
 414:Generated_Source\PSoC5/game_random_mode_generator.c **** *******************************************************************************/
 415:Generated_Source\PSoC5/game_random_mode_generator.c **** void game_random_mode_generator_WritePeriod(uint16 period) 
 416:Generated_Source\PSoC5/game_random_mode_generator.c **** {
 605              		.loc 1 416 0
 606              		.cfi_startproc
 607              		@ args = 0, pretend = 0, frame = 8
 608              		@ frame_needed = 1, uses_anonymous_args = 0
 609              		@ link register save eliminated.
 610 0000 80B4     		push	{r7}
ARM GAS  C:\Users\Matthew\AppData\Local\Temp\cc8wohvf.s 			page 19


 611              		.cfi_def_cfa_offset 4
 612              		.cfi_offset 7, -4
 613 0002 83B0     		sub	sp, sp, #12
 614              		.cfi_def_cfa_offset 16
 615 0004 00AF     		add	r7, sp, #0
 616              		.cfi_def_cfa_register 7
 617 0006 0346     		mov	r3, r0
 618 0008 FB80     		strh	r3, [r7, #6]	@ movhi
 417:Generated_Source\PSoC5/game_random_mode_generator.c ****     #if(game_random_mode_generator_UsingFixedFunction)
 418:Generated_Source\PSoC5/game_random_mode_generator.c ****         CY_SET_REG16(game_random_mode_generator_PERIOD_LSB_PTR,(uint16)period);
 619              		.loc 1 418 0
 620 000a 044A     		ldr	r2, .L41
 621 000c FB88     		ldrh	r3, [r7, #6]	@ movhi
 622 000e 1380     		strh	r3, [r2]	@ movhi
 419:Generated_Source\PSoC5/game_random_mode_generator.c ****     #else
 420:Generated_Source\PSoC5/game_random_mode_generator.c ****         CY_SET_REG16(game_random_mode_generator_PERIOD_LSB_PTR, period);
 421:Generated_Source\PSoC5/game_random_mode_generator.c ****     #endif /* (game_random_mode_generator_UsingFixedFunction) */
 422:Generated_Source\PSoC5/game_random_mode_generator.c **** }
 623              		.loc 1 422 0
 624 0010 00BF     		nop
 625 0012 0C37     		adds	r7, r7, #12
 626              		.cfi_def_cfa_offset 4
 627 0014 BD46     		mov	sp, r7
 628              		.cfi_def_cfa_register 13
 629              		@ sp needed
 630 0016 80BC     		pop	{r7}
 631              		.cfi_restore 7
 632              		.cfi_def_cfa_offset 0
 633 0018 7047     		bx	lr
 634              	.L42:
 635 001a 00BF     		.align	2
 636              	.L41:
 637 001c 104F0040 		.word	1073762064
 638              		.cfi_endproc
 639              	.LFE11:
 640              		.size	game_random_mode_generator_WritePeriod, .-game_random_mode_generator_WritePeriod
 641              		.section	.text.game_random_mode_generator_ReadPeriod,"ax",%progbits
 642              		.align	2
 643              		.global	game_random_mode_generator_ReadPeriod
 644              		.thumb
 645              		.thumb_func
 646              		.type	game_random_mode_generator_ReadPeriod, %function
 647              	game_random_mode_generator_ReadPeriod:
 648              	.LFB12:
 423:Generated_Source\PSoC5/game_random_mode_generator.c **** 
 424:Generated_Source\PSoC5/game_random_mode_generator.c **** 
 425:Generated_Source\PSoC5/game_random_mode_generator.c **** /*******************************************************************************
 426:Generated_Source\PSoC5/game_random_mode_generator.c **** * Function Name: game_random_mode_generator_ReadPeriod
 427:Generated_Source\PSoC5/game_random_mode_generator.c **** ********************************************************************************
 428:Generated_Source\PSoC5/game_random_mode_generator.c **** * Summary:
 429:Generated_Source\PSoC5/game_random_mode_generator.c **** * Reads the current period value without affecting counter operation.
 430:Generated_Source\PSoC5/game_random_mode_generator.c **** *
 431:Generated_Source\PSoC5/game_random_mode_generator.c **** * Parameters:  
 432:Generated_Source\PSoC5/game_random_mode_generator.c **** *  void:  
 433:Generated_Source\PSoC5/game_random_mode_generator.c **** *
 434:Generated_Source\PSoC5/game_random_mode_generator.c **** * Return: 
 435:Generated_Source\PSoC5/game_random_mode_generator.c **** *  (uint16) Present period value.
ARM GAS  C:\Users\Matthew\AppData\Local\Temp\cc8wohvf.s 			page 20


 436:Generated_Source\PSoC5/game_random_mode_generator.c **** *
 437:Generated_Source\PSoC5/game_random_mode_generator.c **** *******************************************************************************/
 438:Generated_Source\PSoC5/game_random_mode_generator.c **** uint16 game_random_mode_generator_ReadPeriod(void) 
 439:Generated_Source\PSoC5/game_random_mode_generator.c **** {
 649              		.loc 1 439 0
 650              		.cfi_startproc
 651              		@ args = 0, pretend = 0, frame = 0
 652              		@ frame_needed = 1, uses_anonymous_args = 0
 653              		@ link register save eliminated.
 654 0000 80B4     		push	{r7}
 655              		.cfi_def_cfa_offset 4
 656              		.cfi_offset 7, -4
 657 0002 00AF     		add	r7, sp, #0
 658              		.cfi_def_cfa_register 7
 440:Generated_Source\PSoC5/game_random_mode_generator.c ****     #if(game_random_mode_generator_UsingFixedFunction)
 441:Generated_Source\PSoC5/game_random_mode_generator.c ****         return ((uint16)CY_GET_REG16(game_random_mode_generator_PERIOD_LSB_PTR));
 659              		.loc 1 441 0
 660 0004 034B     		ldr	r3, .L45
 661 0006 1B88     		ldrh	r3, [r3]	@ movhi
 662 0008 9BB2     		uxth	r3, r3
 442:Generated_Source\PSoC5/game_random_mode_generator.c ****     #else
 443:Generated_Source\PSoC5/game_random_mode_generator.c ****         return (CY_GET_REG16(game_random_mode_generator_PERIOD_LSB_PTR));
 444:Generated_Source\PSoC5/game_random_mode_generator.c ****     #endif /* (game_random_mode_generator_UsingFixedFunction) */
 445:Generated_Source\PSoC5/game_random_mode_generator.c **** }
 663              		.loc 1 445 0
 664 000a 1846     		mov	r0, r3
 665 000c BD46     		mov	sp, r7
 666              		.cfi_def_cfa_register 13
 667              		@ sp needed
 668 000e 80BC     		pop	{r7}
 669              		.cfi_restore 7
 670              		.cfi_def_cfa_offset 0
 671 0010 7047     		bx	lr
 672              	.L46:
 673 0012 00BF     		.align	2
 674              	.L45:
 675 0014 104F0040 		.word	1073762064
 676              		.cfi_endproc
 677              	.LFE12:
 678              		.size	game_random_mode_generator_ReadPeriod, .-game_random_mode_generator_ReadPeriod
 679              		.text
 680              	.Letext0:
 681              		.file 2 "Generated_Source\\PSoC5\\cytypes.h"