ARM GAS  C:\Users\Matthew\AppData\Local\Temp\cc8zrVxn.s 			page 1


   1              		.syntax unified
   2              		.cpu cortex-m3
   3              		.fpu softvfp
   4              		.eabi_attribute 20, 1
   5              		.eabi_attribute 21, 1
   6              		.eabi_attribute 23, 3
   7              		.eabi_attribute 24, 1
   8              		.eabi_attribute 25, 1
   9              		.eabi_attribute 26, 1
  10              		.eabi_attribute 30, 6
  11              		.eabi_attribute 34, 1
  12              		.eabi_attribute 18, 4
  13              		.thumb
  14              		.syntax unified
  15              		.file	"game.c"
  16              		.text
  17              	.Ltext0:
  18              		.cfi_sections	.debug_frame
  19              		.global	last_game_update
  20              		.bss
  21              		.align	2
  22              		.type	last_game_update, %object
  23              		.size	last_game_update, 4
  24              	last_game_update:
  25 0000 00000000 		.space	4
  26              		.global	num_ticks
  27              		.align	2
  28              		.type	num_ticks, %object
  29              		.size	num_ticks, 4
  30              	num_ticks:
  31 0004 00000000 		.space	4
  32              		.comm	test_group,20,4
  33              		.global	num_note_groups
  34              		.section	.rodata
  35              		.type	num_note_groups, %object
  36              		.size	num_note_groups, 1
  37              	num_note_groups:
  38 0000 03       		.byte	3
  39              		.comm	note_groups,60,4
  40              		.section	.text.game_init,"ax",%progbits
  41              		.align	2
  42              		.global	game_init
  43              		.thumb
  44              		.thumb_func
  45              		.type	game_init, %function
  46              	game_init:
  47              	.LFB0:
  48              		.file 1 "game.c"
   1:game.c        **** /* ========================================
   2:game.c        ****  *
   3:game.c        ****  * Copyright YOUR COMPANY, THE YEAR
   4:game.c        ****  * All Rights Reserved
   5:game.c        ****  * UNPUBLISHED, LICENSED SOFTWARE.
   6:game.c        ****  *
   7:game.c        ****  * CONFIDENTIAL AND PROPRIETARY INFORMATION
   8:game.c        ****  * WHICH IS THE PROPERTY OF your company.
   9:game.c        ****  *
ARM GAS  C:\Users\Matthew\AppData\Local\Temp\cc8zrVxn.s 			page 2


  10:game.c        ****  * ========================================
  11:game.c        **** */
  12:game.c        **** #include "game.h"
  13:game.c        **** 
  14:game.c        **** uint32 last_game_update = 0;
  15:game.c        **** uint32 num_ticks = 0;
  16:game.c        **** NOTE_GROUP test_group;
  17:game.c        **** 
  18:game.c        **** const uint8 num_note_groups = 3;
  19:game.c        **** NOTE_GROUP note_groups[3];
  20:game.c        **** 
  21:game.c        **** void game_init() {
  49              		.loc 1 21 0
  50              		.cfi_startproc
  51              		@ args = 0, pretend = 0, frame = 8
  52              		@ frame_needed = 1, uses_anonymous_args = 0
  53 0000 B0B5     		push	{r4, r5, r7, lr}
  54              		.cfi_def_cfa_offset 16
  55              		.cfi_offset 4, -16
  56              		.cfi_offset 5, -12
  57              		.cfi_offset 7, -8
  58              		.cfi_offset 14, -4
  59 0002 82B0     		sub	sp, sp, #8
  60              		.cfi_def_cfa_offset 24
  61 0004 00AF     		add	r7, sp, #0
  62              		.cfi_def_cfa_register 7
  63              	.LBB2:
  22:game.c        ****     
  23:game.c        ****     for(int idx = 0; idx < num_note_groups; idx++) {
  64              		.loc 1 23 0
  65 0006 0023     		movs	r3, #0
  66 0008 7B60     		str	r3, [r7, #4]
  67 000a 0CE0     		b	.L2
  68              	.L3:
  24:game.c        ****         note_groups[idx].active = FALSE;
  69              		.loc 1 24 0 discriminator 3
  70 000c 2249     		ldr	r1, .L4
  71 000e 7A68     		ldr	r2, [r7, #4]
  72 0010 1346     		mov	r3, r2
  73 0012 9B00     		lsls	r3, r3, #2
  74 0014 1344     		add	r3, r3, r2
  75 0016 9B00     		lsls	r3, r3, #2
  76 0018 0B44     		add	r3, r3, r1
  77 001a 0333     		adds	r3, r3, #3
  78 001c 0022     		movs	r2, #0
  79 001e 1A70     		strb	r2, [r3]
  23:game.c        ****         note_groups[idx].active = FALSE;
  80              		.loc 1 23 0 discriminator 3
  81 0020 7B68     		ldr	r3, [r7, #4]
  82 0022 0133     		adds	r3, r3, #1
  83 0024 7B60     		str	r3, [r7, #4]
  84              	.L2:
  23:game.c        ****         note_groups[idx].active = FALSE;
  85              		.loc 1 23 0 is_stmt 0 discriminator 1
  86 0026 0323     		movs	r3, #3
  87 0028 1A46     		mov	r2, r3
  88 002a 7B68     		ldr	r3, [r7, #4]
ARM GAS  C:\Users\Matthew\AppData\Local\Temp\cc8zrVxn.s 			page 3


  89 002c 9A42     		cmp	r2, r3
  90 002e EDDC     		bgt	.L3
  91              	.LBE2:
  25:game.c        ****         
  26:game.c        ****     }
  27:game.c        ****     
  28:game.c        ****     test_group.num_notes = 3;
  92              		.loc 1 28 0 is_stmt 1
  93 0030 1A4B     		ldr	r3, .L4+4
  94 0032 0322     		movs	r2, #3
  95 0034 1A70     		strb	r2, [r3]
  29:game.c        ****     test_group.center_hole = 4; // 0 indexed
  96              		.loc 1 29 0
  97 0036 194B     		ldr	r3, .L4+4
  98 0038 0422     		movs	r2, #4
  99 003a 5A70     		strb	r2, [r3, #1]
  30:game.c        ****     test_group.mode = SUCKED_NOTES;
 100              		.loc 1 30 0
 101 003c 174B     		ldr	r3, .L4+4
 102 003e 0122     		movs	r2, #1
 103 0040 9A70     		strb	r2, [r3, #2]
  31:game.c        ****     test_group.active = TRUE;
 104              		.loc 1 31 0
 105 0042 164B     		ldr	r3, .L4+4
 106 0044 0122     		movs	r2, #1
 107 0046 DA70     		strb	r2, [r3, #3]
  32:game.c        ****     test_group.pos = (Position){.x = get_x(test_group.center_hole), .y = 0};
 108              		.loc 1 32 0
 109 0048 144B     		ldr	r3, .L4+4
 110 004a 5B78     		ldrb	r3, [r3, #1]	@ zero_extendqisi2
 111 004c 1846     		mov	r0, r3
 112 004e FFF7FEFF 		bl	get_x
 113 0052 0346     		mov	r3, r0
 114 0054 1A46     		mov	r2, r3
 115 0056 114B     		ldr	r3, .L4+4
 116 0058 1A71     		strb	r2, [r3, #4]
 117 005a 104B     		ldr	r3, .L4+4
 118 005c 0022     		movs	r2, #0
 119 005e 9A60     		str	r2, [r3, #8]
  33:game.c        ****     test_group.speed = 2;
 120              		.loc 1 33 0
 121 0060 0E4B     		ldr	r3, .L4+4
 122 0062 0222     		movs	r2, #2
 123 0064 1A73     		strb	r2, [r3, #12]
  34:game.c        ****     test_group.holes[0] = 3;
 124              		.loc 1 34 0
 125 0066 0D4B     		ldr	r3, .L4+4
 126 0068 0322     		movs	r2, #3
 127 006a 5A73     		strb	r2, [r3, #13]
  35:game.c        ****     test_group.holes[1] = 4;
 128              		.loc 1 35 0
 129 006c 0B4B     		ldr	r3, .L4+4
 130 006e 0422     		movs	r2, #4
 131 0070 9A73     		strb	r2, [r3, #14]
  36:game.c        ****     test_group.holes[2] = 5;
 132              		.loc 1 36 0
 133 0072 0A4B     		ldr	r3, .L4+4
ARM GAS  C:\Users\Matthew\AppData\Local\Temp\cc8zrVxn.s 			page 4


 134 0074 0522     		movs	r2, #5
 135 0076 DA73     		strb	r2, [r3, #15]
  37:game.c        ****     test_group.length = 25;
 136              		.loc 1 37 0
 137 0078 084B     		ldr	r3, .L4+4
 138 007a 1922     		movs	r2, #25
 139 007c DA74     		strb	r2, [r3, #19]
  38:game.c        ****     note_groups[0] = test_group;
 140              		.loc 1 38 0
 141 007e 064A     		ldr	r2, .L4
 142 0080 064B     		ldr	r3, .L4+4
 143 0082 1446     		mov	r4, r2
 144 0084 1D46     		mov	r5, r3
 145 0086 0FCD     		ldmia	r5!, {r0, r1, r2, r3}
 146 0088 0FC4     		stmia	r4!, {r0, r1, r2, r3}
 147 008a 2B68     		ldr	r3, [r5]
 148 008c 2360     		str	r3, [r4]
  39:game.c        **** }
 149              		.loc 1 39 0
 150 008e 00BF     		nop
 151 0090 0837     		adds	r7, r7, #8
 152              		.cfi_def_cfa_offset 16
 153 0092 BD46     		mov	sp, r7
 154              		.cfi_def_cfa_register 13
 155              		@ sp needed
 156 0094 B0BD     		pop	{r4, r5, r7, pc}
 157              	.L5:
 158 0096 00BF     		.align	2
 159              	.L4:
 160 0098 00000000 		.word	note_groups
 161 009c 00000000 		.word	test_group
 162              		.cfi_endproc
 163              	.LFE0:
 164              		.size	game_init, .-game_init
 165              		.section	.text.get_x,"ax",%progbits
 166              		.align	2
 167              		.global	get_x
 168              		.thumb
 169              		.thumb_func
 170              		.type	get_x, %function
 171              	get_x:
 172              	.LFB1:
  40:game.c        **** 
  41:game.c        **** uint8 get_x(uint8 hole) {
 173              		.loc 1 41 0
 174              		.cfi_startproc
 175              		@ args = 0, pretend = 0, frame = 8
 176              		@ frame_needed = 1, uses_anonymous_args = 0
 177              		@ link register save eliminated.
 178 0000 80B4     		push	{r7}
 179              		.cfi_def_cfa_offset 4
 180              		.cfi_offset 7, -4
 181 0002 83B0     		sub	sp, sp, #12
 182              		.cfi_def_cfa_offset 16
 183 0004 00AF     		add	r7, sp, #0
 184              		.cfi_def_cfa_register 7
 185 0006 0346     		mov	r3, r0
ARM GAS  C:\Users\Matthew\AppData\Local\Temp\cc8zrVxn.s 			page 5


 186 0008 FB71     		strb	r3, [r7, #7]
  42:game.c        ****     if(hole > 9) {
 187              		.loc 1 42 0
 188 000a FB79     		ldrb	r3, [r7, #7]	@ zero_extendqisi2
 189 000c 092B     		cmp	r3, #9
 190 000e 01D9     		bls	.L7
  43:game.c        ****         return 255;
 191              		.loc 1 43 0
 192 0010 FF23     		movs	r3, #255
 193 0012 07E0     		b	.L8
 194              	.L7:
  44:game.c        ****     } else {
  45:game.c        ****         return NOTE_LINE_START_OFFSET + 
 195              		.loc 1 45 0
 196 0014 FB79     		ldrb	r3, [r7, #7]
 197 0016 1A46     		mov	r2, r3
 198 0018 9200     		lsls	r2, r2, #2
 199 001a 1344     		add	r3, r3, r2
 200 001c 5B00     		lsls	r3, r3, #1
 201 001e DBB2     		uxtb	r3, r3
 202 0020 0333     		adds	r3, r3, #3
 203 0022 DBB2     		uxtb	r3, r3
 204              	.L8:
  46:game.c        ****                 (NOTE_LINE_SPACING * hole);
  47:game.c        ****     }
  48:game.c        **** }
 205              		.loc 1 48 0
 206 0024 1846     		mov	r0, r3
 207 0026 0C37     		adds	r7, r7, #12
 208              		.cfi_def_cfa_offset 4
 209 0028 BD46     		mov	sp, r7
 210              		.cfi_def_cfa_register 13
 211              		@ sp needed
 212 002a 80BC     		pop	{r7}
 213              		.cfi_restore 7
 214              		.cfi_def_cfa_offset 0
 215 002c 7047     		bx	lr
 216              		.cfi_endproc
 217              	.LFE1:
 218              		.size	get_x, .-get_x
 219 002e 00BF     		.section	.text.game_tick,"ax",%progbits
 220              		.align	2
 221              		.global	game_tick
 222              		.thumb
 223              		.thumb_func
 224              		.type	game_tick, %function
 225              	game_tick:
 226              	.LFB2:
  49:game.c        **** 
  50:game.c        **** void game_tick(Harmonica* h) {
 227              		.loc 1 50 0
 228              		.cfi_startproc
 229              		@ args = 0, pretend = 0, frame = 8
 230              		@ frame_needed = 1, uses_anonymous_args = 0
 231 0000 80B5     		push	{r7, lr}
 232              		.cfi_def_cfa_offset 8
 233              		.cfi_offset 7, -8
ARM GAS  C:\Users\Matthew\AppData\Local\Temp\cc8zrVxn.s 			page 6


 234              		.cfi_offset 14, -4
 235 0002 82B0     		sub	sp, sp, #8
 236              		.cfi_def_cfa_offset 16
 237 0004 00AF     		add	r7, sp, #0
 238              		.cfi_def_cfa_register 7
 239 0006 7860     		str	r0, [r7, #4]
  51:game.c        ****     if(ms_counter_ReadCounter() - last_game_update > GAME_UPDATE_PERIOD_MS) {
 240              		.loc 1 51 0
 241 0008 FFF7FEFF 		bl	ms_counter_ReadCounter
 242 000c 0246     		mov	r2, r0
 243 000e 174B     		ldr	r3, .L12
 244 0010 1B68     		ldr	r3, [r3]
 245 0012 D31A     		subs	r3, r2, r3
 246 0014 642B     		cmp	r3, #100
 247 0016 25D9     		bls	.L11
  52:game.c        ****         
  53:game.c        ****         clear_whole_display();
 248              		.loc 1 53 0
 249 0018 FFF7FEFF 		bl	clear_whole_display
  54:game.c        ****         CyDelay(1);
 250              		.loc 1 54 0
 251 001c 0120     		movs	r0, #1
 252 001e FFF7FEFF 		bl	CyDelay
  55:game.c        ****         draw_note_lines(0xFFFF);
 253              		.loc 1 55 0
 254 0022 4FF6FF70 		movw	r0, #65535
 255 0026 FFF7FEFF 		bl	draw_note_lines
  56:game.c        ****         CyDelay(1);
 256              		.loc 1 56 0
 257 002a 0120     		movs	r0, #1
 258 002c FFF7FEFF 		bl	CyDelay
  57:game.c        ****         draw_play_line(0xFFFF);
 259              		.loc 1 57 0
 260 0030 4FF6FF70 		movw	r0, #65535
 261 0034 FFF7FEFF 		bl	draw_play_line
  58:game.c        ****         CyDelay(1);
 262              		.loc 1 58 0
 263 0038 0120     		movs	r0, #1
 264 003a FFF7FEFF 		bl	CyDelay
  59:game.c        ****         handle_move_note_groups(note_groups);
 265              		.loc 1 59 0
 266 003e 0C48     		ldr	r0, .L12+4
 267 0040 FFF7FEFF 		bl	handle_move_note_groups
  60:game.c        ****         handle_note_group_spawn(note_groups);
 268              		.loc 1 60 0
 269 0044 0A48     		ldr	r0, .L12+4
 270 0046 FFF7FEFF 		bl	handle_note_group_spawn
  61:game.c        ****         draw_all_note_groups(h);
 271              		.loc 1 61 0
 272 004a 7868     		ldr	r0, [r7, #4]
 273 004c FFF7FEFF 		bl	draw_all_note_groups
  62:game.c        ****         num_ticks++;
 274              		.loc 1 62 0
 275 0050 084B     		ldr	r3, .L12+8
 276 0052 1B68     		ldr	r3, [r3]
 277 0054 0133     		adds	r3, r3, #1
 278 0056 074A     		ldr	r2, .L12+8
ARM GAS  C:\Users\Matthew\AppData\Local\Temp\cc8zrVxn.s 			page 7


 279 0058 1360     		str	r3, [r2]
  63:game.c        ****         last_game_update = ms_counter_ReadCounter();
 280              		.loc 1 63 0
 281 005a FFF7FEFF 		bl	ms_counter_ReadCounter
 282 005e 0246     		mov	r2, r0
 283 0060 024B     		ldr	r3, .L12
 284 0062 1A60     		str	r2, [r3]
 285              	.L11:
  64:game.c        ****     }
  65:game.c        **** }
 286              		.loc 1 65 0
 287 0064 00BF     		nop
 288 0066 0837     		adds	r7, r7, #8
 289              		.cfi_def_cfa_offset 8
 290 0068 BD46     		mov	sp, r7
 291              		.cfi_def_cfa_register 13
 292              		@ sp needed
 293 006a 80BD     		pop	{r7, pc}
 294              	.L13:
 295              		.align	2
 296              	.L12:
 297 006c 00000000 		.word	last_game_update
 298 0070 00000000 		.word	note_groups
 299 0074 00000000 		.word	num_ticks
 300              		.cfi_endproc
 301              	.LFE2:
 302              		.size	game_tick, .-game_tick
 303              		.section	.text.draw_note_lines,"ax",%progbits
 304              		.align	2
 305              		.global	draw_note_lines
 306              		.thumb
 307              		.thumb_func
 308              		.type	draw_note_lines, %function
 309              	draw_note_lines:
 310              	.LFB3:
  66:game.c        **** 
  67:game.c        **** void draw_note_lines(uint16_t color) {
 311              		.loc 1 67 0
 312              		.cfi_startproc
 313              		@ args = 0, pretend = 0, frame = 24
 314              		@ frame_needed = 1, uses_anonymous_args = 0
 315 0000 80B5     		push	{r7, lr}
 316              		.cfi_def_cfa_offset 8
 317              		.cfi_offset 7, -8
 318              		.cfi_offset 14, -4
 319 0002 88B0     		sub	sp, sp, #32
 320              		.cfi_def_cfa_offset 40
 321 0004 02AF     		add	r7, sp, #8
 322              		.cfi_def_cfa 7, 32
 323 0006 0346     		mov	r3, r0
 324 0008 FB80     		strh	r3, [r7, #6]	@ movhi
  68:game.c        ****     uint8 start_x = NOTE_LINE_START_OFFSET;
 325              		.loc 1 68 0
 326 000a 0323     		movs	r3, #3
 327 000c FB75     		strb	r3, [r7, #23]
  69:game.c        ****     uint8 x_delta = NOTE_LINE_SPACING;
 328              		.loc 1 69 0
ARM GAS  C:\Users\Matthew\AppData\Local\Temp\cc8zrVxn.s 			page 8


 329 000e 0A23     		movs	r3, #10
 330 0010 FB73     		strb	r3, [r7, #15]
 331              	.LBB3:
  70:game.c        ****     for(int line = 0; line < NUM_NOTE_LINES; line++) {
 332              		.loc 1 70 0
 333 0012 0023     		movs	r3, #0
 334 0014 3B61     		str	r3, [r7, #16]
 335 0016 0EE0     		b	.L15
 336              	.L16:
  71:game.c        ****         draw_line(start_x,0, start_x, RGB_OLED_HEIGHT, color);
 337              		.loc 1 71 0 discriminator 3
 338 0018 FA7D     		ldrb	r2, [r7, #23]	@ zero_extendqisi2
 339 001a F87D     		ldrb	r0, [r7, #23]	@ zero_extendqisi2
 340 001c FB88     		ldrh	r3, [r7, #6]
 341 001e 0093     		str	r3, [sp]
 342 0020 4023     		movs	r3, #64
 343 0022 0021     		movs	r1, #0
 344 0024 FFF7FEFF 		bl	draw_line
  72:game.c        ****         start_x += x_delta;
 345              		.loc 1 72 0 discriminator 3
 346 0028 FA7D     		ldrb	r2, [r7, #23]
 347 002a FB7B     		ldrb	r3, [r7, #15]
 348 002c 1344     		add	r3, r3, r2
 349 002e FB75     		strb	r3, [r7, #23]
  70:game.c        ****     for(int line = 0; line < NUM_NOTE_LINES; line++) {
 350              		.loc 1 70 0 discriminator 3
 351 0030 3B69     		ldr	r3, [r7, #16]
 352 0032 0133     		adds	r3, r3, #1
 353 0034 3B61     		str	r3, [r7, #16]
 354              	.L15:
  70:game.c        ****     for(int line = 0; line < NUM_NOTE_LINES; line++) {
 355              		.loc 1 70 0 is_stmt 0 discriminator 1
 356 0036 3B69     		ldr	r3, [r7, #16]
 357 0038 092B     		cmp	r3, #9
 358 003a EDDD     		ble	.L16
 359              	.LBE3:
  73:game.c        ****     }
  74:game.c        **** }
 360              		.loc 1 74 0 is_stmt 1
 361 003c 00BF     		nop
 362 003e 1837     		adds	r7, r7, #24
 363              		.cfi_def_cfa_offset 8
 364 0040 BD46     		mov	sp, r7
 365              		.cfi_def_cfa_register 13
 366              		@ sp needed
 367 0042 80BD     		pop	{r7, pc}
 368              		.cfi_endproc
 369              	.LFE3:
 370              		.size	draw_note_lines, .-draw_note_lines
 371              		.section	.text.draw_play_line,"ax",%progbits
 372              		.align	2
 373              		.global	draw_play_line
 374              		.thumb
 375              		.thumb_func
 376              		.type	draw_play_line, %function
 377              	draw_play_line:
 378              	.LFB4:
ARM GAS  C:\Users\Matthew\AppData\Local\Temp\cc8zrVxn.s 			page 9


  75:game.c        **** 
  76:game.c        **** void draw_play_line(uint16_t color) {
 379              		.loc 1 76 0
 380              		.cfi_startproc
 381              		@ args = 0, pretend = 0, frame = 16
 382              		@ frame_needed = 1, uses_anonymous_args = 0
 383 0000 80B5     		push	{r7, lr}
 384              		.cfi_def_cfa_offset 8
 385              		.cfi_offset 7, -8
 386              		.cfi_offset 14, -4
 387 0002 86B0     		sub	sp, sp, #24
 388              		.cfi_def_cfa_offset 32
 389 0004 02AF     		add	r7, sp, #8
 390              		.cfi_def_cfa 7, 24
 391 0006 0346     		mov	r3, r0
 392 0008 FB80     		strh	r3, [r7, #6]	@ movhi
  77:game.c        ****     uint8 y = PLAY_LINE_Y;
 393              		.loc 1 77 0
 394 000a 3723     		movs	r3, #55
 395 000c FB73     		strb	r3, [r7, #15]
  78:game.c        ****     draw_line(0, y, RGB_OLED_WIDTH, y, color);
 396              		.loc 1 78 0
 397 000e FA7B     		ldrb	r2, [r7, #15]	@ zero_extendqisi2
 398 0010 F97B     		ldrb	r1, [r7, #15]	@ zero_extendqisi2
 399 0012 FB88     		ldrh	r3, [r7, #6]
 400 0014 0093     		str	r3, [sp]
 401 0016 1346     		mov	r3, r2
 402 0018 6022     		movs	r2, #96
 403 001a 0020     		movs	r0, #0
 404 001c FFF7FEFF 		bl	draw_line
  79:game.c        **** }
 405              		.loc 1 79 0
 406 0020 00BF     		nop
 407 0022 1037     		adds	r7, r7, #16
 408              		.cfi_def_cfa_offset 8
 409 0024 BD46     		mov	sp, r7
 410              		.cfi_def_cfa_register 13
 411              		@ sp needed
 412 0026 80BD     		pop	{r7, pc}
 413              		.cfi_endproc
 414              	.LFE4:
 415              		.size	draw_play_line, .-draw_play_line
 416              		.section	.text.draw_note_group,"ax",%progbits
 417              		.align	2
 418              		.global	draw_note_group
 419              		.thumb
 420              		.thumb_func
 421              		.type	draw_note_group, %function
 422              	draw_note_group:
 423              	.LFB5:
  80:game.c        **** 
  81:game.c        **** void draw_note_group(NOTE_GROUP* note_group, Harmonica* h) {
 424              		.loc 1 81 0
 425              		.cfi_startproc
 426              		@ args = 0, pretend = 0, frame = 32
 427              		@ frame_needed = 1, uses_anonymous_args = 0
 428 0000 90B5     		push	{r4, r7, lr}
ARM GAS  C:\Users\Matthew\AppData\Local\Temp\cc8zrVxn.s 			page 10


 429              		.cfi_def_cfa_offset 12
 430              		.cfi_offset 4, -12
 431              		.cfi_offset 7, -8
 432              		.cfi_offset 14, -4
 433 0002 8BB0     		sub	sp, sp, #44
 434              		.cfi_def_cfa_offset 56
 435 0004 02AF     		add	r7, sp, #8
 436              		.cfi_def_cfa 7, 48
 437 0006 7860     		str	r0, [r7, #4]
 438 0008 3960     		str	r1, [r7]
  82:game.c        ****     if(note_group->active == FALSE) {
 439              		.loc 1 82 0
 440 000a 7B68     		ldr	r3, [r7, #4]
 441 000c DB78     		ldrb	r3, [r3, #3]	@ zero_extendqisi2
 442 000e 002B     		cmp	r3, #0
 443 0010 6ED0     		beq	.L33
  83:game.c        ****         return;
  84:game.c        ****     }
  85:game.c        ****     hBool isNegative = (note_group->pos.y < 0) ? TRUE : FALSE;
 444              		.loc 1 85 0
 445 0012 7B68     		ldr	r3, [r7, #4]
 446 0014 9B68     		ldr	r3, [r3, #8]
 447 0016 DB0F     		lsrs	r3, r3, #31
 448 0018 DBB2     		uxtb	r3, r3
 449 001a FB75     		strb	r3, [r7, #23]
  86:game.c        ****     uint8 start_y = (isNegative) ? 0 : note_group->pos.y;
 450              		.loc 1 86 0
 451 001c FB7D     		ldrb	r3, [r7, #23]	@ zero_extendqisi2
 452 001e 002B     		cmp	r3, #0
 453 0020 03D1     		bne	.L21
 454              		.loc 1 86 0 is_stmt 0 discriminator 1
 455 0022 7B68     		ldr	r3, [r7, #4]
 456 0024 9B68     		ldr	r3, [r3, #8]
 457 0026 DBB2     		uxtb	r3, r3
 458 0028 00E0     		b	.L22
 459              	.L21:
 460              		.loc 1 86 0 discriminator 2
 461 002a 0023     		movs	r3, #0
 462              	.L22:
 463              		.loc 1 86 0 discriminator 4
 464 002c BB75     		strb	r3, [r7, #22]
  87:game.c        ****     int8 end_y_signed = (isNegative) ? (note_group->pos.y + note_group->length): start_y + note_gro
 465              		.loc 1 87 0 is_stmt 1 discriminator 4
 466 002e FB7D     		ldrb	r3, [r7, #23]	@ zero_extendqisi2
 467 0030 002B     		cmp	r3, #0
 468 0032 08D0     		beq	.L23
 469              		.loc 1 87 0 is_stmt 0 discriminator 1
 470 0034 7B68     		ldr	r3, [r7, #4]
 471 0036 9B68     		ldr	r3, [r3, #8]
 472 0038 DAB2     		uxtb	r2, r3
 473 003a 7B68     		ldr	r3, [r7, #4]
 474 003c DB7C     		ldrb	r3, [r3, #19]	@ zero_extendqisi2
 475 003e 1344     		add	r3, r3, r2
 476 0040 DBB2     		uxtb	r3, r3
 477 0042 5BB2     		sxtb	r3, r3
 478 0044 05E0     		b	.L24
 479              	.L23:
ARM GAS  C:\Users\Matthew\AppData\Local\Temp\cc8zrVxn.s 			page 11


 480              		.loc 1 87 0 discriminator 2
 481 0046 7B68     		ldr	r3, [r7, #4]
 482 0048 DA7C     		ldrb	r2, [r3, #19]	@ zero_extendqisi2
 483 004a BB7D     		ldrb	r3, [r7, #22]
 484 004c 1344     		add	r3, r3, r2
 485 004e DBB2     		uxtb	r3, r3
 486 0050 5BB2     		sxtb	r3, r3
 487              	.L24:
 488              		.loc 1 87 0 discriminator 4
 489 0052 7B75     		strb	r3, [r7, #21]
  88:game.c        ****     uint8 end_y = (end_y_signed < 0) ? 0 : (uint8) end_y_signed;
 490              		.loc 1 88 0 is_stmt 1 discriminator 4
 491 0054 97F91530 		ldrsb	r3, [r7, #21]
 492 0058 23EAE373 		bic	r3, r3, r3, asr #31
 493 005c 5BB2     		sxtb	r3, r3
 494 005e 3B75     		strb	r3, [r7, #20]
  89:game.c        ****     hBool cross_play_line = ((PLAY_LINE_Y >= start_y) && (PLAY_LINE_Y < end_y)) ?
  90:game.c        ****                                 TRUE : FALSE;
 495              		.loc 1 90 0 discriminator 4
 496 0060 BB7D     		ldrb	r3, [r7, #22]	@ zero_extendqisi2
 497 0062 372B     		cmp	r3, #55
 498 0064 04D8     		bhi	.L25
 499              		.loc 1 90 0 is_stmt 0 discriminator 1
 500 0066 3B7D     		ldrb	r3, [r7, #20]	@ zero_extendqisi2
 501 0068 372B     		cmp	r3, #55
 502 006a 01D9     		bls	.L25
 503              		.loc 1 90 0 discriminator 3
 504 006c 0123     		movs	r3, #1
 505 006e 00E0     		b	.L26
 506              	.L25:
 507              		.loc 1 90 0 discriminator 4
 508 0070 0023     		movs	r3, #0
 509              	.L26:
  89:game.c        ****     hBool cross_play_line = ((PLAY_LINE_Y >= start_y) && (PLAY_LINE_Y < end_y)) ?
 510              		.loc 1 89 0 is_stmt 1
 511 0072 FB74     		strb	r3, [r7, #19]
  91:game.c        ****     uint16 outline_color;
  92:game.c        ****     uint16 body_color = get_body_color(note_group);
 512              		.loc 1 92 0
 513 0074 7868     		ldr	r0, [r7, #4]
 514 0076 FFF7FEFF 		bl	get_body_color
 515 007a 0346     		mov	r3, r0
 516 007c 3B82     		strh	r3, [r7, #16]	@ movhi
  93:game.c        ****     if(cross_play_line == FALSE) {
 517              		.loc 1 93 0
 518 007e FB7C     		ldrb	r3, [r7, #19]	@ zero_extendqisi2
 519 0080 002B     		cmp	r3, #0
 520 0082 02D1     		bne	.L27
  94:game.c        ****         outline_color = body_color;
 521              		.loc 1 94 0
 522 0084 3B8A     		ldrh	r3, [r7, #16]	@ movhi
 523 0086 FB83     		strh	r3, [r7, #30]	@ movhi
 524 0088 0CE0     		b	.L28
 525              	.L27:
  95:game.c        ****     } else {
  96:game.c        ****         outline_color = (is_playing(h, note_group) == TRUE) ? PASS_COLOR : FAIL_COLOR;
 526              		.loc 1 96 0
ARM GAS  C:\Users\Matthew\AppData\Local\Temp\cc8zrVxn.s 			page 12


 527 008a 7968     		ldr	r1, [r7, #4]
 528 008c 3868     		ldr	r0, [r7]
 529 008e FFF7FEFF 		bl	is_playing
 530 0092 0346     		mov	r3, r0
 531 0094 012B     		cmp	r3, #1
 532 0096 02D1     		bne	.L29
 533              		.loc 1 96 0 is_stmt 0 discriminator 1
 534 0098 4FF4FC63 		mov	r3, #2016
 535 009c 01E0     		b	.L30
 536              	.L29:
 537              		.loc 1 96 0 discriminator 2
 538 009e 4FF47143 		mov	r3, #61696
 539              	.L30:
 540              		.loc 1 96 0 discriminator 4
 541 00a2 FB83     		strh	r3, [r7, #30]	@ movhi
 542              	.L28:
 543              	.LBB4:
  97:game.c        ****     }
  98:game.c        ****     
  99:game.c        ****     for(int idx = 0; idx < note_group->num_notes; idx++) {
 544              		.loc 1 99 0 is_stmt 1
 545 00a4 0023     		movs	r3, #0
 546 00a6 BB61     		str	r3, [r7, #24]
 547 00a8 1BE0     		b	.L31
 548              	.L32:
 549              	.LBB5:
 100:game.c        ****         uint8 start_x = get_x(note_group->holes[idx]) - (NOTE_WIDTH / 2);
 550              		.loc 1 100 0 discriminator 3
 551 00aa 7A68     		ldr	r2, [r7, #4]
 552 00ac BB69     		ldr	r3, [r7, #24]
 553 00ae 1344     		add	r3, r3, r2
 554 00b0 0D33     		adds	r3, r3, #13
 555 00b2 1B78     		ldrb	r3, [r3]	@ zero_extendqisi2
 556 00b4 1846     		mov	r0, r3
 557 00b6 FFF7FEFF 		bl	get_x
 558 00ba 0346     		mov	r3, r0
 559 00bc 023B     		subs	r3, r3, #2
 560 00be FB73     		strb	r3, [r7, #15]
 101:game.c        ****         uint8 end_x = start_x + NOTE_WIDTH - 1;
 561              		.loc 1 101 0 discriminator 3
 562 00c0 FB7B     		ldrb	r3, [r7, #15]
 563 00c2 0433     		adds	r3, r3, #4
 564 00c4 BB73     		strb	r3, [r7, #14]
 102:game.c        ****         draw_rect(start_x, start_y, end_x, end_y, outline_color, body_color);
 565              		.loc 1 102 0 discriminator 3
 566 00c6 3C7D     		ldrb	r4, [r7, #20]	@ zero_extendqisi2
 567 00c8 BA7B     		ldrb	r2, [r7, #14]	@ zero_extendqisi2
 568 00ca B97D     		ldrb	r1, [r7, #22]	@ zero_extendqisi2
 569 00cc F87B     		ldrb	r0, [r7, #15]	@ zero_extendqisi2
 570 00ce 3B8A     		ldrh	r3, [r7, #16]
 571 00d0 0193     		str	r3, [sp, #4]
 572 00d2 FB8B     		ldrh	r3, [r7, #30]
 573 00d4 0093     		str	r3, [sp]
 574 00d6 2346     		mov	r3, r4
 575 00d8 FFF7FEFF 		bl	draw_rect
 576              	.LBE5:
  99:game.c        ****         uint8 start_x = get_x(note_group->holes[idx]) - (NOTE_WIDTH / 2);
ARM GAS  C:\Users\Matthew\AppData\Local\Temp\cc8zrVxn.s 			page 13


 577              		.loc 1 99 0 discriminator 3
 578 00dc BB69     		ldr	r3, [r7, #24]
 579 00de 0133     		adds	r3, r3, #1
 580 00e0 BB61     		str	r3, [r7, #24]
 581              	.L31:
  99:game.c        ****         uint8 start_x = get_x(note_group->holes[idx]) - (NOTE_WIDTH / 2);
 582              		.loc 1 99 0 is_stmt 0 discriminator 1
 583 00e2 7B68     		ldr	r3, [r7, #4]
 584 00e4 1B78     		ldrb	r3, [r3]	@ zero_extendqisi2
 585 00e6 1A46     		mov	r2, r3
 586 00e8 BB69     		ldr	r3, [r7, #24]
 587 00ea 9A42     		cmp	r2, r3
 588 00ec DDDC     		bgt	.L32
 589 00ee 00E0     		b	.L18
 590              	.L33:
 591              	.LBE4:
  83:game.c        ****     }
 592              		.loc 1 83 0 is_stmt 1
 593 00f0 00BF     		nop
 594              	.L18:
 103:game.c        ****     }
 104:game.c        **** 
 105:game.c        **** }
 595              		.loc 1 105 0
 596 00f2 2437     		adds	r7, r7, #36
 597              		.cfi_def_cfa_offset 12
 598 00f4 BD46     		mov	sp, r7
 599              		.cfi_def_cfa_register 13
 600              		@ sp needed
 601 00f6 90BD     		pop	{r4, r7, pc}
 602              		.cfi_endproc
 603              	.LFE5:
 604              		.size	draw_note_group, .-draw_note_group
 605              		.section	.text.handle_move_note_groups,"ax",%progbits
 606              		.align	2
 607              		.global	handle_move_note_groups
 608              		.thumb
 609              		.thumb_func
 610              		.type	handle_move_note_groups, %function
 611              	handle_move_note_groups:
 612              	.LFB6:
 106:game.c        **** 
 107:game.c        **** void handle_move_note_groups(NOTE_GROUP* note_groups) {
 613              		.loc 1 107 0
 614              		.cfi_startproc
 615              		@ args = 0, pretend = 0, frame = 16
 616              		@ frame_needed = 1, uses_anonymous_args = 0
 617              		@ link register save eliminated.
 618 0000 80B4     		push	{r7}
 619              		.cfi_def_cfa_offset 4
 620              		.cfi_offset 7, -4
 621 0002 85B0     		sub	sp, sp, #20
 622              		.cfi_def_cfa_offset 24
 623 0004 00AF     		add	r7, sp, #0
 624              		.cfi_def_cfa_register 7
 625 0006 7860     		str	r0, [r7, #4]
 108:game.c        ****     if(num_ticks > TICK_MOVEMENT_PERIOD) {
ARM GAS  C:\Users\Matthew\AppData\Local\Temp\cc8zrVxn.s 			page 14


 626              		.loc 1 108 0
 627 0008 184B     		ldr	r3, .L40
 628 000a 1B68     		ldr	r3, [r3]
 629 000c 022B     		cmp	r3, #2
 630 000e 28D9     		bls	.L39
 631              	.LBB6:
 109:game.c        ****         for(int idx = 0; idx < num_note_groups; idx++) {
 632              		.loc 1 109 0
 633 0010 0023     		movs	r3, #0
 634 0012 FB60     		str	r3, [r7, #12]
 635 0014 1DE0     		b	.L36
 636              	.L38:
 637              	.LBB7:
 110:game.c        ****             NOTE_GROUP* note_group = &note_groups[idx];
 638              		.loc 1 110 0
 639 0016 FA68     		ldr	r2, [r7, #12]
 640 0018 1346     		mov	r3, r2
 641 001a 9B00     		lsls	r3, r3, #2
 642 001c 1344     		add	r3, r3, r2
 643 001e 9B00     		lsls	r3, r3, #2
 644 0020 1A46     		mov	r2, r3
 645 0022 7B68     		ldr	r3, [r7, #4]
 646 0024 1344     		add	r3, r3, r2
 647 0026 BB60     		str	r3, [r7, #8]
 111:game.c        ****             
 112:game.c        ****             if(note_group->active == TRUE) {
 648              		.loc 1 112 0
 649 0028 BB68     		ldr	r3, [r7, #8]
 650 002a DB78     		ldrb	r3, [r3, #3]	@ zero_extendqisi2
 651 002c 012B     		cmp	r3, #1
 652 002e 0DD1     		bne	.L37
 113:game.c        ****                 note_group->pos.y += note_group->speed;
 653              		.loc 1 113 0
 654 0030 BB68     		ldr	r3, [r7, #8]
 655 0032 9B68     		ldr	r3, [r3, #8]
 656 0034 BA68     		ldr	r2, [r7, #8]
 657 0036 127B     		ldrb	r2, [r2, #12]	@ zero_extendqisi2
 658 0038 1A44     		add	r2, r2, r3
 659 003a BB68     		ldr	r3, [r7, #8]
 660 003c 9A60     		str	r2, [r3, #8]
 114:game.c        ****                 
 115:game.c        ****                 if(note_group->pos.y > RGB_OLED_HEIGHT) {
 661              		.loc 1 115 0
 662 003e BB68     		ldr	r3, [r7, #8]
 663 0040 9B68     		ldr	r3, [r3, #8]
 664 0042 402B     		cmp	r3, #64
 665 0044 02DD     		ble	.L37
 116:game.c        ****                     note_group->active = FALSE;
 666              		.loc 1 116 0
 667 0046 BB68     		ldr	r3, [r7, #8]
 668 0048 0022     		movs	r2, #0
 669 004a DA70     		strb	r2, [r3, #3]
 670              	.L37:
 671              	.LBE7:
 109:game.c        ****             NOTE_GROUP* note_group = &note_groups[idx];
 672              		.loc 1 109 0 discriminator 2
 673 004c FB68     		ldr	r3, [r7, #12]
ARM GAS  C:\Users\Matthew\AppData\Local\Temp\cc8zrVxn.s 			page 15


 674 004e 0133     		adds	r3, r3, #1
 675 0050 FB60     		str	r3, [r7, #12]
 676              	.L36:
 109:game.c        ****             NOTE_GROUP* note_group = &note_groups[idx];
 677              		.loc 1 109 0 is_stmt 0 discriminator 1
 678 0052 0323     		movs	r3, #3
 679 0054 1A46     		mov	r2, r3
 680 0056 FB68     		ldr	r3, [r7, #12]
 681 0058 9A42     		cmp	r2, r3
 682 005a DCDC     		bgt	.L38
 683              	.LBE6:
 117:game.c        ****                 }
 118:game.c        ****             }
 119:game.c        ****         }
 120:game.c        ****         
 121:game.c        ****         num_ticks = 0;
 684              		.loc 1 121 0 is_stmt 1
 685 005c 034B     		ldr	r3, .L40
 686 005e 0022     		movs	r2, #0
 687 0060 1A60     		str	r2, [r3]
 688              	.L39:
 122:game.c        ****     }
 123:game.c        ****     
 124:game.c        **** }
 689              		.loc 1 124 0
 690 0062 00BF     		nop
 691 0064 1437     		adds	r7, r7, #20
 692              		.cfi_def_cfa_offset 4
 693 0066 BD46     		mov	sp, r7
 694              		.cfi_def_cfa_register 13
 695              		@ sp needed
 696 0068 80BC     		pop	{r7}
 697              		.cfi_restore 7
 698              		.cfi_def_cfa_offset 0
 699 006a 7047     		bx	lr
 700              	.L41:
 701              		.align	2
 702              	.L40:
 703 006c 00000000 		.word	num_ticks
 704              		.cfi_endproc
 705              	.LFE6:
 706              		.size	handle_move_note_groups, .-handle_move_note_groups
 707              		.section	.text.get_body_color,"ax",%progbits
 708              		.align	2
 709              		.global	get_body_color
 710              		.thumb
 711              		.thumb_func
 712              		.type	get_body_color, %function
 713              	get_body_color:
 714              	.LFB7:
 125:game.c        **** 
 126:game.c        **** uint16 get_body_color(NOTE_GROUP* note_group) {
 715              		.loc 1 126 0
 716              		.cfi_startproc
 717              		@ args = 0, pretend = 0, frame = 8
 718              		@ frame_needed = 1, uses_anonymous_args = 0
 719              		@ link register save eliminated.
ARM GAS  C:\Users\Matthew\AppData\Local\Temp\cc8zrVxn.s 			page 16


 720 0000 80B4     		push	{r7}
 721              		.cfi_def_cfa_offset 4
 722              		.cfi_offset 7, -4
 723 0002 83B0     		sub	sp, sp, #12
 724              		.cfi_def_cfa_offset 16
 725 0004 00AF     		add	r7, sp, #0
 726              		.cfi_def_cfa_register 7
 727 0006 7860     		str	r0, [r7, #4]
 127:game.c        ****     return (note_group->mode == BLOWN_NOTES) ? BLOWN_COLOR : SUCK_COLOR;
 728              		.loc 1 127 0
 729 0008 7B68     		ldr	r3, [r7, #4]
 730 000a 9B78     		ldrb	r3, [r3, #2]	@ zero_extendqisi2
 731 000c 002B     		cmp	r3, #0
 732 000e 01D1     		bne	.L43
 733              		.loc 1 127 0 is_stmt 0 discriminator 1
 734 0010 1F23     		movs	r3, #31
 735 0012 01E0     		b	.L44
 736              	.L43:
 737              		.loc 1 127 0 discriminator 2
 738 0014 4AF21F03 		movw	r3, #40991
 739              	.L44:
 128:game.c        **** }
 740              		.loc 1 128 0 is_stmt 1 discriminator 4
 741 0018 1846     		mov	r0, r3
 742 001a 0C37     		adds	r7, r7, #12
 743              		.cfi_def_cfa_offset 4
 744 001c BD46     		mov	sp, r7
 745              		.cfi_def_cfa_register 13
 746              		@ sp needed
 747 001e 80BC     		pop	{r7}
 748              		.cfi_restore 7
 749              		.cfi_def_cfa_offset 0
 750 0020 7047     		bx	lr
 751              		.cfi_endproc
 752              	.LFE7:
 753              		.size	get_body_color, .-get_body_color
 754 0022 00BF     		.section	.text.is_playing,"ax",%progbits
 755              		.align	2
 756              		.global	is_playing
 757              		.thumb
 758              		.thumb_func
 759              		.type	is_playing, %function
 760              	is_playing:
 761              	.LFB8:
 129:game.c        **** 
 130:game.c        **** hBool is_playing(Harmonica* h, NOTE_GROUP* note_group) {
 762              		.loc 1 130 0
 763              		.cfi_startproc
 764              		@ args = 0, pretend = 0, frame = 16
 765              		@ frame_needed = 1, uses_anonymous_args = 0
 766              		@ link register save eliminated.
 767 0000 80B4     		push	{r7}
 768              		.cfi_def_cfa_offset 4
 769              		.cfi_offset 7, -4
 770 0002 85B0     		sub	sp, sp, #20
 771              		.cfi_def_cfa_offset 24
 772 0004 00AF     		add	r7, sp, #0
ARM GAS  C:\Users\Matthew\AppData\Local\Temp\cc8zrVxn.s 			page 17


 773              		.cfi_def_cfa_register 7
 774 0006 7860     		str	r0, [r7, #4]
 775 0008 3960     		str	r1, [r7]
 131:game.c        ****     uint8 harmonica_num_notes = h->raw_harmonica_output.num_notes_played;
 776              		.loc 1 131 0
 777 000a 7B68     		ldr	r3, [r7, #4]
 778 000c 93F90D30 		ldrsb	r3, [r3, #13]
 779 0010 FB73     		strb	r3, [r7, #15]
 132:game.c        ****     HOLE center_hole = h->active_hole;
 780              		.loc 1 132 0
 781 0012 7B68     		ldr	r3, [r7, #4]
 782 0014 5B78     		ldrb	r3, [r3, #1]
 783 0016 BB73     		strb	r3, [r7, #14]
 133:game.c        ****     
 134:game.c        ****     return harmonica_num_notes == note_group->num_notes &&
 784              		.loc 1 134 0
 785 0018 3B68     		ldr	r3, [r7]
 786 001a 1B78     		ldrb	r3, [r3]	@ zero_extendqisi2
 135:game.c        ****             center_hole == note_group->center_hole 
 136:game.c        ****             && h->output_mode == NORMAL &&
 787              		.loc 1 136 0
 788 001c FA7B     		ldrb	r2, [r7, #15]	@ zero_extendqisi2
 789 001e 9A42     		cmp	r2, r3
 790 0020 10D1     		bne	.L47
 135:game.c        ****             center_hole == note_group->center_hole 
 791              		.loc 1 135 0
 792 0022 3B68     		ldr	r3, [r7]
 793 0024 5B78     		ldrb	r3, [r3, #1]	@ zero_extendqisi2
 134:game.c        ****             center_hole == note_group->center_hole 
 794              		.loc 1 134 0
 795 0026 BA7B     		ldrb	r2, [r7, #14]	@ zero_extendqisi2
 796 0028 9A42     		cmp	r2, r3
 797 002a 0BD1     		bne	.L47
 798              		.loc 1 136 0 discriminator 3
 799 002c 7B68     		ldr	r3, [r7, #4]
 800 002e 1B7D     		ldrb	r3, [r3, #20]	@ zero_extendqisi2
 801 0030 002B     		cmp	r3, #0
 802 0032 07D1     		bne	.L47
 137:game.c        ****             h->current_note_mode == note_group->mode;
 803              		.loc 1 137 0 discriminator 2
 804 0034 7B68     		ldr	r3, [r7, #4]
 805 0036 1A78     		ldrb	r2, [r3]	@ zero_extendqisi2
 806 0038 3B68     		ldr	r3, [r7]
 807 003a 9B78     		ldrb	r3, [r3, #2]	@ zero_extendqisi2
 136:game.c        ****             h->current_note_mode == note_group->mode;
 808              		.loc 1 136 0 discriminator 2
 809 003c 9A42     		cmp	r2, r3
 810 003e 01D1     		bne	.L47
 136:game.c        ****             h->current_note_mode == note_group->mode;
 811              		.loc 1 136 0 is_stmt 0 discriminator 4
 812 0040 0123     		movs	r3, #1
 813 0042 00E0     		b	.L48
 814              	.L47:
 136:game.c        ****             h->current_note_mode == note_group->mode;
 815              		.loc 1 136 0 discriminator 5
 816 0044 0023     		movs	r3, #0
 817              	.L48:
ARM GAS  C:\Users\Matthew\AppData\Local\Temp\cc8zrVxn.s 			page 18


 134:game.c        ****             center_hole == note_group->center_hole 
 818              		.loc 1 134 0 is_stmt 1
 819 0046 DBB2     		uxtb	r3, r3
 138:game.c        **** }
 820              		.loc 1 138 0
 821 0048 1846     		mov	r0, r3
 822 004a 1437     		adds	r7, r7, #20
 823              		.cfi_def_cfa_offset 4
 824 004c BD46     		mov	sp, r7
 825              		.cfi_def_cfa_register 13
 826              		@ sp needed
 827 004e 80BC     		pop	{r7}
 828              		.cfi_restore 7
 829              		.cfi_def_cfa_offset 0
 830 0050 7047     		bx	lr
 831              		.cfi_endproc
 832              	.LFE8:
 833              		.size	is_playing, .-is_playing
 834 0052 00BF     		.section	.text.generate_random_note_group,"ax",%progbits
 835              		.align	2
 836              		.global	generate_random_note_group
 837              		.thumb
 838              		.thumb_func
 839              		.type	generate_random_note_group, %function
 840              	generate_random_note_group:
 841              	.LFB9:
 139:game.c        **** 
 140:game.c        **** void generate_random_note_group(NOTE_GROUP* note_group) {
 842              		.loc 1 140 0
 843              		.cfi_startproc
 844              		@ args = 0, pretend = 0, frame = 16
 845              		@ frame_needed = 1, uses_anonymous_args = 0
 846 0000 90B5     		push	{r4, r7, lr}
 847              		.cfi_def_cfa_offset 12
 848              		.cfi_offset 4, -12
 849              		.cfi_offset 7, -8
 850              		.cfi_offset 14, -4
 851 0002 85B0     		sub	sp, sp, #20
 852              		.cfi_def_cfa_offset 32
 853 0004 00AF     		add	r7, sp, #0
 854              		.cfi_def_cfa_register 7
 855 0006 7860     		str	r0, [r7, #4]
 141:game.c        ****     
 142:game.c        ****     uint8 rand_val = (ms_counter_ReadCounter() % 10);
 856              		.loc 1 142 0
 857 0008 FFF7FEFF 		bl	ms_counter_ReadCounter
 858 000c 0146     		mov	r1, r0
 859 000e 354B     		ldr	r3, .L51
 860 0010 A3FB0123 		umull	r2, r3, r3, r1
 861 0014 DA08     		lsrs	r2, r3, #3
 862 0016 1346     		mov	r3, r2
 863 0018 9B00     		lsls	r3, r3, #2
 864 001a 1344     		add	r3, r3, r2
 865 001c 5B00     		lsls	r3, r3, #1
 866 001e CA1A     		subs	r2, r1, r3
 867 0020 1346     		mov	r3, r2
 868 0022 FB73     		strb	r3, [r7, #15]
ARM GAS  C:\Users\Matthew\AppData\Local\Temp\cc8zrVxn.s 			page 19


 143:game.c        ****     note_group->center_hole = rand_val; // 0 indexed
 869              		.loc 1 143 0
 870 0024 7B68     		ldr	r3, [r7, #4]
 871 0026 FA7B     		ldrb	r2, [r7, #15]
 872 0028 5A70     		strb	r2, [r3, #1]
 144:game.c        ****     
 145:game.c        ****     // calculating largest possible num_notes without bleeding outside of range
 146:game.c        ****     uint8 upper_dist = 10 - note_group->center_hole + 1;
 873              		.loc 1 146 0
 874 002a 7B68     		ldr	r3, [r7, #4]
 875 002c 5B78     		ldrb	r3, [r3, #1]	@ zero_extendqisi2
 876 002e C3F10B03 		rsb	r3, r3, #11
 877 0032 BB73     		strb	r3, [r7, #14]
 147:game.c        ****     uint8 lower_dist = note_group->center_hole + 1;
 878              		.loc 1 147 0
 879 0034 7B68     		ldr	r3, [r7, #4]
 880 0036 5B78     		ldrb	r3, [r3, #1]	@ zero_extendqisi2
 881 0038 0133     		adds	r3, r3, #1
 882 003a 7B73     		strb	r3, [r7, #13]
 148:game.c        ****     
 149:game.c        ****     uint8 max_num_notes = (upper_dist < lower_dist) ? upper_dist : lower_dist;
 883              		.loc 1 149 0
 884 003c 7A7B     		ldrb	r2, [r7, #13]	@ zero_extendqisi2
 885 003e BB7B     		ldrb	r3, [r7, #14]	@ zero_extendqisi2
 886 0040 9342     		cmp	r3, r2
 887 0042 28BF     		it	cs
 888 0044 1346     		movcs	r3, r2
 889 0046 3B73     		strb	r3, [r7, #12]
 150:game.c        ****     
 151:game.c        ****     note_group->num_notes = (ms_counter_ReadCounter() % max_num_notes) + 1;
 890              		.loc 1 151 0
 891 0048 FFF7FEFF 		bl	ms_counter_ReadCounter
 892 004c 0246     		mov	r2, r0
 893 004e 3B7B     		ldrb	r3, [r7, #12]	@ zero_extendqisi2
 894 0050 B2FBF3F1 		udiv	r1, r2, r3
 895 0054 03FB01F3 		mul	r3, r3, r1
 896 0058 D31A     		subs	r3, r2, r3
 897 005a DBB2     		uxtb	r3, r3
 898 005c 0133     		adds	r3, r3, #1
 899 005e DAB2     		uxtb	r2, r3
 900 0060 7B68     		ldr	r3, [r7, #4]
 901 0062 1A70     		strb	r2, [r3]
 152:game.c        ****     note_group->mode = ((game_random_mode_generator_ReadCounter() % 2) == 0) ? SUCKED_NOTES : BLOWN
 902              		.loc 1 152 0
 903 0064 FFF7FEFF 		bl	game_random_mode_generator_ReadCounter
 904 0068 0346     		mov	r3, r0
 905 006a 03F00103 		and	r3, r3, #1
 906 006e 9BB2     		uxth	r3, r3
 907 0070 002B     		cmp	r3, #0
 908 0072 0CBF     		ite	eq
 909 0074 0123     		moveq	r3, #1
 910 0076 0023     		movne	r3, #0
 911 0078 DBB2     		uxtb	r3, r3
 912 007a 1A46     		mov	r2, r3
 913 007c 7B68     		ldr	r3, [r7, #4]
 914 007e 9A70     		strb	r2, [r3, #2]
 153:game.c        ****     note_group->active = TRUE;
ARM GAS  C:\Users\Matthew\AppData\Local\Temp\cc8zrVxn.s 			page 20


 915              		.loc 1 153 0
 916 0080 7B68     		ldr	r3, [r7, #4]
 917 0082 0122     		movs	r2, #1
 918 0084 DA70     		strb	r2, [r3, #3]
 154:game.c        ****     note_group->pos = (Position){.x = get_x(note_group->center_hole), .y = -25};
 919              		.loc 1 154 0
 920 0086 7B68     		ldr	r3, [r7, #4]
 921 0088 5B78     		ldrb	r3, [r3, #1]	@ zero_extendqisi2
 922 008a 1846     		mov	r0, r3
 923 008c FFF7FEFF 		bl	get_x
 924 0090 0346     		mov	r3, r0
 925 0092 1A46     		mov	r2, r3
 926 0094 7B68     		ldr	r3, [r7, #4]
 927 0096 1A71     		strb	r2, [r3, #4]
 928 0098 7B68     		ldr	r3, [r7, #4]
 929 009a 6FF01802 		mvn	r2, #24
 930 009e 9A60     		str	r2, [r3, #8]
 155:game.c        ****     note_group->speed = 2;
 931              		.loc 1 155 0
 932 00a0 7B68     		ldr	r3, [r7, #4]
 933 00a2 0222     		movs	r2, #2
 934 00a4 1A73     		strb	r2, [r3, #12]
 156:game.c        ****     
 157:game.c        ****     write_note_group_holes(note_group);
 935              		.loc 1 157 0
 936 00a6 7868     		ldr	r0, [r7, #4]
 937 00a8 FFF7FEFF 		bl	write_note_group_holes
 158:game.c        ****     
 159:game.c        ****     
 160:game.c        ****     note_group->length = ((ms_counter_ReadCounter() * game_random_mode_generator_ReadCounter()) % 1
 938              		.loc 1 160 0
 939 00ac FFF7FEFF 		bl	ms_counter_ReadCounter
 940 00b0 0346     		mov	r3, r0
 941 00b2 DCB2     		uxtb	r4, r3
 942 00b4 FFF7FEFF 		bl	game_random_mode_generator_ReadCounter
 943 00b8 0346     		mov	r3, r0
 944 00ba DBB2     		uxtb	r3, r3
 945 00bc 03FB04F3 		mul	r3, r3, r4
 946 00c0 DBB2     		uxtb	r3, r3
 947 00c2 03F00F03 		and	r3, r3, #15
 948 00c6 DBB2     		uxtb	r3, r3
 949 00c8 0F33     		adds	r3, r3, #15
 950 00ca DAB2     		uxtb	r2, r3
 951 00cc 7B68     		ldr	r3, [r7, #4]
 952 00ce DA74     		strb	r2, [r3, #19]
 161:game.c        ****     
 162:game.c        ****     CyDelay(note_group->length);
 953              		.loc 1 162 0
 954 00d0 7B68     		ldr	r3, [r7, #4]
 955 00d2 DB7C     		ldrb	r3, [r3, #19]	@ zero_extendqisi2
 956 00d4 1846     		mov	r0, r3
 957 00d6 FFF7FEFF 		bl	CyDelay
 163:game.c        **** }
 958              		.loc 1 163 0
 959 00da 00BF     		nop
 960 00dc 1437     		adds	r7, r7, #20
 961              		.cfi_def_cfa_offset 12
ARM GAS  C:\Users\Matthew\AppData\Local\Temp\cc8zrVxn.s 			page 21


 962 00de BD46     		mov	sp, r7
 963              		.cfi_def_cfa_register 13
 964              		@ sp needed
 965 00e0 90BD     		pop	{r4, r7, pc}
 966              	.L52:
 967 00e2 00BF     		.align	2
 968              	.L51:
 969 00e4 CDCCCCCC 		.word	-858993459
 970              		.cfi_endproc
 971              	.LFE9:
 972              		.size	generate_random_note_group, .-generate_random_note_group
 973              		.section	.text.write_note_group_holes,"ax",%progbits
 974              		.align	2
 975              		.global	write_note_group_holes
 976              		.thumb
 977              		.thumb_func
 978              		.type	write_note_group_holes, %function
 979              	write_note_group_holes:
 980              	.LFB10:
 164:game.c        **** 
 165:game.c        **** void write_note_group_holes(NOTE_GROUP* note_group) {
 981              		.loc 1 165 0
 982              		.cfi_startproc
 983              		@ args = 0, pretend = 0, frame = 16
 984              		@ frame_needed = 1, uses_anonymous_args = 0
 985              		@ link register save eliminated.
 986 0000 80B4     		push	{r7}
 987              		.cfi_def_cfa_offset 4
 988              		.cfi_offset 7, -4
 989 0002 85B0     		sub	sp, sp, #20
 990              		.cfi_def_cfa_offset 24
 991 0004 00AF     		add	r7, sp, #0
 992              		.cfi_def_cfa_register 7
 993 0006 7860     		str	r0, [r7, #4]
 166:game.c        ****     // need to figure out lower hole
 167:game.c        ****    uint8 hole_offset = note_group->num_notes / 2;
 994              		.loc 1 167 0
 995 0008 7B68     		ldr	r3, [r7, #4]
 996 000a 1B78     		ldrb	r3, [r3]	@ zero_extendqisi2
 997 000c 5B08     		lsrs	r3, r3, #1
 998 000e BB73     		strb	r3, [r7, #14]
 168:game.c        ****    int8 center_hole_int8 = (int8) note_group->center_hole;
 999              		.loc 1 168 0
 1000 0010 7B68     		ldr	r3, [r7, #4]
 1001 0012 5B78     		ldrb	r3, [r3, #1]	@ zero_extendqisi2
 1002 0014 7B73     		strb	r3, [r7, #13]
 169:game.c        ****    int8 lowest_hole_raw = (center_hole_int8 - hole_offset);
 1003              		.loc 1 169 0
 1004 0016 7A7B     		ldrb	r2, [r7, #13]	@ zero_extendqisi2
 1005 0018 BB7B     		ldrb	r3, [r7, #14]
 1006 001a D31A     		subs	r3, r2, r3
 1007 001c DBB2     		uxtb	r3, r3
 1008 001e 3B73     		strb	r3, [r7, #12]
 170:game.c        ****    int8 lowest_hole = (lowest_hole_raw < 0) ? 0 : lowest_hole_raw;
 1009              		.loc 1 170 0
 1010 0020 97F90C30 		ldrsb	r3, [r7, #12]
 1011 0024 23EAE373 		bic	r3, r3, r3, asr #31
ARM GAS  C:\Users\Matthew\AppData\Local\Temp\cc8zrVxn.s 			page 22


 1012 0028 FB72     		strb	r3, [r7, #11]
 171:game.c        ****     note_group->num_notes += lowest_hole - lowest_hole_raw;
 1013              		.loc 1 171 0
 1014 002a 7B68     		ldr	r3, [r7, #4]
 1015 002c 1A78     		ldrb	r2, [r3]	@ zero_extendqisi2
 1016 002e F97A     		ldrb	r1, [r7, #11]	@ zero_extendqisi2
 1017 0030 3B7B     		ldrb	r3, [r7, #12]	@ zero_extendqisi2
 1018 0032 CB1A     		subs	r3, r1, r3
 1019 0034 DBB2     		uxtb	r3, r3
 1020 0036 1344     		add	r3, r3, r2
 1021 0038 DAB2     		uxtb	r2, r3
 1022 003a 7B68     		ldr	r3, [r7, #4]
 1023 003c 1A70     		strb	r2, [r3]
 1024              	.LBB8:
 172:game.c        **** //        int8 hole_offset = (num_notes_played / 2);
 173:game.c        **** //    int8 lowest_hole_raw = ((int)active_hole - hole_offset);
 174:game.c        **** //    HOLE lowest_hole =  (lowest_hole_raw < ZERO) ? ZERO : (HOLE) (lowest_hole_raw);
 175:game.c        ****     
 176:game.c        ****     for(uint8 idx = 0; idx <= note_group->num_notes; idx++) {
 1025              		.loc 1 176 0
 1026 003e 0023     		movs	r3, #0
 1027 0040 FB73     		strb	r3, [r7, #15]
 1028 0042 0BE0     		b	.L54
 1029              	.L55:
 177:game.c        ****         note_group->holes[idx] = idx + (uint8) lowest_hole;
 1030              		.loc 1 177 0 discriminator 3
 1031 0044 FB7B     		ldrb	r3, [r7, #15]	@ zero_extendqisi2
 1032 0046 F97A     		ldrb	r1, [r7, #11]	@ zero_extendqisi2
 1033 0048 FA7B     		ldrb	r2, [r7, #15]
 1034 004a 0A44     		add	r2, r2, r1
 1035 004c D1B2     		uxtb	r1, r2
 1036 004e 7A68     		ldr	r2, [r7, #4]
 1037 0050 1344     		add	r3, r3, r2
 1038 0052 0A46     		mov	r2, r1
 1039 0054 5A73     		strb	r2, [r3, #13]
 176:game.c        ****         note_group->holes[idx] = idx + (uint8) lowest_hole;
 1040              		.loc 1 176 0 discriminator 3
 1041 0056 FB7B     		ldrb	r3, [r7, #15]	@ zero_extendqisi2
 1042 0058 0133     		adds	r3, r3, #1
 1043 005a FB73     		strb	r3, [r7, #15]
 1044              	.L54:
 176:game.c        ****         note_group->holes[idx] = idx + (uint8) lowest_hole;
 1045              		.loc 1 176 0 is_stmt 0 discriminator 1
 1046 005c 7B68     		ldr	r3, [r7, #4]
 1047 005e 1B78     		ldrb	r3, [r3]	@ zero_extendqisi2
 1048 0060 FA7B     		ldrb	r2, [r7, #15]	@ zero_extendqisi2
 1049 0062 9A42     		cmp	r2, r3
 1050 0064 EED9     		bls	.L55
 1051              	.LBE8:
 178:game.c        ****     }
 179:game.c        **** }
 1052              		.loc 1 179 0 is_stmt 1
 1053 0066 00BF     		nop
 1054 0068 1437     		adds	r7, r7, #20
 1055              		.cfi_def_cfa_offset 4
 1056 006a BD46     		mov	sp, r7
 1057              		.cfi_def_cfa_register 13
ARM GAS  C:\Users\Matthew\AppData\Local\Temp\cc8zrVxn.s 			page 23


 1058              		@ sp needed
 1059 006c 80BC     		pop	{r7}
 1060              		.cfi_restore 7
 1061              		.cfi_def_cfa_offset 0
 1062 006e 7047     		bx	lr
 1063              		.cfi_endproc
 1064              	.LFE10:
 1065              		.size	write_note_group_holes, .-write_note_group_holes
 1066              		.section	.text.handle_note_group_spawn,"ax",%progbits
 1067              		.align	2
 1068              		.global	handle_note_group_spawn
 1069              		.thumb
 1070              		.thumb_func
 1071              		.type	handle_note_group_spawn, %function
 1072              	handle_note_group_spawn:
 1073              	.LFB11:
 180:game.c        **** 
 181:game.c        **** void handle_note_group_spawn(NOTE_GROUP* note_groups) {
 1074              		.loc 1 181 0
 1075              		.cfi_startproc
 1076              		@ args = 0, pretend = 0, frame = 32
 1077              		@ frame_needed = 1, uses_anonymous_args = 0
 1078 0000 80B5     		push	{r7, lr}
 1079              		.cfi_def_cfa_offset 8
 1080              		.cfi_offset 7, -8
 1081              		.cfi_offset 14, -4
 1082 0002 88B0     		sub	sp, sp, #32
 1083              		.cfi_def_cfa_offset 40
 1084 0004 00AF     		add	r7, sp, #0
 1085              		.cfi_def_cfa_register 7
 1086 0006 7860     		str	r0, [r7, #4]
 182:game.c        ****     hBool all_note_groups_past_threshold = TRUE;
 1087              		.loc 1 182 0
 1088 0008 0123     		movs	r3, #1
 1089 000a FB77     		strb	r3, [r7, #31]
 1090              	.LBB9:
 183:game.c        ****     
 184:game.c        ****     for(int idx = 0; idx < num_note_groups; idx++) {
 1091              		.loc 1 184 0
 1092 000c 0023     		movs	r3, #0
 1093 000e BB61     		str	r3, [r7, #24]
 1094 0010 15E0     		b	.L57
 1095              	.L59:
 1096              	.LBB10:
 185:game.c        ****         NOTE_GROUP* ng = &note_groups[idx];
 1097              		.loc 1 185 0
 1098 0012 BA69     		ldr	r2, [r7, #24]
 1099 0014 1346     		mov	r3, r2
 1100 0016 9B00     		lsls	r3, r3, #2
 1101 0018 1344     		add	r3, r3, r2
 1102 001a 9B00     		lsls	r3, r3, #2
 1103 001c 1A46     		mov	r2, r3
 1104 001e 7B68     		ldr	r3, [r7, #4]
 1105 0020 1344     		add	r3, r3, r2
 1106 0022 3B61     		str	r3, [r7, #16]
 186:game.c        ****         if(ng->pos.y < NOTE_GROUP_SPAWN_Y_THRESH && ng->active == TRUE) {
 1107              		.loc 1 186 0
ARM GAS  C:\Users\Matthew\AppData\Local\Temp\cc8zrVxn.s 			page 24


 1108 0024 3B69     		ldr	r3, [r7, #16]
 1109 0026 9B68     		ldr	r3, [r3, #8]
 1110 0028 0E2B     		cmp	r3, #14
 1111 002a 05DC     		bgt	.L58
 1112              		.loc 1 186 0 is_stmt 0 discriminator 1
 1113 002c 3B69     		ldr	r3, [r7, #16]
 1114 002e DB78     		ldrb	r3, [r3, #3]	@ zero_extendqisi2
 1115 0030 012B     		cmp	r3, #1
 1116 0032 01D1     		bne	.L58
 187:game.c        ****             all_note_groups_past_threshold = FALSE;
 1117              		.loc 1 187 0 is_stmt 1
 1118 0034 0023     		movs	r3, #0
 1119 0036 FB77     		strb	r3, [r7, #31]
 1120              	.L58:
 1121              	.LBE10:
 184:game.c        ****         NOTE_GROUP* ng = &note_groups[idx];
 1122              		.loc 1 184 0 discriminator 2
 1123 0038 BB69     		ldr	r3, [r7, #24]
 1124 003a 0133     		adds	r3, r3, #1
 1125 003c BB61     		str	r3, [r7, #24]
 1126              	.L57:
 184:game.c        ****         NOTE_GROUP* ng = &note_groups[idx];
 1127              		.loc 1 184 0 is_stmt 0 discriminator 1
 1128 003e 0323     		movs	r3, #3
 1129 0040 1A46     		mov	r2, r3
 1130 0042 BB69     		ldr	r3, [r7, #24]
 1131 0044 9A42     		cmp	r2, r3
 1132 0046 E4DC     		bgt	.L59
 1133              	.LBE9:
 1134              	.LBB11:
 188:game.c        ****         }
 189:game.c        ****     }
 190:game.c        ****     for(int idx = 0; idx < num_note_groups; idx++) {
 1135              		.loc 1 190 0 is_stmt 1
 1136 0048 0023     		movs	r3, #0
 1137 004a 7B61     		str	r3, [r7, #20]
 1138 004c 19E0     		b	.L60
 1139              	.L63:
 1140              	.LBB12:
 191:game.c        ****         NOTE_GROUP* ng = &note_groups[idx];
 1141              		.loc 1 191 0
 1142 004e 7A69     		ldr	r2, [r7, #20]
 1143 0050 1346     		mov	r3, r2
 1144 0052 9B00     		lsls	r3, r3, #2
 1145 0054 1344     		add	r3, r3, r2
 1146 0056 9B00     		lsls	r3, r3, #2
 1147 0058 1A46     		mov	r2, r3
 1148 005a 7B68     		ldr	r3, [r7, #4]
 1149 005c 1344     		add	r3, r3, r2
 1150 005e FB60     		str	r3, [r7, #12]
 192:game.c        ****         if(ng->active == FALSE && all_note_groups_past_threshold) {
 1151              		.loc 1 192 0
 1152 0060 FB68     		ldr	r3, [r7, #12]
 1153 0062 DB78     		ldrb	r3, [r3, #3]	@ zero_extendqisi2
 1154 0064 002B     		cmp	r3, #0
 1155 0066 09D1     		bne	.L61
 1156              		.loc 1 192 0 is_stmt 0 discriminator 1
ARM GAS  C:\Users\Matthew\AppData\Local\Temp\cc8zrVxn.s 			page 25


 1157 0068 FB7F     		ldrb	r3, [r7, #31]	@ zero_extendqisi2
 1158 006a 002B     		cmp	r3, #0
 1159 006c 06D0     		beq	.L61
 193:game.c        ****             ng->active = TRUE;
 1160              		.loc 1 193 0 is_stmt 1
 1161 006e FB68     		ldr	r3, [r7, #12]
 1162 0070 0122     		movs	r2, #1
 1163 0072 DA70     		strb	r2, [r3, #3]
 194:game.c        ****             generate_random_note_group(ng);
 1164              		.loc 1 194 0
 1165 0074 F868     		ldr	r0, [r7, #12]
 1166 0076 FFF7FEFF 		bl	generate_random_note_group
 195:game.c        ****             return;
 1167              		.loc 1 195 0
 1168 007a 07E0     		b	.L56
 1169              	.L61:
 1170              	.LBE12:
 190:game.c        ****         NOTE_GROUP* ng = &note_groups[idx];
 1171              		.loc 1 190 0 discriminator 2
 1172 007c 7B69     		ldr	r3, [r7, #20]
 1173 007e 0133     		adds	r3, r3, #1
 1174 0080 7B61     		str	r3, [r7, #20]
 1175              	.L60:
 190:game.c        ****         NOTE_GROUP* ng = &note_groups[idx];
 1176              		.loc 1 190 0 is_stmt 0 discriminator 1
 1177 0082 0323     		movs	r3, #3
 1178 0084 1A46     		mov	r2, r3
 1179 0086 7B69     		ldr	r3, [r7, #20]
 1180 0088 9A42     		cmp	r2, r3
 1181 008a E0DC     		bgt	.L63
 1182              	.L56:
 1183              	.LBE11:
 196:game.c        ****         } 
 197:game.c        ****     }
 198:game.c        ****     
 199:game.c        **** }
 1184              		.loc 1 199 0 is_stmt 1
 1185 008c 2037     		adds	r7, r7, #32
 1186              		.cfi_def_cfa_offset 8
 1187 008e BD46     		mov	sp, r7
 1188              		.cfi_def_cfa_register 13
 1189              		@ sp needed
 1190 0090 80BD     		pop	{r7, pc}
 1191              		.cfi_endproc
 1192              	.LFE11:
 1193              		.size	handle_note_group_spawn, .-handle_note_group_spawn
 1194 0092 00BF     		.section	.text.draw_all_note_groups,"ax",%progbits
 1195              		.align	2
 1196              		.global	draw_all_note_groups
 1197              		.thumb
 1198              		.thumb_func
 1199              		.type	draw_all_note_groups, %function
 1200              	draw_all_note_groups:
 1201              	.LFB12:
 200:game.c        **** 
 201:game.c        **** void draw_all_note_groups(Harmonica* h) {
 1202              		.loc 1 201 0
ARM GAS  C:\Users\Matthew\AppData\Local\Temp\cc8zrVxn.s 			page 26


 1203              		.cfi_startproc
 1204              		@ args = 0, pretend = 0, frame = 16
 1205              		@ frame_needed = 1, uses_anonymous_args = 0
 1206 0000 80B5     		push	{r7, lr}
 1207              		.cfi_def_cfa_offset 8
 1208              		.cfi_offset 7, -8
 1209              		.cfi_offset 14, -4
 1210 0002 84B0     		sub	sp, sp, #16
 1211              		.cfi_def_cfa_offset 24
 1212 0004 00AF     		add	r7, sp, #0
 1213              		.cfi_def_cfa_register 7
 1214 0006 7860     		str	r0, [r7, #4]
 1215              	.LBB13:
 202:game.c        ****     for(int idx = 0; idx < num_note_groups; idx++) {
 1216              		.loc 1 202 0
 1217 0008 0023     		movs	r3, #0
 1218 000a FB60     		str	r3, [r7, #12]
 1219 000c 0DE0     		b	.L65
 1220              	.L66:
 203:game.c        ****         draw_note_group(&note_groups[idx], h);
 1221              		.loc 1 203 0 discriminator 3
 1222 000e FA68     		ldr	r2, [r7, #12]
 1223 0010 1346     		mov	r3, r2
 1224 0012 9B00     		lsls	r3, r3, #2
 1225 0014 1344     		add	r3, r3, r2
 1226 0016 9B00     		lsls	r3, r3, #2
 1227 0018 084A     		ldr	r2, .L67
 1228 001a 1344     		add	r3, r3, r2
 1229 001c 7968     		ldr	r1, [r7, #4]
 1230 001e 1846     		mov	r0, r3
 1231 0020 FFF7FEFF 		bl	draw_note_group
 202:game.c        ****     for(int idx = 0; idx < num_note_groups; idx++) {
 1232              		.loc 1 202 0 discriminator 3
 1233 0024 FB68     		ldr	r3, [r7, #12]
 1234 0026 0133     		adds	r3, r3, #1
 1235 0028 FB60     		str	r3, [r7, #12]
 1236              	.L65:
 202:game.c        ****     for(int idx = 0; idx < num_note_groups; idx++) {
 1237              		.loc 1 202 0 is_stmt 0 discriminator 1
 1238 002a 0323     		movs	r3, #3
 1239 002c 1A46     		mov	r2, r3
 1240 002e FB68     		ldr	r3, [r7, #12]
 1241 0030 9A42     		cmp	r2, r3
 1242 0032 ECDC     		bgt	.L66
 1243              	.LBE13:
 204:game.c        ****     }
 205:game.c        **** }
 1244              		.loc 1 205 0 is_stmt 1
 1245 0034 00BF     		nop
 1246 0036 1037     		adds	r7, r7, #16
 1247              		.cfi_def_cfa_offset 8
 1248 0038 BD46     		mov	sp, r7
 1249              		.cfi_def_cfa_register 13
 1250              		@ sp needed
 1251 003a 80BD     		pop	{r7, pc}
 1252              	.L68:
 1253              		.align	2
ARM GAS  C:\Users\Matthew\AppData\Local\Temp\cc8zrVxn.s 			page 27


 1254              	.L67:
 1255 003c 00000000 		.word	note_groups
 1256              		.cfi_endproc
 1257              	.LFE12:
 1258              		.size	draw_all_note_groups, .-draw_all_note_groups
 1259              		.text
 1260              	.Letext0:
 1261              		.file 2 "c:\\program files (x86)\\cypress\\psoc creator\\4.2\\psoc creator\\import\\gnu\\arm\\5.4.
 1262              		.file 3 "c:\\program files (x86)\\cypress\\psoc creator\\4.2\\psoc creator\\import\\gnu\\arm\\5.4.
 1263              		.file 4 "Generated_Source\\PSoC5/cytypes.h"
 1264              		.file 5 "harmonica_control.h"
 1265              		.file 6 "game.h"