ARM GAS  C:\Users\Matthew\AppData\Local\Temp\ccQKdTfJ.s 			page 1


   1              		.syntax unified
   2              		.cpu cortex-m3
   3              		.fpu softvfp
   4              		.eabi_attribute 20, 1
   5              		.eabi_attribute 21, 1
   6              		.eabi_attribute 23, 3
   7              		.eabi_attribute 24, 1
   8              		.eabi_attribute 25, 1
   9              		.eabi_attribute 26, 1
  10              		.eabi_attribute 30, 6
  11              		.eabi_attribute 34, 1
  12              		.eabi_attribute 18, 4
  13              		.thumb
  14              		.syntax unified
  15              		.file	"led_mux.c"
  16              		.text
  17              	.Ltext0:
  18              		.cfi_sections	.debug_frame
  19              		.section	.text.led_read_mux,"ax",%progbits
  20              		.align	2
  21              		.global	led_read_mux
  22              		.thumb
  23              		.thumb_func
  24              		.type	led_read_mux, %function
  25              	led_read_mux:
  26              	.LFB0:
  27              		.file 1 "led_mux.c"
   1:led_mux.c     **** /* ========================================
   2:led_mux.c     ****  *
   3:led_mux.c     ****  * Copyright YOUR COMPANY, THE YEAR
   4:led_mux.c     ****  * All Rights Reserved
   5:led_mux.c     ****  * UNPUBLISHED, LICENSED SOFTWARE.
   6:led_mux.c     ****  *
   7:led_mux.c     ****  * CONFIDENTIAL AND PROPRIETARY INFORMATION
   8:led_mux.c     ****  * WHICH IS THE PROPERTY OF your company.
   9:led_mux.c     ****  *
  10:led_mux.c     ****  * ========================================
  11:led_mux.c     **** */
  12:led_mux.c     **** #include "led_mux.h"
  13:led_mux.c     **** 
  14:led_mux.c     **** int16 led_read_mux(int8 channel) {
  28              		.loc 1 14 0
  29              		.cfi_startproc
  30              		@ args = 0, pretend = 0, frame = 8
  31              		@ frame_needed = 1, uses_anonymous_args = 0
  32 0000 80B5     		push	{r7, lr}
  33              		.cfi_def_cfa_offset 8
  34              		.cfi_offset 7, -8
  35              		.cfi_offset 14, -4
  36 0002 82B0     		sub	sp, sp, #8
  37              		.cfi_def_cfa_offset 16
  38 0004 00AF     		add	r7, sp, #0
  39              		.cfi_def_cfa_register 7
  40 0006 0346     		mov	r3, r0
  41 0008 FB71     		strb	r3, [r7, #7]
  15:led_mux.c     ****     led_enable_mux(channel);
  42              		.loc 1 15 0
ARM GAS  C:\Users\Matthew\AppData\Local\Temp\ccQKdTfJ.s 			page 2


  43 000a 97F90730 		ldrsb	r3, [r7, #7]
  44 000e 1846     		mov	r0, r3
  45 0010 FFF7FEFF 		bl	led_enable_mux
  16:led_mux.c     ****     inhibit_output(0);
  46              		.loc 1 16 0
  47 0014 0020     		movs	r0, #0
  48 0016 FFF7FEFF 		bl	inhibit_output
  17:led_mux.c     ****     CyDelayCycles(10);
  49              		.loc 1 17 0
  50 001a 0A20     		movs	r0, #10
  51 001c FFF7FEFF 		bl	CyDelayCycles
  18:led_mux.c     ****     
  19:led_mux.c     ****     
  20:led_mux.c     **** }
  52              		.loc 1 20 0
  53 0020 00BF     		nop
  54 0022 1846     		mov	r0, r3
  55 0024 0837     		adds	r7, r7, #8
  56              		.cfi_def_cfa_offset 8
  57 0026 BD46     		mov	sp, r7
  58              		.cfi_def_cfa_register 13
  59              		@ sp needed
  60 0028 80BD     		pop	{r7, pc}
  61              		.cfi_endproc
  62              	.LFE0:
  63              		.size	led_read_mux, .-led_read_mux
  64 002a 00BF     		.section	.text.led_enable_mux,"ax",%progbits
  65              		.align	2
  66              		.global	led_enable_mux
  67              		.thumb
  68              		.thumb_func
  69              		.type	led_enable_mux, %function
  70              	led_enable_mux:
  71              	.LFB1:
  21:led_mux.c     **** 
  22:led_mux.c     **** void led_enable_mux(int8 channel) {    
  72              		.loc 1 22 0
  73              		.cfi_startproc
  74              		@ args = 0, pretend = 0, frame = 16
  75              		@ frame_needed = 1, uses_anonymous_args = 0
  76 0000 80B5     		push	{r7, lr}
  77              		.cfi_def_cfa_offset 8
  78              		.cfi_offset 7, -8
  79              		.cfi_offset 14, -4
  80 0002 84B0     		sub	sp, sp, #16
  81              		.cfi_def_cfa_offset 24
  82 0004 00AF     		add	r7, sp, #0
  83              		.cfi_def_cfa_register 7
  84 0006 0346     		mov	r3, r0
  85 0008 FB71     		strb	r3, [r7, #7]
  23:led_mux.c     ****     int8 channel_masked = channel & (0x0F);
  86              		.loc 1 23 0
  87 000a FB79     		ldrb	r3, [r7, #7]
  88 000c 03F00F03 		and	r3, r3, #15
  89 0010 FB73     		strb	r3, [r7, #15]
  24:led_mux.c     ****     MUX_A_Write((channel_masked >> 0)&0x01);
  90              		.loc 1 24 0
ARM GAS  C:\Users\Matthew\AppData\Local\Temp\ccQKdTfJ.s 			page 3


  91 0012 FB7B     		ldrb	r3, [r7, #15]	@ zero_extendqisi2
  92 0014 03F00103 		and	r3, r3, #1
  93 0018 DBB2     		uxtb	r3, r3
  94 001a 1846     		mov	r0, r3
  95 001c FFF7FEFF 		bl	MUX_A_Write
  25:led_mux.c     ****     MUX_B_Write((channel_masked >> 1) & 0x01);
  96              		.loc 1 25 0
  97 0020 97F90F30 		ldrsb	r3, [r7, #15]
  98 0024 5B10     		asrs	r3, r3, #1
  99 0026 5BB2     		sxtb	r3, r3
 100 0028 DBB2     		uxtb	r3, r3
 101 002a 03F00103 		and	r3, r3, #1
 102 002e DBB2     		uxtb	r3, r3
 103 0030 1846     		mov	r0, r3
 104 0032 FFF7FEFF 		bl	MUX_B_Write
  26:led_mux.c     ****     MUX_C_Write((channel_masked >> 2) & 0x01);
 105              		.loc 1 26 0
 106 0036 97F90F30 		ldrsb	r3, [r7, #15]
 107 003a 9B10     		asrs	r3, r3, #2
 108 003c 5BB2     		sxtb	r3, r3
 109 003e DBB2     		uxtb	r3, r3
 110 0040 03F00103 		and	r3, r3, #1
 111 0044 DBB2     		uxtb	r3, r3
 112 0046 1846     		mov	r0, r3
 113 0048 FFF7FEFF 		bl	MUX_C_Write
  27:led_mux.c     ****     MUX_D_Write((channel_masked >> 3) & 0x01);
 114              		.loc 1 27 0
 115 004c 97F90F30 		ldrsb	r3, [r7, #15]
 116 0050 DB10     		asrs	r3, r3, #3
 117 0052 5BB2     		sxtb	r3, r3
 118 0054 DBB2     		uxtb	r3, r3
 119 0056 03F00103 		and	r3, r3, #1
 120 005a DBB2     		uxtb	r3, r3
 121 005c 1846     		mov	r0, r3
 122 005e FFF7FEFF 		bl	MUX_D_Write
  28:led_mux.c     **** }
 123              		.loc 1 28 0
 124 0062 00BF     		nop
 125 0064 1037     		adds	r7, r7, #16
 126              		.cfi_def_cfa_offset 8
 127 0066 BD46     		mov	sp, r7
 128              		.cfi_def_cfa_register 13
 129              		@ sp needed
 130 0068 80BD     		pop	{r7, pc}
 131              		.cfi_endproc
 132              	.LFE1:
 133              		.size	led_enable_mux, .-led_enable_mux
 134 006a 00BF     		.section	.text.inhibit_output,"ax",%progbits
 135              		.align	2
 136              		.global	inhibit_output
 137              		.thumb
 138              		.thumb_func
 139              		.type	inhibit_output, %function
 140              	inhibit_output:
 141              	.LFB2:
  29:led_mux.c     **** 
  30:led_mux.c     **** void inhibit_output(int8 inhibit) {
ARM GAS  C:\Users\Matthew\AppData\Local\Temp\ccQKdTfJ.s 			page 4


 142              		.loc 1 30 0
 143              		.cfi_startproc
 144              		@ args = 0, pretend = 0, frame = 8
 145              		@ frame_needed = 1, uses_anonymous_args = 0
 146 0000 80B5     		push	{r7, lr}
 147              		.cfi_def_cfa_offset 8
 148              		.cfi_offset 7, -8
 149              		.cfi_offset 14, -4
 150 0002 82B0     		sub	sp, sp, #8
 151              		.cfi_def_cfa_offset 16
 152 0004 00AF     		add	r7, sp, #0
 153              		.cfi_def_cfa_register 7
 154 0006 0346     		mov	r3, r0
 155 0008 FB71     		strb	r3, [r7, #7]
  31:led_mux.c     ****     if(inhibit == 0) {
 156              		.loc 1 31 0
 157 000a 97F90730 		ldrsb	r3, [r7, #7]
 158 000e 002B     		cmp	r3, #0
 159 0010 03D1     		bne	.L4
  32:led_mux.c     ****         MUX_INHIBIT_Write(0);
 160              		.loc 1 32 0
 161 0012 0020     		movs	r0, #0
 162 0014 FFF7FEFF 		bl	MUX_INHIBIT_Write
  33:led_mux.c     ****     } else {
  34:led_mux.c     ****         MUX_INHIBIT_Write(1);
  35:led_mux.c     ****     }
  36:led_mux.c     **** }
 163              		.loc 1 36 0
 164 0018 02E0     		b	.L6
 165              	.L4:
  34:led_mux.c     ****     }
 166              		.loc 1 34 0
 167 001a 0120     		movs	r0, #1
 168 001c FFF7FEFF 		bl	MUX_INHIBIT_Write
 169              	.L6:
 170              		.loc 1 36 0
 171 0020 00BF     		nop
 172 0022 0837     		adds	r7, r7, #8
 173              		.cfi_def_cfa_offset 8
 174 0024 BD46     		mov	sp, r7
 175              		.cfi_def_cfa_register 13
 176              		@ sp needed
 177 0026 80BD     		pop	{r7, pc}
 178              		.cfi_endproc
 179              	.LFE2:
 180              		.size	inhibit_output, .-inhibit_output
 181              		.text
 182              	.Letext0:
 183              		.file 2 "Generated_Source\\PSoC5/cytypes.h"