ARM GAS  C:\Users\Matthew\AppData\Local\Temp\ccZ48awh.s 			page 1


   1              		.syntax unified
   2              		.cpu cortex-m3
   3              		.fpu softvfp
   4              		.eabi_attribute 20, 1
   5              		.eabi_attribute 21, 1
   6              		.eabi_attribute 23, 3
   7              		.eabi_attribute 24, 1
   8              		.eabi_attribute 25, 1
   9              		.eabi_attribute 26, 1
  10              		.eabi_attribute 30, 6
  11              		.eabi_attribute 34, 1
  12              		.eabi_attribute 18, 4
  13              		.thumb
  14              		.syntax unified
  15              		.file	"main.c"
  16              		.text
  17              	.Ltext0:
  18              		.cfi_sections	.debug_frame
  19              		.section	.rodata
  20              		.align	2
  21              	.LC0:
  22 0000 426C6F77 		.ascii	"Blow\000"
  22      00
  23 0005 000000   		.align	2
  24              	.LC1:
  25 0008 5375636B 		.ascii	"Suck\000"
  25      00
  26 000d 000000   		.align	2
  27              	.LC2:
  28 0010 4E6F6E65 		.ascii	"None\000"
  28      00
  29 0015 000000   		.align	2
  30              	.LC3:
  31 0018 256400   		.ascii	"%d\000"
  32 001b 00       		.align	2
  33              	.LC4:
  34 001c 52656320 		.ascii	"Rec %d/20\000"
  34      25642F32 
  34      3000
  35 0026 0000     		.align	2
  36              	.LC5:
  37 0028 4543484F 		.ascii	"ECHO\000"
  37      00
  38              		.section	.text.main,"ax",%progbits
  39              		.align	2
  40              		.global	main
  41              		.thumb
  42              		.thumb_func
  43              		.type	main, %function
  44              	main:
  45              	.LFB64:
  46              		.file 1 "main.c"
   1:main.c        **** /*******************************************************************************
   2:main.c        **** * File Name: main.c
   3:main.c        **** *
   4:main.c        **** * Version: 1.0
   5:main.c        **** *
ARM GAS  C:\Users\Matthew\AppData\Local\Temp\ccZ48awh.s 			page 2


   6:main.c        **** * Description:
   7:main.c        **** * This example project demonstrates the basic functionality of the DVDAC
   8:main.c        **** * component. The Delta Sigma ADC component is used to measure the output
   9:main.c        **** * voltage.
  10:main.c        **** *
  11:main.c        **** ********************************************************************************
  12:main.c        **** * Copyright 2013-2014, Cypress Semiconductor Corporation. All rights reserved.
  13:main.c        **** * You may use this file only in accordance with the license, terms, conditions,
  14:main.c        **** * disclaimers, and limitations in the end user license agreement accompanying
  15:main.c        **** * the software package with which this file was provided.
  16:main.c        **** *******************************************************************************/
  17:main.c        **** 
  18:main.c        **** #include <device.h>
  19:main.c        **** #include <stdio.h>
  20:main.c        **** #include "photo_mux.h"
  21:main.c        **** #include "harmonica_control.h"
  22:main.c        **** #include "common.h"
  23:main.c        **** #include "Num_Notes_Selector_ADC.h"
  24:main.c        **** #include "oled_ssd1331.h"
  25:main.c        **** #include "game.h"
  26:main.c        **** 
  27:main.c        **** int16 ADC_DelSig_ReadInt16(void);
  28:main.c        **** 
  29:main.c        **** 
  30:main.c        **** int main()
  31:main.c        **** {
  47              		.loc 1 31 0
  48              		.cfi_startproc
  49              		@ args = 0, pretend = 0, frame = 56
  50              		@ frame_needed = 1, uses_anonymous_args = 0
  51 0000 80B5     		push	{r7, lr}
  52              		.cfi_def_cfa_offset 8
  53              		.cfi_offset 7, -8
  54              		.cfi_offset 14, -4
  55 0002 8EB0     		sub	sp, sp, #56
  56              		.cfi_def_cfa_offset 64
  57 0004 00AF     		add	r7, sp, #0
  58              		.cfi_def_cfa_register 7
  32:main.c        ****     char   muxline[16u];
  33:main.c        ****     char   labelline[16u];
  34:main.c        ****     
  35:main.c        ****     /* Start components */
  36:main.c        ****     VDAC8_1_Start();
  59              		.loc 1 36 0
  60 0006 FFF7FEFF 		bl	VDAC8_1_Start
  37:main.c        ****     ADC_DelSig_Start();
  61              		.loc 1 37 0
  62 000a FFF7FEFF 		bl	ADC_DelSig_Start
  38:main.c        ****     LCD_Start();
  63              		.loc 1 38 0
  64 000e FFF7FEFF 		bl	LCD_Start
  39:main.c        ****     Timer_1_Start();
  65              		.loc 1 39 0
  66 0012 FFF7FEFF 		bl	Timer_1_Start
  40:main.c        ****     Clock_1_Start();
  67              		.loc 1 40 0
  68 0016 FFF7FEFF 		bl	Clock_1_Start
ARM GAS  C:\Users\Matthew\AppData\Local\Temp\ccZ48awh.s 			page 3


  41:main.c        ****     Clock_2_Start();
  69              		.loc 1 41 0
  70 001a FFF7FEFF 		bl	Clock_2_Start
  42:main.c        ****     Clock_3_Start();
  71              		.loc 1 42 0
  72 001e FFF7FEFF 		bl	Clock_3_Start
  43:main.c        ****     Timer_2_Start();
  73              		.loc 1 43 0
  74 0022 FFF7FEFF 		bl	Timer_2_Start
  44:main.c        ****     ms_counter_Start();
  75              		.loc 1 44 0
  76 0026 FFF7FEFF 		bl	ms_counter_Start
  45:main.c        ****     game_random_mode_generator_Start();
  77              		.loc 1 45 0
  78 002a FFF7FEFF 		bl	game_random_mode_generator_Start
  46:main.c        ****     init_harmonica(&harmonica);
  79              		.loc 1 46 0
  80 002e 4748     		ldr	r0, .L9
  81 0030 FFF7FEFF 		bl	init_harmonica
  47:main.c        ****     init_harmonica_control();
  82              		.loc 1 47 0
  83 0034 FFF7FEFF 		bl	init_harmonica_control
  48:main.c        ****     
  49:main.c        ****     audio_isr_Start();  // this interrupt plays c4 currently
  84              		.loc 1 49 0
  85 0038 FFF7FEFF 		bl	audio_isr_Start
  50:main.c        ****     //harmonica_isr_Start();
  51:main.c        ****     CySysTickStart();
  86              		.loc 1 51 0
  87 003c FFF7FEFF 		bl	CySysTickStart
  52:main.c        ****     CyGlobalIntEnable; /* enable Global interrupts */ 
  88              		.loc 1 52 0
  89              		.syntax unified
  90              	@ 52 "main.c" 1
  91 0040 62B6     		CPSIE   i
  92              	@ 0 "" 2
  53:main.c        **** 
  54:main.c        ****     Num_Notes_Selector_ADC_Start();
  93              		.loc 1 54 0
  94              		.thumb
  95              		.syntax unified
  96 0042 FFF7FEFF 		bl	Num_Notes_Selector_ADC_Start
  55:main.c        ****     spi_done_Start();
  97              		.loc 1 55 0
  98 0046 FFF7FEFF 		bl	spi_done_Start
  56:main.c        ****     SPI_OLED_Start();
  99              		.loc 1 56 0
 100 004a FFF7FEFF 		bl	SPI_OLED_Start
  57:main.c        ****     SPI_OLED_TxEnable();
 101              		.loc 1 57 0
 102 004e FFF7FEFF 		bl	SPI_OLED_TxEnable
  58:main.c        ****     init_oled();
 103              		.loc 1 58 0
 104 0052 FFF7FEFF 		bl	init_oled
  59:main.c        ****     clear_whole_display();
 105              		.loc 1 59 0
 106 0056 FFF7FEFF 		bl	clear_whole_display
ARM GAS  C:\Users\Matthew\AppData\Local\Temp\ccZ48awh.s 			page 4


  60:main.c        ****     
  61:main.c        ****     game_init();
 107              		.loc 1 61 0
 108 005a FFF7FEFF 		bl	game_init
 109              	.L8:
  62:main.c        ****     
  63:main.c        ****     for(;;)
  64:main.c        ****     {
  65:main.c        ****         
  66:main.c        ****         // send_cmd(0xAE);
  67:main.c        ****         // 4, 5, 6, 7, 8 channels don't work
  68:main.c        ****         // 0100, 0101, 0110, 0111, 1000
  69:main.c        **** //        for(int channel = 0; channel < 10; channel++) {
  70:main.c        **** //            sprintf(
  71:main.c        **** //            muxline, "%d",
  72:main.c        **** //            (int16) photo_read_mux(channel)
  73:main.c        **** //            );
  74:main.c        **** //            sprintf(
  75:main.c        **** //                labelline, "Photo #%d",
  76:main.c        **** //                channel);
  77:main.c        **** //            
  78:main.c        **** //            LCD_ClearDisplay();
  79:main.c        **** //            LCD_Position(0u, 0u);
  80:main.c        **** //            LCD_PrintString(labelline);
  81:main.c        **** //            LCD_Position(1u, 0u);
  82:main.c        **** //            LCD_PrintString(muxline);
  83:main.c        **** //
  84:main.c        **** //            CyDelay(1000u);
  85:main.c        **** //        }
  86:main.c        **** //            uint8 channel = 4;
  87:main.c        **** //            photo_enable_mux(channel);
  88:main.c        **** //            inhibit_output(0);
  89:main.c        **** //            CyDelayCycles(10);
  90:main.c        **** //            int16 result = read_mux();
  91:main.c        **** //            sprintf(
  92:main.c        **** //            muxline, "%d",
  93:main.c        **** //            (int16) photo_read_mux(channel)
  94:main.c        **** //            );
  95:main.c        **** //            sprintf(
  96:main.c        **** //                labelline, "Photo #%d",
  97:main.c        **** //                channel);
  98:main.c        **** //            
  99:main.c        **** //            LCD_ClearDisplay();
 100:main.c        **** //            LCD_Position(0u, 0u);
 101:main.c        **** //            LCD_PrintString(labelline);
 102:main.c        **** //            LCD_Position(1u, 0u);
 103:main.c        **** //            LCD_PrintString(muxline);
 104:main.c        **** //            CyDelay(1000u);
 105:main.c        ****         
 106:main.c        ****         
 107:main.c        **** //            OLED_CS_Write(1);
 108:main.c        **** //            OLED_DC_Write(1);
 109:main.c        **** //            OLED_SDA_Write(1);
 110:main.c        **** //            OLED_SCK_Write(1);
 111:main.c        ****              
 112:main.c        ****             game_tick(&harmonica);
 110              		.loc 1 112 0
ARM GAS  C:\Users\Matthew\AppData\Local\Temp\ccZ48awh.s 			page 5


 111 005e 3B48     		ldr	r0, .L9
 112 0060 FFF7FEFF 		bl	game_tick
 113:main.c        ****             
 114:main.c        ****             harmonica_tick(&harmonica);
 113              		.loc 1 114 0
 114 0064 3948     		ldr	r0, .L9
 115 0066 FFF7FEFF 		bl	harmonica_tick
 115:main.c        ****             if(harmonica.recent_change == TRUE) {
 116              		.loc 1 115 0
 117 006a 384B     		ldr	r3, .L9
 118 006c 9B7B     		ldrb	r3, [r3, #14]	@ zero_extendqisi2
 119 006e 012B     		cmp	r3, #1
 120 0070 F5D1     		bne	.L8
 116:main.c        ****                 LCD_ClearDisplay();
 121              		.loc 1 116 0
 122 0072 0120     		movs	r0, #1
 123 0074 FFF7FEFF 		bl	LCD_WriteControl
 117:main.c        ****                 switch(harmonica.current_note_mode) {
 124              		.loc 1 117 0
 125 0078 344B     		ldr	r3, .L9
 126 007a 1B78     		ldrb	r3, [r3]	@ zero_extendqisi2
 127 007c 012B     		cmp	r3, #1
 128 007e 0BD0     		beq	.L4
 129 0080 022B     		cmp	r3, #2
 130 0082 11D0     		beq	.L5
 131 0084 002B     		cmp	r3, #0
 132 0086 17D1     		bne	.L3
 118:main.c        ****                     case BLOWN_NOTES:
 119:main.c        ****                         LCD_Position(0u,0u);
 133              		.loc 1 119 0
 134 0088 0021     		movs	r1, #0
 135 008a 0020     		movs	r0, #0
 136 008c FFF7FEFF 		bl	LCD_Position
 120:main.c        ****                         LCD_PrintString("Blow");
 137              		.loc 1 120 0
 138 0090 2F48     		ldr	r0, .L9+4
 139 0092 FFF7FEFF 		bl	LCD_PrintString
 121:main.c        ****                     break;
 140              		.loc 1 121 0
 141 0096 0FE0     		b	.L3
 142              	.L4:
 122:main.c        ****                     case SUCKED_NOTES:
 123:main.c        ****                         LCD_Position(0u,0u);
 143              		.loc 1 123 0
 144 0098 0021     		movs	r1, #0
 145 009a 0020     		movs	r0, #0
 146 009c FFF7FEFF 		bl	LCD_Position
 124:main.c        ****                         LCD_PrintString("Suck");
 147              		.loc 1 124 0
 148 00a0 2C48     		ldr	r0, .L9+8
 149 00a2 FFF7FEFF 		bl	LCD_PrintString
 125:main.c        ****                     break;
 150              		.loc 1 125 0
 151 00a6 07E0     		b	.L3
 152              	.L5:
 126:main.c        ****                     case NO_NOTES:
 127:main.c        ****                         LCD_Position(0u,0u);
ARM GAS  C:\Users\Matthew\AppData\Local\Temp\ccZ48awh.s 			page 6


 153              		.loc 1 127 0
 154 00a8 0021     		movs	r1, #0
 155 00aa 0020     		movs	r0, #0
 156 00ac FFF7FEFF 		bl	LCD_Position
 128:main.c        ****                         LCD_PrintString("None");
 157              		.loc 1 128 0
 158 00b0 2948     		ldr	r0, .L9+12
 159 00b2 FFF7FEFF 		bl	LCD_PrintString
 129:main.c        ****                     break;
 160              		.loc 1 129 0
 161 00b6 00BF     		nop
 162              	.L3:
 130:main.c        ****                 }
 131:main.c        ****                 
 132:main.c        ****                     LCD_Position(1u,0u);
 163              		.loc 1 132 0
 164 00b8 0021     		movs	r1, #0
 165 00ba 0120     		movs	r0, #1
 166 00bc FFF7FEFF 		bl	LCD_Position
 133:main.c        ****                     sprintf(muxline, "%d", harmonica.active_hole);
 167              		.loc 1 133 0
 168 00c0 224B     		ldr	r3, .L9
 169 00c2 5B78     		ldrb	r3, [r3, #1]	@ zero_extendqisi2
 170 00c4 1A46     		mov	r2, r3
 171 00c6 07F12403 		add	r3, r7, #36
 172 00ca 2449     		ldr	r1, .L9+16
 173 00cc 1846     		mov	r0, r3
 174 00ce FFF7FEFF 		bl	sprintf
 134:main.c        ****                     LCD_PrintString(muxline);
 175              		.loc 1 134 0
 176 00d2 07F12403 		add	r3, r7, #36
 177 00d6 1846     		mov	r0, r3
 178 00d8 FFF7FEFF 		bl	LCD_PrintString
 135:main.c        ****                     
 136:main.c        ****                     sprintf(muxline, "%d", harmonica.raw_harmonica_output.num_notes_played);
 179              		.loc 1 136 0
 180 00dc 1B4B     		ldr	r3, .L9
 181 00de 93F90D30 		ldrsb	r3, [r3, #13]
 182 00e2 1A46     		mov	r2, r3
 183 00e4 07F12403 		add	r3, r7, #36
 184 00e8 1C49     		ldr	r1, .L9+16
 185 00ea 1846     		mov	r0, r3
 186 00ec FFF7FEFF 		bl	sprintf
 137:main.c        ****                     LCD_Position(1u,15u);
 187              		.loc 1 137 0
 188 00f0 0F21     		movs	r1, #15
 189 00f2 0120     		movs	r0, #1
 190 00f4 FFF7FEFF 		bl	LCD_Position
 138:main.c        ****                     LCD_PrintString(muxline);
 191              		.loc 1 138 0
 192 00f8 07F12403 		add	r3, r7, #36
 193 00fc 1846     		mov	r0, r3
 194 00fe FFF7FEFF 		bl	LCD_PrintString
 139:main.c        ****                     
 140:main.c        ****                 if(harmonica.output_mode == RECORDING) {
 195              		.loc 1 140 0
 196 0102 124B     		ldr	r3, .L9
ARM GAS  C:\Users\Matthew\AppData\Local\Temp\ccZ48awh.s 			page 7


 197 0104 1B7D     		ldrb	r3, [r3, #20]	@ zero_extendqisi2
 198 0106 022B     		cmp	r3, #2
 199 0108 13D1     		bne	.L7
 200              	.LBB2:
 141:main.c        **** 
 142:main.c        ****                     uint8 recordings_idx = harmonica.playback_notes.recordings_idx;
 201              		.loc 1 142 0
 202 010a 104B     		ldr	r3, .L9
 203 010c 93F8A831 		ldrb	r3, [r3, #424]
 204 0110 87F83730 		strb	r3, [r7, #55]
 143:main.c        ****                     LCD_Position(0u, 5u);
 205              		.loc 1 143 0
 206 0114 0521     		movs	r1, #5
 207 0116 0020     		movs	r0, #0
 208 0118 FFF7FEFF 		bl	LCD_Position
 144:main.c        ****                     char rec_string_buffer[20];
 145:main.c        ****                     sprintf(rec_string_buffer, "Rec %d/20", recordings_idx);
 209              		.loc 1 145 0
 210 011c 97F83720 		ldrb	r2, [r7, #55]	@ zero_extendqisi2
 211 0120 3B46     		mov	r3, r7
 212 0122 0F49     		ldr	r1, .L9+20
 213 0124 1846     		mov	r0, r3
 214 0126 FFF7FEFF 		bl	sprintf
 146:main.c        ****                     LCD_PrintString(rec_string_buffer);
 215              		.loc 1 146 0
 216 012a 3B46     		mov	r3, r7
 217 012c 1846     		mov	r0, r3
 218 012e FFF7FEFF 		bl	LCD_PrintString
 219              	.L7:
 220              	.LBE2:
 147:main.c        ****                 }
 148:main.c        ****                 
 149:main.c        ****                 if(harmonica.output_mode == ECHO) {
 221              		.loc 1 149 0
 222 0132 064B     		ldr	r3, .L9
 223 0134 1B7D     		ldrb	r3, [r3, #20]	@ zero_extendqisi2
 224 0136 012B     		cmp	r3, #1
 225 0138 91D1     		bne	.L8
 150:main.c        ****                     LCD_Position(0u, 5u);
 226              		.loc 1 150 0
 227 013a 0521     		movs	r1, #5
 228 013c 0020     		movs	r0, #0
 229 013e FFF7FEFF 		bl	LCD_Position
 151:main.c        ****                     LCD_PrintString("ECHO");
 230              		.loc 1 151 0
 231 0142 0848     		ldr	r0, .L9+24
 232 0144 FFF7FEFF 		bl	LCD_PrintString
 152:main.c        ****                 }
 153:main.c        ****             }
 154:main.c        ****             
 155:main.c        ****     }
 233              		.loc 1 155 0
 234 0148 89E7     		b	.L8
 235              	.L10:
 236 014a 00BF     		.align	2
 237              	.L9:
 238 014c 00000000 		.word	harmonica
ARM GAS  C:\Users\Matthew\AppData\Local\Temp\ccZ48awh.s 			page 8


 239 0150 00000000 		.word	.LC0
 240 0154 08000000 		.word	.LC1
 241 0158 10000000 		.word	.LC2
 242 015c 18000000 		.word	.LC3
 243 0160 1C000000 		.word	.LC4
 244 0164 28000000 		.word	.LC5
 245              		.cfi_endproc
 246              	.LFE64:
 247              		.size	main, .-main
 248              		.text
 249              	.Letext0:
 250              		.file 2 "c:\\program files (x86)\\cypress\\psoc creator\\4.2\\psoc creator\\import\\gnu\\arm\\5.4.
 251              		.file 3 "c:\\program files (x86)\\cypress\\psoc creator\\4.2\\psoc creator\\import\\gnu\\arm\\5.4.
 252              		.file 4 "Generated_Source\\PSoC5/cytypes.h"
 253              		.file 5 "harmonica_control.h"
 254              		.file 6 "Generated_Source\\PSoC5/core_cm3.h"