ARM GAS  C:\Users\Matthew\AppData\Local\Temp\ccvKoP6M.s 			page 1


   1              		.syntax unified
   2              		.cpu cortex-m3
   3              		.fpu softvfp
   4              		.eabi_attribute 20, 1
   5              		.eabi_attribute 21, 1
   6              		.eabi_attribute 23, 3
   7              		.eabi_attribute 24, 1
   8              		.eabi_attribute 25, 1
   9              		.eabi_attribute 26, 1
  10              		.eabi_attribute 30, 6
  11              		.eabi_attribute 34, 1
  12              		.eabi_attribute 18, 4
  13              		.thumb
  14              		.syntax unified
  15              		.file	"ms_counter.c"
  16              		.text
  17              	.Ltext0:
  18              		.cfi_sections	.debug_frame
  19              		.global	ms_counter_initVar
  20              		.bss
  21              		.type	ms_counter_initVar, %object
  22              		.size	ms_counter_initVar, 1
  23              	ms_counter_initVar:
  24 0000 00       		.space	1
  25              		.section	.text.ms_counter_Init,"ax",%progbits
  26              		.align	2
  27              		.global	ms_counter_Init
  28              		.thumb
  29              		.thumb_func
  30              		.type	ms_counter_Init, %function
  31              	ms_counter_Init:
  32              	.LFB0:
  33              		.file 1 "Generated_Source\\PSoC5\\ms_counter.c"
   1:Generated_Source\PSoC5/ms_counter.c **** /*******************************************************************************
   2:Generated_Source\PSoC5/ms_counter.c **** * File Name: ms_counter.c  
   3:Generated_Source\PSoC5/ms_counter.c **** * Version 3.0
   4:Generated_Source\PSoC5/ms_counter.c **** *
   5:Generated_Source\PSoC5/ms_counter.c **** *  Description:
   6:Generated_Source\PSoC5/ms_counter.c **** *     The Counter component consists of a 8, 16, 24 or 32-bit counter with
   7:Generated_Source\PSoC5/ms_counter.c **** *     a selectable period between 2 and 2^Width - 1.  
   8:Generated_Source\PSoC5/ms_counter.c **** *
   9:Generated_Source\PSoC5/ms_counter.c **** *   Note:
  10:Generated_Source\PSoC5/ms_counter.c **** *     None
  11:Generated_Source\PSoC5/ms_counter.c **** *
  12:Generated_Source\PSoC5/ms_counter.c **** ********************************************************************************
  13:Generated_Source\PSoC5/ms_counter.c **** * Copyright 2008-2012, Cypress Semiconductor Corporation.  All rights reserved.
  14:Generated_Source\PSoC5/ms_counter.c **** * You may use this file only in accordance with the license, terms, conditions, 
  15:Generated_Source\PSoC5/ms_counter.c **** * disclaimers, and limitations in the end user license agreement accompanying 
  16:Generated_Source\PSoC5/ms_counter.c **** * the software package with which this file was provided.
  17:Generated_Source\PSoC5/ms_counter.c **** *******************************************************************************/
  18:Generated_Source\PSoC5/ms_counter.c **** 
  19:Generated_Source\PSoC5/ms_counter.c **** #include "ms_counter.h"
  20:Generated_Source\PSoC5/ms_counter.c **** 
  21:Generated_Source\PSoC5/ms_counter.c **** uint8 ms_counter_initVar = 0u;
  22:Generated_Source\PSoC5/ms_counter.c **** 
  23:Generated_Source\PSoC5/ms_counter.c **** 
  24:Generated_Source\PSoC5/ms_counter.c **** /*******************************************************************************
ARM GAS  C:\Users\Matthew\AppData\Local\Temp\ccvKoP6M.s 			page 2


  25:Generated_Source\PSoC5/ms_counter.c **** * Function Name: ms_counter_Init
  26:Generated_Source\PSoC5/ms_counter.c **** ********************************************************************************
  27:Generated_Source\PSoC5/ms_counter.c **** * Summary:
  28:Generated_Source\PSoC5/ms_counter.c **** *     Initialize to the schematic state
  29:Generated_Source\PSoC5/ms_counter.c **** * 
  30:Generated_Source\PSoC5/ms_counter.c **** * Parameters:  
  31:Generated_Source\PSoC5/ms_counter.c **** *  void  
  32:Generated_Source\PSoC5/ms_counter.c **** *
  33:Generated_Source\PSoC5/ms_counter.c **** * Return: 
  34:Generated_Source\PSoC5/ms_counter.c **** *  void
  35:Generated_Source\PSoC5/ms_counter.c **** *
  36:Generated_Source\PSoC5/ms_counter.c **** *******************************************************************************/
  37:Generated_Source\PSoC5/ms_counter.c **** void ms_counter_Init(void) 
  38:Generated_Source\PSoC5/ms_counter.c **** {
  34              		.loc 1 38 0
  35              		.cfi_startproc
  36              		@ args = 0, pretend = 0, frame = 8
  37              		@ frame_needed = 1, uses_anonymous_args = 0
  38 0000 80B5     		push	{r7, lr}
  39              		.cfi_def_cfa_offset 8
  40              		.cfi_offset 7, -8
  41              		.cfi_offset 14, -4
  42 0002 82B0     		sub	sp, sp, #8
  43              		.cfi_def_cfa_offset 16
  44 0004 00AF     		add	r7, sp, #0
  45              		.cfi_def_cfa_register 7
  39:Generated_Source\PSoC5/ms_counter.c ****         #if (!ms_counter_UsingFixedFunction && !ms_counter_ControlRegRemoved)
  40:Generated_Source\PSoC5/ms_counter.c ****             uint8 ctrl;
  41:Generated_Source\PSoC5/ms_counter.c ****         #endif /* (!ms_counter_UsingFixedFunction && !ms_counter_ControlRegRemoved) */
  42:Generated_Source\PSoC5/ms_counter.c ****         
  43:Generated_Source\PSoC5/ms_counter.c ****         #if(!ms_counter_UsingFixedFunction) 
  44:Generated_Source\PSoC5/ms_counter.c ****             /* Interrupt State Backup for Critical Region*/
  45:Generated_Source\PSoC5/ms_counter.c ****             uint8 ms_counter_interruptState;
  46:Generated_Source\PSoC5/ms_counter.c ****         #endif /* (!ms_counter_UsingFixedFunction) */
  47:Generated_Source\PSoC5/ms_counter.c ****         
  48:Generated_Source\PSoC5/ms_counter.c ****         #if (ms_counter_UsingFixedFunction)
  49:Generated_Source\PSoC5/ms_counter.c ****             /* Clear all bits but the enable bit (if it's already set for Timer operation */
  50:Generated_Source\PSoC5/ms_counter.c ****             ms_counter_CONTROL &= ms_counter_CTRL_ENABLE;
  51:Generated_Source\PSoC5/ms_counter.c ****             
  52:Generated_Source\PSoC5/ms_counter.c ****             /* Clear the mode bits for continuous run mode */
  53:Generated_Source\PSoC5/ms_counter.c ****             #if (CY_PSOC5A)
  54:Generated_Source\PSoC5/ms_counter.c ****                 ms_counter_CONTROL2 &= ((uint8)(~ms_counter_CTRL_MODE_MASK));
  55:Generated_Source\PSoC5/ms_counter.c ****             #endif /* (CY_PSOC5A) */
  56:Generated_Source\PSoC5/ms_counter.c ****             #if (CY_PSOC3 || CY_PSOC5LP)
  57:Generated_Source\PSoC5/ms_counter.c ****                 ms_counter_CONTROL3 &= ((uint8)(~ms_counter_CTRL_MODE_MASK));                
  58:Generated_Source\PSoC5/ms_counter.c ****             #endif /* (CY_PSOC3 || CY_PSOC5LP) */
  59:Generated_Source\PSoC5/ms_counter.c ****             /* Check if One Shot mode is enabled i.e. RunMode !=0*/
  60:Generated_Source\PSoC5/ms_counter.c ****             #if (ms_counter_RunModeUsed != 0x0u)
  61:Generated_Source\PSoC5/ms_counter.c ****                 /* Set 3rd bit of Control register to enable one shot mode */
  62:Generated_Source\PSoC5/ms_counter.c ****                 ms_counter_CONTROL |= ms_counter_ONESHOT;
  63:Generated_Source\PSoC5/ms_counter.c ****             #endif /* (ms_counter_RunModeUsed != 0x0u) */
  64:Generated_Source\PSoC5/ms_counter.c ****             
  65:Generated_Source\PSoC5/ms_counter.c ****             /* Set the IRQ to use the status register interrupts */
  66:Generated_Source\PSoC5/ms_counter.c ****             ms_counter_CONTROL2 |= ms_counter_CTRL2_IRQ_SEL;
  67:Generated_Source\PSoC5/ms_counter.c ****             
  68:Generated_Source\PSoC5/ms_counter.c ****             /* Clear and Set SYNCTC and SYNCCMP bits of RT1 register */
  69:Generated_Source\PSoC5/ms_counter.c ****             ms_counter_RT1 &= ((uint8)(~ms_counter_RT1_MASK));
ARM GAS  C:\Users\Matthew\AppData\Local\Temp\ccvKoP6M.s 			page 3


  70:Generated_Source\PSoC5/ms_counter.c ****             ms_counter_RT1 |= ms_counter_SYNC;     
  71:Generated_Source\PSoC5/ms_counter.c ****                     
  72:Generated_Source\PSoC5/ms_counter.c ****             /*Enable DSI Sync all all inputs of the Timer*/
  73:Generated_Source\PSoC5/ms_counter.c ****             ms_counter_RT1 &= ((uint8)(~ms_counter_SYNCDSI_MASK));
  74:Generated_Source\PSoC5/ms_counter.c ****             ms_counter_RT1 |= ms_counter_SYNCDSI_EN;
  75:Generated_Source\PSoC5/ms_counter.c **** 
  76:Generated_Source\PSoC5/ms_counter.c ****         #else
  77:Generated_Source\PSoC5/ms_counter.c ****             #if(!ms_counter_ControlRegRemoved)
  78:Generated_Source\PSoC5/ms_counter.c ****             /* Set the default compare mode defined in the parameter */
  79:Generated_Source\PSoC5/ms_counter.c ****             ctrl = ms_counter_CONTROL & ((uint8)(~ms_counter_CTRL_CMPMODE_MASK));
  46              		.loc 1 79 0
  47 0006 1B4B     		ldr	r3, .L2
  48 0008 1B78     		ldrb	r3, [r3]
  49 000a DBB2     		uxtb	r3, r3
  50 000c 23F00703 		bic	r3, r3, #7
  51 0010 FB71     		strb	r3, [r7, #7]
  80:Generated_Source\PSoC5/ms_counter.c ****             ms_counter_CONTROL = ctrl | ms_counter_DEFAULT_COMPARE_MODE;
  52              		.loc 1 80 0
  53 0012 184A     		ldr	r2, .L2
  54 0014 FB79     		ldrb	r3, [r7, #7]
  55 0016 1370     		strb	r3, [r2]
  81:Generated_Source\PSoC5/ms_counter.c ****             
  82:Generated_Source\PSoC5/ms_counter.c ****             /* Set the default capture mode defined in the parameter */
  83:Generated_Source\PSoC5/ms_counter.c ****             ctrl = ms_counter_CONTROL & ((uint8)(~ms_counter_CTRL_CAPMODE_MASK));
  56              		.loc 1 83 0
  57 0018 164B     		ldr	r3, .L2
  58 001a 1B78     		ldrb	r3, [r3]
  59 001c DBB2     		uxtb	r3, r3
  60 001e 23F00303 		bic	r3, r3, #3
  61 0022 FB71     		strb	r3, [r7, #7]
  84:Generated_Source\PSoC5/ms_counter.c ****             
  85:Generated_Source\PSoC5/ms_counter.c ****             #if( 0 != ms_counter_CAPTURE_MODE_CONF)
  86:Generated_Source\PSoC5/ms_counter.c ****                 ms_counter_CONTROL = ctrl | ms_counter_DEFAULT_CAPTURE_MODE;
  87:Generated_Source\PSoC5/ms_counter.c ****             #else
  88:Generated_Source\PSoC5/ms_counter.c ****                 ms_counter_CONTROL = ctrl;
  62              		.loc 1 88 0
  63 0024 134A     		ldr	r2, .L2
  64 0026 FB79     		ldrb	r3, [r7, #7]
  65 0028 1370     		strb	r3, [r2]
  89:Generated_Source\PSoC5/ms_counter.c ****             #endif /* 0 != ms_counter_CAPTURE_MODE */ 
  90:Generated_Source\PSoC5/ms_counter.c ****             
  91:Generated_Source\PSoC5/ms_counter.c ****             #endif /* (!ms_counter_ControlRegRemoved) */
  92:Generated_Source\PSoC5/ms_counter.c ****         #endif /* (ms_counter_UsingFixedFunction) */
  93:Generated_Source\PSoC5/ms_counter.c ****         
  94:Generated_Source\PSoC5/ms_counter.c ****         /* Clear all data in the FIFO's */
  95:Generated_Source\PSoC5/ms_counter.c ****         #if (!ms_counter_UsingFixedFunction)
  96:Generated_Source\PSoC5/ms_counter.c ****             ms_counter_ClearFIFO();
  66              		.loc 1 96 0
  67 002a FFF7FEFF 		bl	ms_counter_ClearFIFO
  97:Generated_Source\PSoC5/ms_counter.c ****         #endif /* (!ms_counter_UsingFixedFunction) */
  98:Generated_Source\PSoC5/ms_counter.c ****         
  99:Generated_Source\PSoC5/ms_counter.c ****         /* Set Initial values from Configuration */
 100:Generated_Source\PSoC5/ms_counter.c ****         ms_counter_WritePeriod(ms_counter_INIT_PERIOD_VALUE);
  68              		.loc 1 100 0
  69 002e 6FF00100 		mvn	r0, #1
  70 0032 FFF7FEFF 		bl	ms_counter_WritePeriod
 101:Generated_Source\PSoC5/ms_counter.c ****         #if (!(ms_counter_UsingFixedFunction && (CY_PSOC5A)))
ARM GAS  C:\Users\Matthew\AppData\Local\Temp\ccvKoP6M.s 			page 4


 102:Generated_Source\PSoC5/ms_counter.c ****             ms_counter_WriteCounter(ms_counter_INIT_COUNTER_VALUE);
  71              		.loc 1 102 0
  72 0036 0020     		movs	r0, #0
  73 0038 FFF7FEFF 		bl	ms_counter_WriteCounter
 103:Generated_Source\PSoC5/ms_counter.c ****         #endif /* (!(ms_counter_UsingFixedFunction && (CY_PSOC5A))) */
 104:Generated_Source\PSoC5/ms_counter.c ****         ms_counter_SetInterruptMode(ms_counter_INIT_INTERRUPTS_MASK);
  74              		.loc 1 104 0
  75 003c 0020     		movs	r0, #0
  76 003e FFF7FEFF 		bl	ms_counter_SetInterruptMode
 105:Generated_Source\PSoC5/ms_counter.c ****         
 106:Generated_Source\PSoC5/ms_counter.c ****         #if (!ms_counter_UsingFixedFunction)
 107:Generated_Source\PSoC5/ms_counter.c ****             /* Read the status register to clear the unwanted interrupts */
 108:Generated_Source\PSoC5/ms_counter.c ****             (void)ms_counter_ReadStatusRegister();
  77              		.loc 1 108 0
  78 0042 FFF7FEFF 		bl	ms_counter_ReadStatusRegister
 109:Generated_Source\PSoC5/ms_counter.c ****             /* Set the compare value (only available to non-fixed function implementation */
 110:Generated_Source\PSoC5/ms_counter.c ****             ms_counter_WriteCompare(ms_counter_INIT_COMPARE_VALUE);
  79              		.loc 1 110 0
  80 0046 8020     		movs	r0, #128
  81 0048 FFF7FEFF 		bl	ms_counter_WriteCompare
 111:Generated_Source\PSoC5/ms_counter.c ****             /* Use the interrupt output of the status register for IRQ output */
 112:Generated_Source\PSoC5/ms_counter.c ****             
 113:Generated_Source\PSoC5/ms_counter.c ****             /* CyEnterCriticalRegion and CyExitCriticalRegion are used to mark following region cri
 114:Generated_Source\PSoC5/ms_counter.c ****             /* Enter Critical Region*/
 115:Generated_Source\PSoC5/ms_counter.c ****             ms_counter_interruptState = CyEnterCriticalSection();
  82              		.loc 1 115 0
  83 004c FFF7FEFF 		bl	CyEnterCriticalSection
  84 0050 0346     		mov	r3, r0
  85 0052 BB71     		strb	r3, [r7, #6]
 116:Generated_Source\PSoC5/ms_counter.c ****             
 117:Generated_Source\PSoC5/ms_counter.c ****             ms_counter_STATUS_AUX_CTRL |= ms_counter_STATUS_ACTL_INT_EN_MASK;
  86              		.loc 1 117 0
  87 0054 084A     		ldr	r2, .L2+4
  88 0056 084B     		ldr	r3, .L2+4
  89 0058 1B78     		ldrb	r3, [r3]
  90 005a DBB2     		uxtb	r3, r3
  91 005c 43F01003 		orr	r3, r3, #16
  92 0060 DBB2     		uxtb	r3, r3
  93 0062 1370     		strb	r3, [r2]
 118:Generated_Source\PSoC5/ms_counter.c ****             
 119:Generated_Source\PSoC5/ms_counter.c ****             /* Exit Critical Region*/
 120:Generated_Source\PSoC5/ms_counter.c ****             CyExitCriticalSection(ms_counter_interruptState);
  94              		.loc 1 120 0
  95 0064 BB79     		ldrb	r3, [r7, #6]	@ zero_extendqisi2
  96 0066 1846     		mov	r0, r3
  97 0068 FFF7FEFF 		bl	CyExitCriticalSection
 121:Generated_Source\PSoC5/ms_counter.c ****             
 122:Generated_Source\PSoC5/ms_counter.c ****         #endif /* (!ms_counter_UsingFixedFunction) */
 123:Generated_Source\PSoC5/ms_counter.c **** }
  98              		.loc 1 123 0
  99 006c 00BF     		nop
 100 006e 0837     		adds	r7, r7, #8
 101              		.cfi_def_cfa_offset 8
 102 0070 BD46     		mov	sp, r7
 103              		.cfi_def_cfa_register 13
 104              		@ sp needed
 105 0072 80BD     		pop	{r7, pc}
ARM GAS  C:\Users\Matthew\AppData\Local\Temp\ccvKoP6M.s 			page 5


 106              	.L3:
 107              		.align	2
 108              	.L2:
 109 0074 74650040 		.word	1073767796
 110 0078 97650040 		.word	1073767831
 111              		.cfi_endproc
 112              	.LFE0:
 113              		.size	ms_counter_Init, .-ms_counter_Init
 114              		.section	.text.ms_counter_Enable,"ax",%progbits
 115              		.align	2
 116              		.global	ms_counter_Enable
 117              		.thumb
 118              		.thumb_func
 119              		.type	ms_counter_Enable, %function
 120              	ms_counter_Enable:
 121              	.LFB1:
 124:Generated_Source\PSoC5/ms_counter.c **** 
 125:Generated_Source\PSoC5/ms_counter.c **** 
 126:Generated_Source\PSoC5/ms_counter.c **** /*******************************************************************************
 127:Generated_Source\PSoC5/ms_counter.c **** * Function Name: ms_counter_Enable
 128:Generated_Source\PSoC5/ms_counter.c **** ********************************************************************************
 129:Generated_Source\PSoC5/ms_counter.c **** * Summary:
 130:Generated_Source\PSoC5/ms_counter.c **** *     Enable the Counter
 131:Generated_Source\PSoC5/ms_counter.c **** * 
 132:Generated_Source\PSoC5/ms_counter.c **** * Parameters:  
 133:Generated_Source\PSoC5/ms_counter.c **** *  void  
 134:Generated_Source\PSoC5/ms_counter.c **** *
 135:Generated_Source\PSoC5/ms_counter.c **** * Return: 
 136:Generated_Source\PSoC5/ms_counter.c **** *  void
 137:Generated_Source\PSoC5/ms_counter.c **** *
 138:Generated_Source\PSoC5/ms_counter.c **** * Side Effects: 
 139:Generated_Source\PSoC5/ms_counter.c **** *   If the Enable mode is set to Hardware only then this function has no effect 
 140:Generated_Source\PSoC5/ms_counter.c **** *   on the operation of the counter.
 141:Generated_Source\PSoC5/ms_counter.c **** *
 142:Generated_Source\PSoC5/ms_counter.c **** *******************************************************************************/
 143:Generated_Source\PSoC5/ms_counter.c **** void ms_counter_Enable(void) 
 144:Generated_Source\PSoC5/ms_counter.c **** {
 122              		.loc 1 144 0
 123              		.cfi_startproc
 124              		@ args = 0, pretend = 0, frame = 0
 125              		@ frame_needed = 1, uses_anonymous_args = 0
 126              		@ link register save eliminated.
 127 0000 80B4     		push	{r7}
 128              		.cfi_def_cfa_offset 4
 129              		.cfi_offset 7, -4
 130 0002 00AF     		add	r7, sp, #0
 131              		.cfi_def_cfa_register 7
 145:Generated_Source\PSoC5/ms_counter.c ****     /* Globally Enable the Fixed Function Block chosen */
 146:Generated_Source\PSoC5/ms_counter.c ****     #if (ms_counter_UsingFixedFunction)
 147:Generated_Source\PSoC5/ms_counter.c ****         ms_counter_GLOBAL_ENABLE |= ms_counter_BLOCK_EN_MASK;
 148:Generated_Source\PSoC5/ms_counter.c ****         ms_counter_GLOBAL_STBY_ENABLE |= ms_counter_BLOCK_STBY_EN_MASK;
 149:Generated_Source\PSoC5/ms_counter.c ****     #endif /* (ms_counter_UsingFixedFunction) */  
 150:Generated_Source\PSoC5/ms_counter.c ****         
 151:Generated_Source\PSoC5/ms_counter.c ****     /* Enable the counter from the control register  */
 152:Generated_Source\PSoC5/ms_counter.c ****     /* If Fixed Function then make sure Mode is set correctly */
 153:Generated_Source\PSoC5/ms_counter.c ****     /* else make sure reset is clear */
 154:Generated_Source\PSoC5/ms_counter.c ****     #if(!ms_counter_ControlRegRemoved || ms_counter_UsingFixedFunction)
ARM GAS  C:\Users\Matthew\AppData\Local\Temp\ccvKoP6M.s 			page 6


 155:Generated_Source\PSoC5/ms_counter.c ****         ms_counter_CONTROL |= ms_counter_CTRL_ENABLE;                
 132              		.loc 1 155 0
 133 0004 054A     		ldr	r2, .L5
 134 0006 054B     		ldr	r3, .L5
 135 0008 1B78     		ldrb	r3, [r3]
 136 000a DBB2     		uxtb	r3, r3
 137 000c 63F07F03 		orn	r3, r3, #127
 138 0010 DBB2     		uxtb	r3, r3
 139 0012 1370     		strb	r3, [r2]
 156:Generated_Source\PSoC5/ms_counter.c ****     #endif /* (!ms_counter_ControlRegRemoved || ms_counter_UsingFixedFunction) */
 157:Generated_Source\PSoC5/ms_counter.c ****     
 158:Generated_Source\PSoC5/ms_counter.c **** }
 140              		.loc 1 158 0
 141 0014 00BF     		nop
 142 0016 BD46     		mov	sp, r7
 143              		.cfi_def_cfa_register 13
 144              		@ sp needed
 145 0018 80BC     		pop	{r7}
 146              		.cfi_restore 7
 147              		.cfi_def_cfa_offset 0
 148 001a 7047     		bx	lr
 149              	.L6:
 150              		.align	2
 151              	.L5:
 152 001c 74650040 		.word	1073767796
 153              		.cfi_endproc
 154              	.LFE1:
 155              		.size	ms_counter_Enable, .-ms_counter_Enable
 156              		.section	.text.ms_counter_Start,"ax",%progbits
 157              		.align	2
 158              		.global	ms_counter_Start
 159              		.thumb
 160              		.thumb_func
 161              		.type	ms_counter_Start, %function
 162              	ms_counter_Start:
 163              	.LFB2:
 159:Generated_Source\PSoC5/ms_counter.c **** 
 160:Generated_Source\PSoC5/ms_counter.c **** 
 161:Generated_Source\PSoC5/ms_counter.c **** /*******************************************************************************
 162:Generated_Source\PSoC5/ms_counter.c **** * Function Name: ms_counter_Start
 163:Generated_Source\PSoC5/ms_counter.c **** ********************************************************************************
 164:Generated_Source\PSoC5/ms_counter.c **** * Summary:
 165:Generated_Source\PSoC5/ms_counter.c **** *  Enables the counter for operation 
 166:Generated_Source\PSoC5/ms_counter.c **** *
 167:Generated_Source\PSoC5/ms_counter.c **** * Parameters:  
 168:Generated_Source\PSoC5/ms_counter.c **** *  void  
 169:Generated_Source\PSoC5/ms_counter.c **** *
 170:Generated_Source\PSoC5/ms_counter.c **** * Return: 
 171:Generated_Source\PSoC5/ms_counter.c **** *  void
 172:Generated_Source\PSoC5/ms_counter.c **** *
 173:Generated_Source\PSoC5/ms_counter.c **** * Global variables:
 174:Generated_Source\PSoC5/ms_counter.c **** *  ms_counter_initVar: Is modified when this function is called for the  
 175:Generated_Source\PSoC5/ms_counter.c **** *   first time. Is used to ensure that initialization happens only once.
 176:Generated_Source\PSoC5/ms_counter.c **** *
 177:Generated_Source\PSoC5/ms_counter.c **** *******************************************************************************/
 178:Generated_Source\PSoC5/ms_counter.c **** void ms_counter_Start(void) 
 179:Generated_Source\PSoC5/ms_counter.c **** {
ARM GAS  C:\Users\Matthew\AppData\Local\Temp\ccvKoP6M.s 			page 7


 164              		.loc 1 179 0
 165              		.cfi_startproc
 166              		@ args = 0, pretend = 0, frame = 0
 167              		@ frame_needed = 1, uses_anonymous_args = 0
 168 0000 80B5     		push	{r7, lr}
 169              		.cfi_def_cfa_offset 8
 170              		.cfi_offset 7, -8
 171              		.cfi_offset 14, -4
 172 0002 00AF     		add	r7, sp, #0
 173              		.cfi_def_cfa_register 7
 180:Generated_Source\PSoC5/ms_counter.c ****     if(ms_counter_initVar == 0u)
 174              		.loc 1 180 0
 175 0004 064B     		ldr	r3, .L9
 176 0006 1B78     		ldrb	r3, [r3]	@ zero_extendqisi2
 177 0008 002B     		cmp	r3, #0
 178 000a 04D1     		bne	.L8
 181:Generated_Source\PSoC5/ms_counter.c ****     {
 182:Generated_Source\PSoC5/ms_counter.c ****         ms_counter_Init();
 179              		.loc 1 182 0
 180 000c FFF7FEFF 		bl	ms_counter_Init
 183:Generated_Source\PSoC5/ms_counter.c ****         
 184:Generated_Source\PSoC5/ms_counter.c ****         ms_counter_initVar = 1u; /* Clear this bit for Initialization */        
 181              		.loc 1 184 0
 182 0010 034B     		ldr	r3, .L9
 183 0012 0122     		movs	r2, #1
 184 0014 1A70     		strb	r2, [r3]
 185              	.L8:
 185:Generated_Source\PSoC5/ms_counter.c ****     }
 186:Generated_Source\PSoC5/ms_counter.c ****     
 187:Generated_Source\PSoC5/ms_counter.c ****     /* Enable the Counter */
 188:Generated_Source\PSoC5/ms_counter.c ****     ms_counter_Enable();        
 186              		.loc 1 188 0
 187 0016 FFF7FEFF 		bl	ms_counter_Enable
 189:Generated_Source\PSoC5/ms_counter.c **** }
 188              		.loc 1 189 0
 189 001a 00BF     		nop
 190 001c 80BD     		pop	{r7, pc}
 191              	.L10:
 192 001e 00BF     		.align	2
 193              	.L9:
 194 0020 00000000 		.word	ms_counter_initVar
 195              		.cfi_endproc
 196              	.LFE2:
 197              		.size	ms_counter_Start, .-ms_counter_Start
 198              		.section	.text.ms_counter_Stop,"ax",%progbits
 199              		.align	2
 200              		.global	ms_counter_Stop
 201              		.thumb
 202              		.thumb_func
 203              		.type	ms_counter_Stop, %function
 204              	ms_counter_Stop:
 205              	.LFB3:
 190:Generated_Source\PSoC5/ms_counter.c **** 
 191:Generated_Source\PSoC5/ms_counter.c **** 
 192:Generated_Source\PSoC5/ms_counter.c **** /*******************************************************************************
 193:Generated_Source\PSoC5/ms_counter.c **** * Function Name: ms_counter_Stop
 194:Generated_Source\PSoC5/ms_counter.c **** ********************************************************************************
ARM GAS  C:\Users\Matthew\AppData\Local\Temp\ccvKoP6M.s 			page 8


 195:Generated_Source\PSoC5/ms_counter.c **** * Summary:
 196:Generated_Source\PSoC5/ms_counter.c **** * Halts the counter, but does not change any modes or disable interrupts.
 197:Generated_Source\PSoC5/ms_counter.c **** *
 198:Generated_Source\PSoC5/ms_counter.c **** * Parameters:  
 199:Generated_Source\PSoC5/ms_counter.c **** *  void  
 200:Generated_Source\PSoC5/ms_counter.c **** *
 201:Generated_Source\PSoC5/ms_counter.c **** * Return: 
 202:Generated_Source\PSoC5/ms_counter.c **** *  void
 203:Generated_Source\PSoC5/ms_counter.c **** *
 204:Generated_Source\PSoC5/ms_counter.c **** * Side Effects: If the Enable mode is set to Hardware only then this function
 205:Generated_Source\PSoC5/ms_counter.c **** *               has no effect on the operation of the counter.
 206:Generated_Source\PSoC5/ms_counter.c **** *
 207:Generated_Source\PSoC5/ms_counter.c **** *******************************************************************************/
 208:Generated_Source\PSoC5/ms_counter.c **** void ms_counter_Stop(void) 
 209:Generated_Source\PSoC5/ms_counter.c **** {
 206              		.loc 1 209 0
 207              		.cfi_startproc
 208              		@ args = 0, pretend = 0, frame = 0
 209              		@ frame_needed = 1, uses_anonymous_args = 0
 210              		@ link register save eliminated.
 211 0000 80B4     		push	{r7}
 212              		.cfi_def_cfa_offset 4
 213              		.cfi_offset 7, -4
 214 0002 00AF     		add	r7, sp, #0
 215              		.cfi_def_cfa_register 7
 210:Generated_Source\PSoC5/ms_counter.c ****     /* Disable Counter */
 211:Generated_Source\PSoC5/ms_counter.c ****     #if(!ms_counter_ControlRegRemoved || ms_counter_UsingFixedFunction)
 212:Generated_Source\PSoC5/ms_counter.c ****         ms_counter_CONTROL &= ((uint8)(~ms_counter_CTRL_ENABLE));        
 216              		.loc 1 212 0
 217 0004 054A     		ldr	r2, .L12
 218 0006 054B     		ldr	r3, .L12
 219 0008 1B78     		ldrb	r3, [r3]
 220 000a DBB2     		uxtb	r3, r3
 221 000c 03F07F03 		and	r3, r3, #127
 222 0010 DBB2     		uxtb	r3, r3
 223 0012 1370     		strb	r3, [r2]
 213:Generated_Source\PSoC5/ms_counter.c ****     #endif /* (!ms_counter_ControlRegRemoved || ms_counter_UsingFixedFunction) */
 214:Generated_Source\PSoC5/ms_counter.c ****     
 215:Generated_Source\PSoC5/ms_counter.c ****     /* Globally disable the Fixed Function Block chosen */
 216:Generated_Source\PSoC5/ms_counter.c ****     #if (ms_counter_UsingFixedFunction)
 217:Generated_Source\PSoC5/ms_counter.c ****         ms_counter_GLOBAL_ENABLE &= ((uint8)(~ms_counter_BLOCK_EN_MASK));
 218:Generated_Source\PSoC5/ms_counter.c ****         ms_counter_GLOBAL_STBY_ENABLE &= ((uint8)(~ms_counter_BLOCK_STBY_EN_MASK));
 219:Generated_Source\PSoC5/ms_counter.c ****     #endif /* (ms_counter_UsingFixedFunction) */
 220:Generated_Source\PSoC5/ms_counter.c **** }
 224              		.loc 1 220 0
 225 0014 00BF     		nop
 226 0016 BD46     		mov	sp, r7
 227              		.cfi_def_cfa_register 13
 228              		@ sp needed
 229 0018 80BC     		pop	{r7}
 230              		.cfi_restore 7
 231              		.cfi_def_cfa_offset 0
 232 001a 7047     		bx	lr
 233              	.L13:
 234              		.align	2
 235              	.L12:
 236 001c 74650040 		.word	1073767796
ARM GAS  C:\Users\Matthew\AppData\Local\Temp\ccvKoP6M.s 			page 9


 237              		.cfi_endproc
 238              	.LFE3:
 239              		.size	ms_counter_Stop, .-ms_counter_Stop
 240              		.section	.text.ms_counter_SetInterruptMode,"ax",%progbits
 241              		.align	2
 242              		.global	ms_counter_SetInterruptMode
 243              		.thumb
 244              		.thumb_func
 245              		.type	ms_counter_SetInterruptMode, %function
 246              	ms_counter_SetInterruptMode:
 247              	.LFB4:
 221:Generated_Source\PSoC5/ms_counter.c **** 
 222:Generated_Source\PSoC5/ms_counter.c **** 
 223:Generated_Source\PSoC5/ms_counter.c **** /*******************************************************************************
 224:Generated_Source\PSoC5/ms_counter.c **** * Function Name: ms_counter_SetInterruptMode
 225:Generated_Source\PSoC5/ms_counter.c **** ********************************************************************************
 226:Generated_Source\PSoC5/ms_counter.c **** * Summary:
 227:Generated_Source\PSoC5/ms_counter.c **** * Configures which interrupt sources are enabled to generate the final interrupt
 228:Generated_Source\PSoC5/ms_counter.c **** *
 229:Generated_Source\PSoC5/ms_counter.c **** * Parameters:  
 230:Generated_Source\PSoC5/ms_counter.c **** *  InterruptsMask: This parameter is an or'd collection of the status bits
 231:Generated_Source\PSoC5/ms_counter.c **** *                   which will be allowed to generate the counters interrupt.   
 232:Generated_Source\PSoC5/ms_counter.c **** *
 233:Generated_Source\PSoC5/ms_counter.c **** * Return: 
 234:Generated_Source\PSoC5/ms_counter.c **** *  void
 235:Generated_Source\PSoC5/ms_counter.c **** *
 236:Generated_Source\PSoC5/ms_counter.c **** *******************************************************************************/
 237:Generated_Source\PSoC5/ms_counter.c **** void ms_counter_SetInterruptMode(uint8 interruptsMask) 
 238:Generated_Source\PSoC5/ms_counter.c **** {
 248              		.loc 1 238 0
 249              		.cfi_startproc
 250              		@ args = 0, pretend = 0, frame = 8
 251              		@ frame_needed = 1, uses_anonymous_args = 0
 252              		@ link register save eliminated.
 253 0000 80B4     		push	{r7}
 254              		.cfi_def_cfa_offset 4
 255              		.cfi_offset 7, -4
 256 0002 83B0     		sub	sp, sp, #12
 257              		.cfi_def_cfa_offset 16
 258 0004 00AF     		add	r7, sp, #0
 259              		.cfi_def_cfa_register 7
 260 0006 0346     		mov	r3, r0
 261 0008 FB71     		strb	r3, [r7, #7]
 239:Generated_Source\PSoC5/ms_counter.c ****     ms_counter_STATUS_MASK = interruptsMask;
 262              		.loc 1 239 0
 263 000a 044A     		ldr	r2, .L15
 264 000c FB79     		ldrb	r3, [r7, #7]
 265 000e 1370     		strb	r3, [r2]
 240:Generated_Source\PSoC5/ms_counter.c **** }
 266              		.loc 1 240 0
 267 0010 00BF     		nop
 268 0012 0C37     		adds	r7, r7, #12
 269              		.cfi_def_cfa_offset 4
 270 0014 BD46     		mov	sp, r7
 271              		.cfi_def_cfa_register 13
 272              		@ sp needed
 273 0016 80BC     		pop	{r7}
ARM GAS  C:\Users\Matthew\AppData\Local\Temp\ccvKoP6M.s 			page 10


 274              		.cfi_restore 7
 275              		.cfi_def_cfa_offset 0
 276 0018 7047     		bx	lr
 277              	.L16:
 278 001a 00BF     		.align	2
 279              	.L15:
 280 001c 87650040 		.word	1073767815
 281              		.cfi_endproc
 282              	.LFE4:
 283              		.size	ms_counter_SetInterruptMode, .-ms_counter_SetInterruptMode
 284              		.section	.text.ms_counter_ReadStatusRegister,"ax",%progbits
 285              		.align	2
 286              		.global	ms_counter_ReadStatusRegister
 287              		.thumb
 288              		.thumb_func
 289              		.type	ms_counter_ReadStatusRegister, %function
 290              	ms_counter_ReadStatusRegister:
 291              	.LFB5:
 241:Generated_Source\PSoC5/ms_counter.c **** 
 242:Generated_Source\PSoC5/ms_counter.c **** 
 243:Generated_Source\PSoC5/ms_counter.c **** /*******************************************************************************
 244:Generated_Source\PSoC5/ms_counter.c **** * Function Name: ms_counter_ReadStatusRegister
 245:Generated_Source\PSoC5/ms_counter.c **** ********************************************************************************
 246:Generated_Source\PSoC5/ms_counter.c **** * Summary:
 247:Generated_Source\PSoC5/ms_counter.c **** *   Reads the status register and returns it's state. This function should use
 248:Generated_Source\PSoC5/ms_counter.c **** *       defined types for the bit-field information as the bits in this
 249:Generated_Source\PSoC5/ms_counter.c **** *       register may be permuteable.
 250:Generated_Source\PSoC5/ms_counter.c **** *
 251:Generated_Source\PSoC5/ms_counter.c **** * Parameters:  
 252:Generated_Source\PSoC5/ms_counter.c **** *  void
 253:Generated_Source\PSoC5/ms_counter.c **** *
 254:Generated_Source\PSoC5/ms_counter.c **** * Return: 
 255:Generated_Source\PSoC5/ms_counter.c **** *  (uint8) The contents of the status register
 256:Generated_Source\PSoC5/ms_counter.c **** *
 257:Generated_Source\PSoC5/ms_counter.c **** * Side Effects:
 258:Generated_Source\PSoC5/ms_counter.c **** *   Status register bits may be clear on read. 
 259:Generated_Source\PSoC5/ms_counter.c **** *
 260:Generated_Source\PSoC5/ms_counter.c **** *******************************************************************************/
 261:Generated_Source\PSoC5/ms_counter.c **** uint8   ms_counter_ReadStatusRegister(void) 
 262:Generated_Source\PSoC5/ms_counter.c **** {
 292              		.loc 1 262 0
 293              		.cfi_startproc
 294              		@ args = 0, pretend = 0, frame = 0
 295              		@ frame_needed = 1, uses_anonymous_args = 0
 296              		@ link register save eliminated.
 297 0000 80B4     		push	{r7}
 298              		.cfi_def_cfa_offset 4
 299              		.cfi_offset 7, -4
 300 0002 00AF     		add	r7, sp, #0
 301              		.cfi_def_cfa_register 7
 263:Generated_Source\PSoC5/ms_counter.c ****     return ms_counter_STATUS;
 302              		.loc 1 263 0
 303 0004 034B     		ldr	r3, .L19
 304 0006 1B78     		ldrb	r3, [r3]
 305 0008 DBB2     		uxtb	r3, r3
 264:Generated_Source\PSoC5/ms_counter.c **** }
 306              		.loc 1 264 0
ARM GAS  C:\Users\Matthew\AppData\Local\Temp\ccvKoP6M.s 			page 11


 307 000a 1846     		mov	r0, r3
 308 000c BD46     		mov	sp, r7
 309              		.cfi_def_cfa_register 13
 310              		@ sp needed
 311 000e 80BC     		pop	{r7}
 312              		.cfi_restore 7
 313              		.cfi_def_cfa_offset 0
 314 0010 7047     		bx	lr
 315              	.L20:
 316 0012 00BF     		.align	2
 317              	.L19:
 318 0014 67650040 		.word	1073767783
 319              		.cfi_endproc
 320              	.LFE5:
 321              		.size	ms_counter_ReadStatusRegister, .-ms_counter_ReadStatusRegister
 322              		.section	.text.ms_counter_ReadControlRegister,"ax",%progbits
 323              		.align	2
 324              		.global	ms_counter_ReadControlRegister
 325              		.thumb
 326              		.thumb_func
 327              		.type	ms_counter_ReadControlRegister, %function
 328              	ms_counter_ReadControlRegister:
 329              	.LFB6:
 265:Generated_Source\PSoC5/ms_counter.c **** 
 266:Generated_Source\PSoC5/ms_counter.c **** 
 267:Generated_Source\PSoC5/ms_counter.c **** #if(!ms_counter_ControlRegRemoved)
 268:Generated_Source\PSoC5/ms_counter.c **** /*******************************************************************************
 269:Generated_Source\PSoC5/ms_counter.c **** * Function Name: ms_counter_ReadControlRegister
 270:Generated_Source\PSoC5/ms_counter.c **** ********************************************************************************
 271:Generated_Source\PSoC5/ms_counter.c **** * Summary:
 272:Generated_Source\PSoC5/ms_counter.c **** *   Reads the control register and returns it's state. This function should use
 273:Generated_Source\PSoC5/ms_counter.c **** *       defined types for the bit-field information as the bits in this
 274:Generated_Source\PSoC5/ms_counter.c **** *       register may be permuteable.
 275:Generated_Source\PSoC5/ms_counter.c **** *
 276:Generated_Source\PSoC5/ms_counter.c **** * Parameters:  
 277:Generated_Source\PSoC5/ms_counter.c **** *  void
 278:Generated_Source\PSoC5/ms_counter.c **** *
 279:Generated_Source\PSoC5/ms_counter.c **** * Return: 
 280:Generated_Source\PSoC5/ms_counter.c **** *  (uint8) The contents of the control register
 281:Generated_Source\PSoC5/ms_counter.c **** *
 282:Generated_Source\PSoC5/ms_counter.c **** *******************************************************************************/
 283:Generated_Source\PSoC5/ms_counter.c **** uint8   ms_counter_ReadControlRegister(void) 
 284:Generated_Source\PSoC5/ms_counter.c **** {
 330              		.loc 1 284 0
 331              		.cfi_startproc
 332              		@ args = 0, pretend = 0, frame = 0
 333              		@ frame_needed = 1, uses_anonymous_args = 0
 334              		@ link register save eliminated.
 335 0000 80B4     		push	{r7}
 336              		.cfi_def_cfa_offset 4
 337              		.cfi_offset 7, -4
 338 0002 00AF     		add	r7, sp, #0
 339              		.cfi_def_cfa_register 7
 285:Generated_Source\PSoC5/ms_counter.c ****     return ms_counter_CONTROL;
 340              		.loc 1 285 0
 341 0004 034B     		ldr	r3, .L23
 342 0006 1B78     		ldrb	r3, [r3]
ARM GAS  C:\Users\Matthew\AppData\Local\Temp\ccvKoP6M.s 			page 12


 343 0008 DBB2     		uxtb	r3, r3
 286:Generated_Source\PSoC5/ms_counter.c **** }
 344              		.loc 1 286 0
 345 000a 1846     		mov	r0, r3
 346 000c BD46     		mov	sp, r7
 347              		.cfi_def_cfa_register 13
 348              		@ sp needed
 349 000e 80BC     		pop	{r7}
 350              		.cfi_restore 7
 351              		.cfi_def_cfa_offset 0
 352 0010 7047     		bx	lr
 353              	.L24:
 354 0012 00BF     		.align	2
 355              	.L23:
 356 0014 74650040 		.word	1073767796
 357              		.cfi_endproc
 358              	.LFE6:
 359              		.size	ms_counter_ReadControlRegister, .-ms_counter_ReadControlRegister
 360              		.section	.text.ms_counter_WriteControlRegister,"ax",%progbits
 361              		.align	2
 362              		.global	ms_counter_WriteControlRegister
 363              		.thumb
 364              		.thumb_func
 365              		.type	ms_counter_WriteControlRegister, %function
 366              	ms_counter_WriteControlRegister:
 367              	.LFB7:
 287:Generated_Source\PSoC5/ms_counter.c **** 
 288:Generated_Source\PSoC5/ms_counter.c **** 
 289:Generated_Source\PSoC5/ms_counter.c **** /*******************************************************************************
 290:Generated_Source\PSoC5/ms_counter.c **** * Function Name: ms_counter_WriteControlRegister
 291:Generated_Source\PSoC5/ms_counter.c **** ********************************************************************************
 292:Generated_Source\PSoC5/ms_counter.c **** * Summary:
 293:Generated_Source\PSoC5/ms_counter.c **** *   Sets the bit-field of the control register.  This function should use
 294:Generated_Source\PSoC5/ms_counter.c **** *       defined types for the bit-field information as the bits in this
 295:Generated_Source\PSoC5/ms_counter.c **** *       register may be permuteable.
 296:Generated_Source\PSoC5/ms_counter.c **** *
 297:Generated_Source\PSoC5/ms_counter.c **** * Parameters:  
 298:Generated_Source\PSoC5/ms_counter.c **** *  void
 299:Generated_Source\PSoC5/ms_counter.c **** *
 300:Generated_Source\PSoC5/ms_counter.c **** * Return: 
 301:Generated_Source\PSoC5/ms_counter.c **** *  (uint8) The contents of the control register
 302:Generated_Source\PSoC5/ms_counter.c **** *
 303:Generated_Source\PSoC5/ms_counter.c **** *******************************************************************************/
 304:Generated_Source\PSoC5/ms_counter.c **** void    ms_counter_WriteControlRegister(uint8 control) 
 305:Generated_Source\PSoC5/ms_counter.c **** {
 368              		.loc 1 305 0
 369              		.cfi_startproc
 370              		@ args = 0, pretend = 0, frame = 8
 371              		@ frame_needed = 1, uses_anonymous_args = 0
 372              		@ link register save eliminated.
 373 0000 80B4     		push	{r7}
 374              		.cfi_def_cfa_offset 4
 375              		.cfi_offset 7, -4
 376 0002 83B0     		sub	sp, sp, #12
 377              		.cfi_def_cfa_offset 16
 378 0004 00AF     		add	r7, sp, #0
 379              		.cfi_def_cfa_register 7
ARM GAS  C:\Users\Matthew\AppData\Local\Temp\ccvKoP6M.s 			page 13


 380 0006 0346     		mov	r3, r0
 381 0008 FB71     		strb	r3, [r7, #7]
 306:Generated_Source\PSoC5/ms_counter.c ****     ms_counter_CONTROL = control;
 382              		.loc 1 306 0
 383 000a 044A     		ldr	r2, .L26
 384 000c FB79     		ldrb	r3, [r7, #7]
 385 000e 1370     		strb	r3, [r2]
 307:Generated_Source\PSoC5/ms_counter.c **** }
 386              		.loc 1 307 0
 387 0010 00BF     		nop
 388 0012 0C37     		adds	r7, r7, #12
 389              		.cfi_def_cfa_offset 4
 390 0014 BD46     		mov	sp, r7
 391              		.cfi_def_cfa_register 13
 392              		@ sp needed
 393 0016 80BC     		pop	{r7}
 394              		.cfi_restore 7
 395              		.cfi_def_cfa_offset 0
 396 0018 7047     		bx	lr
 397              	.L27:
 398 001a 00BF     		.align	2
 399              	.L26:
 400 001c 74650040 		.word	1073767796
 401              		.cfi_endproc
 402              	.LFE7:
 403              		.size	ms_counter_WriteControlRegister, .-ms_counter_WriteControlRegister
 404              		.section	.text.ms_counter_WriteCounter,"ax",%progbits
 405              		.align	2
 406              		.global	ms_counter_WriteCounter
 407              		.thumb
 408              		.thumb_func
 409              		.type	ms_counter_WriteCounter, %function
 410              	ms_counter_WriteCounter:
 411              	.LFB8:
 308:Generated_Source\PSoC5/ms_counter.c **** 
 309:Generated_Source\PSoC5/ms_counter.c **** #endif  /* (!ms_counter_ControlRegRemoved) */
 310:Generated_Source\PSoC5/ms_counter.c **** 
 311:Generated_Source\PSoC5/ms_counter.c **** 
 312:Generated_Source\PSoC5/ms_counter.c **** #if (!(ms_counter_UsingFixedFunction && (CY_PSOC5A)))
 313:Generated_Source\PSoC5/ms_counter.c **** /*******************************************************************************
 314:Generated_Source\PSoC5/ms_counter.c **** * Function Name: ms_counter_WriteCounter
 315:Generated_Source\PSoC5/ms_counter.c **** ********************************************************************************
 316:Generated_Source\PSoC5/ms_counter.c **** * Summary:
 317:Generated_Source\PSoC5/ms_counter.c **** *   This funtion is used to set the counter to a specific value
 318:Generated_Source\PSoC5/ms_counter.c **** *
 319:Generated_Source\PSoC5/ms_counter.c **** * Parameters:  
 320:Generated_Source\PSoC5/ms_counter.c **** *  counter:  New counter value. 
 321:Generated_Source\PSoC5/ms_counter.c **** *
 322:Generated_Source\PSoC5/ms_counter.c **** * Return: 
 323:Generated_Source\PSoC5/ms_counter.c **** *  void 
 324:Generated_Source\PSoC5/ms_counter.c **** *
 325:Generated_Source\PSoC5/ms_counter.c **** *******************************************************************************/
 326:Generated_Source\PSoC5/ms_counter.c **** void ms_counter_WriteCounter(uint32 counter) \
 327:Generated_Source\PSoC5/ms_counter.c ****                                    
 328:Generated_Source\PSoC5/ms_counter.c **** {
 412              		.loc 1 328 0
 413              		.cfi_startproc
ARM GAS  C:\Users\Matthew\AppData\Local\Temp\ccvKoP6M.s 			page 14


 414              		@ args = 0, pretend = 0, frame = 8
 415              		@ frame_needed = 1, uses_anonymous_args = 0
 416              		@ link register save eliminated.
 417 0000 80B4     		push	{r7}
 418              		.cfi_def_cfa_offset 4
 419              		.cfi_offset 7, -4
 420 0002 83B0     		sub	sp, sp, #12
 421              		.cfi_def_cfa_offset 16
 422 0004 00AF     		add	r7, sp, #0
 423              		.cfi_def_cfa_register 7
 424 0006 7860     		str	r0, [r7, #4]
 329:Generated_Source\PSoC5/ms_counter.c ****     #if(ms_counter_UsingFixedFunction)
 330:Generated_Source\PSoC5/ms_counter.c ****         /* assert if block is already enabled */
 331:Generated_Source\PSoC5/ms_counter.c ****         CYASSERT (0u == (ms_counter_GLOBAL_ENABLE & ms_counter_BLOCK_EN_MASK));
 332:Generated_Source\PSoC5/ms_counter.c ****         /* If block is disabled, enable it and then write the counter */
 333:Generated_Source\PSoC5/ms_counter.c ****         ms_counter_GLOBAL_ENABLE |= ms_counter_BLOCK_EN_MASK;
 334:Generated_Source\PSoC5/ms_counter.c ****         CY_SET_REG16(ms_counter_COUNTER_LSB_PTR, (uint16)counter);
 335:Generated_Source\PSoC5/ms_counter.c ****         ms_counter_GLOBAL_ENABLE &= ((uint8)(~ms_counter_BLOCK_EN_MASK));
 336:Generated_Source\PSoC5/ms_counter.c ****     #else
 337:Generated_Source\PSoC5/ms_counter.c ****         CY_SET_REG32(ms_counter_COUNTER_LSB_PTR, counter);
 425              		.loc 1 337 0
 426 0008 034A     		ldr	r2, .L29
 427 000a 7B68     		ldr	r3, [r7, #4]
 428 000c 1360     		str	r3, [r2]
 338:Generated_Source\PSoC5/ms_counter.c ****     #endif /* (ms_counter_UsingFixedFunction) */
 339:Generated_Source\PSoC5/ms_counter.c **** }
 429              		.loc 1 339 0
 430 000e 00BF     		nop
 431 0010 0C37     		adds	r7, r7, #12
 432              		.cfi_def_cfa_offset 4
 433 0012 BD46     		mov	sp, r7
 434              		.cfi_def_cfa_register 13
 435              		@ sp needed
 436 0014 80BC     		pop	{r7}
 437              		.cfi_restore 7
 438              		.cfi_def_cfa_offset 0
 439 0016 7047     		bx	lr
 440              	.L30:
 441              		.align	2
 442              	.L29:
 443 0018 04650040 		.word	1073767684
 444              		.cfi_endproc
 445              	.LFE8:
 446              		.size	ms_counter_WriteCounter, .-ms_counter_WriteCounter
 447              		.section	.text.ms_counter_ReadCounter,"ax",%progbits
 448              		.align	2
 449              		.global	ms_counter_ReadCounter
 450              		.thumb
 451              		.thumb_func
 452              		.type	ms_counter_ReadCounter, %function
 453              	ms_counter_ReadCounter:
 454              	.LFB9:
 340:Generated_Source\PSoC5/ms_counter.c **** #endif /* (!(ms_counter_UsingFixedFunction && (CY_PSOC5A))) */
 341:Generated_Source\PSoC5/ms_counter.c **** 
 342:Generated_Source\PSoC5/ms_counter.c **** 
 343:Generated_Source\PSoC5/ms_counter.c **** /*******************************************************************************
 344:Generated_Source\PSoC5/ms_counter.c **** * Function Name: ms_counter_ReadCounter
ARM GAS  C:\Users\Matthew\AppData\Local\Temp\ccvKoP6M.s 			page 15


 345:Generated_Source\PSoC5/ms_counter.c **** ********************************************************************************
 346:Generated_Source\PSoC5/ms_counter.c **** * Summary:
 347:Generated_Source\PSoC5/ms_counter.c **** * Returns the current value of the counter.  It doesn't matter
 348:Generated_Source\PSoC5/ms_counter.c **** * if the counter is enabled or running.
 349:Generated_Source\PSoC5/ms_counter.c **** *
 350:Generated_Source\PSoC5/ms_counter.c **** * Parameters:  
 351:Generated_Source\PSoC5/ms_counter.c **** *  void:  
 352:Generated_Source\PSoC5/ms_counter.c **** *
 353:Generated_Source\PSoC5/ms_counter.c **** * Return: 
 354:Generated_Source\PSoC5/ms_counter.c **** *  (uint32) The present value of the counter.
 355:Generated_Source\PSoC5/ms_counter.c **** *
 356:Generated_Source\PSoC5/ms_counter.c **** *******************************************************************************/
 357:Generated_Source\PSoC5/ms_counter.c **** uint32 ms_counter_ReadCounter(void) 
 358:Generated_Source\PSoC5/ms_counter.c **** {
 455              		.loc 1 358 0
 456              		.cfi_startproc
 457              		@ args = 0, pretend = 0, frame = 0
 458              		@ frame_needed = 1, uses_anonymous_args = 0
 459              		@ link register save eliminated.
 460 0000 80B4     		push	{r7}
 461              		.cfi_def_cfa_offset 4
 462              		.cfi_offset 7, -4
 463 0002 00AF     		add	r7, sp, #0
 464              		.cfi_def_cfa_register 7
 359:Generated_Source\PSoC5/ms_counter.c ****     /* Force capture by reading Accumulator */
 360:Generated_Source\PSoC5/ms_counter.c ****     /* Must first do a software capture to be able to read the counter */
 361:Generated_Source\PSoC5/ms_counter.c ****     /* It is up to the user code to make sure there isn't already captured data in the FIFO */
 362:Generated_Source\PSoC5/ms_counter.c ****     #if(ms_counter_UsingFixedFunction)
 363:Generated_Source\PSoC5/ms_counter.c **** 		(void)CY_GET_REG16(ms_counter_COUNTER_LSB_PTR);
 364:Generated_Source\PSoC5/ms_counter.c **** 	#else
 365:Generated_Source\PSoC5/ms_counter.c **** 		(void)CY_GET_REG8(ms_counter_COUNTER_LSB_PTR_8BIT);
 465              		.loc 1 365 0
 466 0004 034B     		ldr	r3, .L33
 467 0006 1B78     		ldrb	r3, [r3]
 366:Generated_Source\PSoC5/ms_counter.c **** 	#endif/* (ms_counter_UsingFixedFunction) */
 367:Generated_Source\PSoC5/ms_counter.c ****     
 368:Generated_Source\PSoC5/ms_counter.c ****     /* Read the data from the FIFO (or capture register for Fixed Function)*/
 369:Generated_Source\PSoC5/ms_counter.c ****     #if(ms_counter_UsingFixedFunction)
 370:Generated_Source\PSoC5/ms_counter.c ****         return ((uint32)CY_GET_REG16(ms_counter_STATICCOUNT_LSB_PTR));
 371:Generated_Source\PSoC5/ms_counter.c ****     #else
 372:Generated_Source\PSoC5/ms_counter.c ****         return (CY_GET_REG32(ms_counter_STATICCOUNT_LSB_PTR));
 468              		.loc 1 372 0
 469 0008 034B     		ldr	r3, .L33+4
 470 000a 1B68     		ldr	r3, [r3]
 373:Generated_Source\PSoC5/ms_counter.c ****     #endif /* (ms_counter_UsingFixedFunction) */
 374:Generated_Source\PSoC5/ms_counter.c **** }
 471              		.loc 1 374 0
 472 000c 1846     		mov	r0, r3
 473 000e BD46     		mov	sp, r7
 474              		.cfi_def_cfa_register 13
 475              		@ sp needed
 476 0010 80BC     		pop	{r7}
 477              		.cfi_restore 7
 478              		.cfi_def_cfa_offset 0
 479 0012 7047     		bx	lr
 480              	.L34:
 481              		.align	2
ARM GAS  C:\Users\Matthew\AppData\Local\Temp\ccvKoP6M.s 			page 16


 482              	.L33:
 483 0014 04650040 		.word	1073767684
 484 0018 44650040 		.word	1073767748
 485              		.cfi_endproc
 486              	.LFE9:
 487              		.size	ms_counter_ReadCounter, .-ms_counter_ReadCounter
 488              		.section	.text.ms_counter_ReadCapture,"ax",%progbits
 489              		.align	2
 490              		.global	ms_counter_ReadCapture
 491              		.thumb
 492              		.thumb_func
 493              		.type	ms_counter_ReadCapture, %function
 494              	ms_counter_ReadCapture:
 495              	.LFB10:
 375:Generated_Source\PSoC5/ms_counter.c **** 
 376:Generated_Source\PSoC5/ms_counter.c **** 
 377:Generated_Source\PSoC5/ms_counter.c **** /*******************************************************************************
 378:Generated_Source\PSoC5/ms_counter.c **** * Function Name: ms_counter_ReadCapture
 379:Generated_Source\PSoC5/ms_counter.c **** ********************************************************************************
 380:Generated_Source\PSoC5/ms_counter.c **** * Summary:
 381:Generated_Source\PSoC5/ms_counter.c **** *   This function returns the last value captured.
 382:Generated_Source\PSoC5/ms_counter.c **** *
 383:Generated_Source\PSoC5/ms_counter.c **** * Parameters:  
 384:Generated_Source\PSoC5/ms_counter.c **** *  void
 385:Generated_Source\PSoC5/ms_counter.c **** *
 386:Generated_Source\PSoC5/ms_counter.c **** * Return: 
 387:Generated_Source\PSoC5/ms_counter.c **** *  (uint32) Present Capture value.
 388:Generated_Source\PSoC5/ms_counter.c **** *
 389:Generated_Source\PSoC5/ms_counter.c **** *******************************************************************************/
 390:Generated_Source\PSoC5/ms_counter.c **** uint32 ms_counter_ReadCapture(void) 
 391:Generated_Source\PSoC5/ms_counter.c **** {
 496              		.loc 1 391 0
 497              		.cfi_startproc
 498              		@ args = 0, pretend = 0, frame = 0
 499              		@ frame_needed = 1, uses_anonymous_args = 0
 500              		@ link register save eliminated.
 501 0000 80B4     		push	{r7}
 502              		.cfi_def_cfa_offset 4
 503              		.cfi_offset 7, -4
 504 0002 00AF     		add	r7, sp, #0
 505              		.cfi_def_cfa_register 7
 392:Generated_Source\PSoC5/ms_counter.c ****     #if(ms_counter_UsingFixedFunction)
 393:Generated_Source\PSoC5/ms_counter.c ****         return ((uint32)CY_GET_REG16(ms_counter_STATICCOUNT_LSB_PTR));
 394:Generated_Source\PSoC5/ms_counter.c ****     #else
 395:Generated_Source\PSoC5/ms_counter.c ****         return (CY_GET_REG32(ms_counter_STATICCOUNT_LSB_PTR));
 506              		.loc 1 395 0
 507 0004 024B     		ldr	r3, .L37
 508 0006 1B68     		ldr	r3, [r3]
 396:Generated_Source\PSoC5/ms_counter.c ****     #endif /* (ms_counter_UsingFixedFunction) */
 397:Generated_Source\PSoC5/ms_counter.c **** }
 509              		.loc 1 397 0
 510 0008 1846     		mov	r0, r3
 511 000a BD46     		mov	sp, r7
 512              		.cfi_def_cfa_register 13
 513              		@ sp needed
 514 000c 80BC     		pop	{r7}
 515              		.cfi_restore 7
ARM GAS  C:\Users\Matthew\AppData\Local\Temp\ccvKoP6M.s 			page 17


 516              		.cfi_def_cfa_offset 0
 517 000e 7047     		bx	lr
 518              	.L38:
 519              		.align	2
 520              	.L37:
 521 0010 44650040 		.word	1073767748
 522              		.cfi_endproc
 523              	.LFE10:
 524              		.size	ms_counter_ReadCapture, .-ms_counter_ReadCapture
 525              		.section	.text.ms_counter_WritePeriod,"ax",%progbits
 526              		.align	2
 527              		.global	ms_counter_WritePeriod
 528              		.thumb
 529              		.thumb_func
 530              		.type	ms_counter_WritePeriod, %function
 531              	ms_counter_WritePeriod:
 532              	.LFB11:
 398:Generated_Source\PSoC5/ms_counter.c **** 
 399:Generated_Source\PSoC5/ms_counter.c **** 
 400:Generated_Source\PSoC5/ms_counter.c **** /*******************************************************************************
 401:Generated_Source\PSoC5/ms_counter.c **** * Function Name: ms_counter_WritePeriod
 402:Generated_Source\PSoC5/ms_counter.c **** ********************************************************************************
 403:Generated_Source\PSoC5/ms_counter.c **** * Summary:
 404:Generated_Source\PSoC5/ms_counter.c **** * Changes the period of the counter.  The new period 
 405:Generated_Source\PSoC5/ms_counter.c **** * will be loaded the next time terminal count is detected.
 406:Generated_Source\PSoC5/ms_counter.c **** *
 407:Generated_Source\PSoC5/ms_counter.c **** * Parameters:  
 408:Generated_Source\PSoC5/ms_counter.c **** *  period: (uint32) A value of 0 will result in
 409:Generated_Source\PSoC5/ms_counter.c **** *         the counter remaining at zero.  
 410:Generated_Source\PSoC5/ms_counter.c **** *
 411:Generated_Source\PSoC5/ms_counter.c **** * Return: 
 412:Generated_Source\PSoC5/ms_counter.c **** *  void
 413:Generated_Source\PSoC5/ms_counter.c **** *
 414:Generated_Source\PSoC5/ms_counter.c **** *******************************************************************************/
 415:Generated_Source\PSoC5/ms_counter.c **** void ms_counter_WritePeriod(uint32 period) 
 416:Generated_Source\PSoC5/ms_counter.c **** {
 533              		.loc 1 416 0
 534              		.cfi_startproc
 535              		@ args = 0, pretend = 0, frame = 8
 536              		@ frame_needed = 1, uses_anonymous_args = 0
 537              		@ link register save eliminated.
 538 0000 80B4     		push	{r7}
 539              		.cfi_def_cfa_offset 4
 540              		.cfi_offset 7, -4
 541 0002 83B0     		sub	sp, sp, #12
 542              		.cfi_def_cfa_offset 16
 543 0004 00AF     		add	r7, sp, #0
 544              		.cfi_def_cfa_register 7
 545 0006 7860     		str	r0, [r7, #4]
 417:Generated_Source\PSoC5/ms_counter.c ****     #if(ms_counter_UsingFixedFunction)
 418:Generated_Source\PSoC5/ms_counter.c ****         CY_SET_REG16(ms_counter_PERIOD_LSB_PTR,(uint16)period);
 419:Generated_Source\PSoC5/ms_counter.c ****     #else
 420:Generated_Source\PSoC5/ms_counter.c ****         CY_SET_REG32(ms_counter_PERIOD_LSB_PTR, period);
 546              		.loc 1 420 0
 547 0008 034A     		ldr	r2, .L40
 548 000a 7B68     		ldr	r3, [r7, #4]
 549 000c 1360     		str	r3, [r2]
ARM GAS  C:\Users\Matthew\AppData\Local\Temp\ccvKoP6M.s 			page 18


 421:Generated_Source\PSoC5/ms_counter.c ****     #endif /* (ms_counter_UsingFixedFunction) */
 422:Generated_Source\PSoC5/ms_counter.c **** }
 550              		.loc 1 422 0
 551 000e 00BF     		nop
 552 0010 0C37     		adds	r7, r7, #12
 553              		.cfi_def_cfa_offset 4
 554 0012 BD46     		mov	sp, r7
 555              		.cfi_def_cfa_register 13
 556              		@ sp needed
 557 0014 80BC     		pop	{r7}
 558              		.cfi_restore 7
 559              		.cfi_def_cfa_offset 0
 560 0016 7047     		bx	lr
 561              	.L41:
 562              		.align	2
 563              	.L40:
 564 0018 24650040 		.word	1073767716
 565              		.cfi_endproc
 566              	.LFE11:
 567              		.size	ms_counter_WritePeriod, .-ms_counter_WritePeriod
 568              		.section	.text.ms_counter_ReadPeriod,"ax",%progbits
 569              		.align	2
 570              		.global	ms_counter_ReadPeriod
 571              		.thumb
 572              		.thumb_func
 573              		.type	ms_counter_ReadPeriod, %function
 574              	ms_counter_ReadPeriod:
 575              	.LFB12:
 423:Generated_Source\PSoC5/ms_counter.c **** 
 424:Generated_Source\PSoC5/ms_counter.c **** 
 425:Generated_Source\PSoC5/ms_counter.c **** /*******************************************************************************
 426:Generated_Source\PSoC5/ms_counter.c **** * Function Name: ms_counter_ReadPeriod
 427:Generated_Source\PSoC5/ms_counter.c **** ********************************************************************************
 428:Generated_Source\PSoC5/ms_counter.c **** * Summary:
 429:Generated_Source\PSoC5/ms_counter.c **** * Reads the current period value without affecting counter operation.
 430:Generated_Source\PSoC5/ms_counter.c **** *
 431:Generated_Source\PSoC5/ms_counter.c **** * Parameters:  
 432:Generated_Source\PSoC5/ms_counter.c **** *  void:  
 433:Generated_Source\PSoC5/ms_counter.c **** *
 434:Generated_Source\PSoC5/ms_counter.c **** * Return: 
 435:Generated_Source\PSoC5/ms_counter.c **** *  (uint32) Present period value.
 436:Generated_Source\PSoC5/ms_counter.c **** *
 437:Generated_Source\PSoC5/ms_counter.c **** *******************************************************************************/
 438:Generated_Source\PSoC5/ms_counter.c **** uint32 ms_counter_ReadPeriod(void) 
 439:Generated_Source\PSoC5/ms_counter.c **** {
 576              		.loc 1 439 0
 577              		.cfi_startproc
 578              		@ args = 0, pretend = 0, frame = 0
 579              		@ frame_needed = 1, uses_anonymous_args = 0
 580              		@ link register save eliminated.
 581 0000 80B4     		push	{r7}
 582              		.cfi_def_cfa_offset 4
 583              		.cfi_offset 7, -4
 584 0002 00AF     		add	r7, sp, #0
 585              		.cfi_def_cfa_register 7
 440:Generated_Source\PSoC5/ms_counter.c ****     #if(ms_counter_UsingFixedFunction)
 441:Generated_Source\PSoC5/ms_counter.c ****         return ((uint32)CY_GET_REG16(ms_counter_PERIOD_LSB_PTR));
ARM GAS  C:\Users\Matthew\AppData\Local\Temp\ccvKoP6M.s 			page 19


 442:Generated_Source\PSoC5/ms_counter.c ****     #else
 443:Generated_Source\PSoC5/ms_counter.c ****         return (CY_GET_REG32(ms_counter_PERIOD_LSB_PTR));
 586              		.loc 1 443 0
 587 0004 024B     		ldr	r3, .L44
 588 0006 1B68     		ldr	r3, [r3]
 444:Generated_Source\PSoC5/ms_counter.c ****     #endif /* (ms_counter_UsingFixedFunction) */
 445:Generated_Source\PSoC5/ms_counter.c **** }
 589              		.loc 1 445 0
 590 0008 1846     		mov	r0, r3
 591 000a BD46     		mov	sp, r7
 592              		.cfi_def_cfa_register 13
 593              		@ sp needed
 594 000c 80BC     		pop	{r7}
 595              		.cfi_restore 7
 596              		.cfi_def_cfa_offset 0
 597 000e 7047     		bx	lr
 598              	.L45:
 599              		.align	2
 600              	.L44:
 601 0010 24650040 		.word	1073767716
 602              		.cfi_endproc
 603              	.LFE12:
 604              		.size	ms_counter_ReadPeriod, .-ms_counter_ReadPeriod
 605              		.section	.text.ms_counter_WriteCompare,"ax",%progbits
 606              		.align	2
 607              		.global	ms_counter_WriteCompare
 608              		.thumb
 609              		.thumb_func
 610              		.type	ms_counter_WriteCompare, %function
 611              	ms_counter_WriteCompare:
 612              	.LFB13:
 446:Generated_Source\PSoC5/ms_counter.c **** 
 447:Generated_Source\PSoC5/ms_counter.c **** 
 448:Generated_Source\PSoC5/ms_counter.c **** #if (!ms_counter_UsingFixedFunction)
 449:Generated_Source\PSoC5/ms_counter.c **** /*******************************************************************************
 450:Generated_Source\PSoC5/ms_counter.c **** * Function Name: ms_counter_WriteCompare
 451:Generated_Source\PSoC5/ms_counter.c **** ********************************************************************************
 452:Generated_Source\PSoC5/ms_counter.c **** * Summary:
 453:Generated_Source\PSoC5/ms_counter.c **** * Changes the compare value.  The compare output will 
 454:Generated_Source\PSoC5/ms_counter.c **** * reflect the new value on the next UDB clock.  The compare output will be 
 455:Generated_Source\PSoC5/ms_counter.c **** * driven high when the present counter value compares true based on the 
 456:Generated_Source\PSoC5/ms_counter.c **** * configured compare mode setting. 
 457:Generated_Source\PSoC5/ms_counter.c **** *
 458:Generated_Source\PSoC5/ms_counter.c **** * Parameters:  
 459:Generated_Source\PSoC5/ms_counter.c **** *  Compare:  New compare value. 
 460:Generated_Source\PSoC5/ms_counter.c **** *
 461:Generated_Source\PSoC5/ms_counter.c **** * Return: 
 462:Generated_Source\PSoC5/ms_counter.c **** *  void
 463:Generated_Source\PSoC5/ms_counter.c **** *
 464:Generated_Source\PSoC5/ms_counter.c **** *******************************************************************************/
 465:Generated_Source\PSoC5/ms_counter.c **** void ms_counter_WriteCompare(uint32 compare) \
 466:Generated_Source\PSoC5/ms_counter.c ****                                    
 467:Generated_Source\PSoC5/ms_counter.c **** {
 613              		.loc 1 467 0
 614              		.cfi_startproc
 615              		@ args = 0, pretend = 0, frame = 8
 616              		@ frame_needed = 1, uses_anonymous_args = 0
ARM GAS  C:\Users\Matthew\AppData\Local\Temp\ccvKoP6M.s 			page 20


 617              		@ link register save eliminated.
 618 0000 80B4     		push	{r7}
 619              		.cfi_def_cfa_offset 4
 620              		.cfi_offset 7, -4
 621 0002 83B0     		sub	sp, sp, #12
 622              		.cfi_def_cfa_offset 16
 623 0004 00AF     		add	r7, sp, #0
 624              		.cfi_def_cfa_register 7
 625 0006 7860     		str	r0, [r7, #4]
 468:Generated_Source\PSoC5/ms_counter.c ****     #if(ms_counter_UsingFixedFunction)
 469:Generated_Source\PSoC5/ms_counter.c ****         CY_SET_REG16(ms_counter_COMPARE_LSB_PTR, (uint16)compare);
 470:Generated_Source\PSoC5/ms_counter.c ****     #else
 471:Generated_Source\PSoC5/ms_counter.c ****         CY_SET_REG32(ms_counter_COMPARE_LSB_PTR, compare);
 626              		.loc 1 471 0
 627 0008 034A     		ldr	r2, .L47
 628 000a 7B68     		ldr	r3, [r7, #4]
 629 000c 1360     		str	r3, [r2]
 472:Generated_Source\PSoC5/ms_counter.c ****     #endif /* (ms_counter_UsingFixedFunction) */
 473:Generated_Source\PSoC5/ms_counter.c **** }
 630              		.loc 1 473 0
 631 000e 00BF     		nop
 632 0010 0C37     		adds	r7, r7, #12
 633              		.cfi_def_cfa_offset 4
 634 0012 BD46     		mov	sp, r7
 635              		.cfi_def_cfa_register 13
 636              		@ sp needed
 637 0014 80BC     		pop	{r7}
 638              		.cfi_restore 7
 639              		.cfi_def_cfa_offset 0
 640 0016 7047     		bx	lr
 641              	.L48:
 642              		.align	2
 643              	.L47:
 644 0018 34650040 		.word	1073767732
 645              		.cfi_endproc
 646              	.LFE13:
 647              		.size	ms_counter_WriteCompare, .-ms_counter_WriteCompare
 648              		.section	.text.ms_counter_ReadCompare,"ax",%progbits
 649              		.align	2
 650              		.global	ms_counter_ReadCompare
 651              		.thumb
 652              		.thumb_func
 653              		.type	ms_counter_ReadCompare, %function
 654              	ms_counter_ReadCompare:
 655              	.LFB14:
 474:Generated_Source\PSoC5/ms_counter.c **** 
 475:Generated_Source\PSoC5/ms_counter.c **** 
 476:Generated_Source\PSoC5/ms_counter.c **** /*******************************************************************************
 477:Generated_Source\PSoC5/ms_counter.c **** * Function Name: ms_counter_ReadCompare
 478:Generated_Source\PSoC5/ms_counter.c **** ********************************************************************************
 479:Generated_Source\PSoC5/ms_counter.c **** * Summary:
 480:Generated_Source\PSoC5/ms_counter.c **** * Returns the compare value.
 481:Generated_Source\PSoC5/ms_counter.c **** *
 482:Generated_Source\PSoC5/ms_counter.c **** * Parameters:  
 483:Generated_Source\PSoC5/ms_counter.c **** *  void:
 484:Generated_Source\PSoC5/ms_counter.c **** *
 485:Generated_Source\PSoC5/ms_counter.c **** * Return: 
ARM GAS  C:\Users\Matthew\AppData\Local\Temp\ccvKoP6M.s 			page 21


 486:Generated_Source\PSoC5/ms_counter.c **** *  (uint32) Present compare value.
 487:Generated_Source\PSoC5/ms_counter.c **** *
 488:Generated_Source\PSoC5/ms_counter.c **** *******************************************************************************/
 489:Generated_Source\PSoC5/ms_counter.c **** uint32 ms_counter_ReadCompare(void) 
 490:Generated_Source\PSoC5/ms_counter.c **** {
 656              		.loc 1 490 0
 657              		.cfi_startproc
 658              		@ args = 0, pretend = 0, frame = 0
 659              		@ frame_needed = 1, uses_anonymous_args = 0
 660              		@ link register save eliminated.
 661 0000 80B4     		push	{r7}
 662              		.cfi_def_cfa_offset 4
 663              		.cfi_offset 7, -4
 664 0002 00AF     		add	r7, sp, #0
 665              		.cfi_def_cfa_register 7
 491:Generated_Source\PSoC5/ms_counter.c ****     return (CY_GET_REG32(ms_counter_COMPARE_LSB_PTR));
 666              		.loc 1 491 0
 667 0004 024B     		ldr	r3, .L51
 668 0006 1B68     		ldr	r3, [r3]
 492:Generated_Source\PSoC5/ms_counter.c **** }
 669              		.loc 1 492 0
 670 0008 1846     		mov	r0, r3
 671 000a BD46     		mov	sp, r7
 672              		.cfi_def_cfa_register 13
 673              		@ sp needed
 674 000c 80BC     		pop	{r7}
 675              		.cfi_restore 7
 676              		.cfi_def_cfa_offset 0
 677 000e 7047     		bx	lr
 678              	.L52:
 679              		.align	2
 680              	.L51:
 681 0010 34650040 		.word	1073767732
 682              		.cfi_endproc
 683              	.LFE14:
 684              		.size	ms_counter_ReadCompare, .-ms_counter_ReadCompare
 685              		.section	.text.ms_counter_ClearFIFO,"ax",%progbits
 686              		.align	2
 687              		.global	ms_counter_ClearFIFO
 688              		.thumb
 689              		.thumb_func
 690              		.type	ms_counter_ClearFIFO, %function
 691              	ms_counter_ClearFIFO:
 692              	.LFB15:
 493:Generated_Source\PSoC5/ms_counter.c **** 
 494:Generated_Source\PSoC5/ms_counter.c **** 
 495:Generated_Source\PSoC5/ms_counter.c **** #if (ms_counter_COMPARE_MODE_SOFTWARE)
 496:Generated_Source\PSoC5/ms_counter.c **** /*******************************************************************************
 497:Generated_Source\PSoC5/ms_counter.c **** * Function Name: ms_counter_SetCompareMode
 498:Generated_Source\PSoC5/ms_counter.c **** ********************************************************************************
 499:Generated_Source\PSoC5/ms_counter.c **** * Summary:
 500:Generated_Source\PSoC5/ms_counter.c **** *  Sets the software controlled Compare Mode.
 501:Generated_Source\PSoC5/ms_counter.c **** *
 502:Generated_Source\PSoC5/ms_counter.c **** * Parameters:
 503:Generated_Source\PSoC5/ms_counter.c **** *  compareMode:  Compare Mode Enumerated Type.
 504:Generated_Source\PSoC5/ms_counter.c **** *
 505:Generated_Source\PSoC5/ms_counter.c **** * Return:
ARM GAS  C:\Users\Matthew\AppData\Local\Temp\ccvKoP6M.s 			page 22


 506:Generated_Source\PSoC5/ms_counter.c **** *  void
 507:Generated_Source\PSoC5/ms_counter.c **** *
 508:Generated_Source\PSoC5/ms_counter.c **** *******************************************************************************/
 509:Generated_Source\PSoC5/ms_counter.c **** void ms_counter_SetCompareMode(uint8 compareMode) 
 510:Generated_Source\PSoC5/ms_counter.c **** {
 511:Generated_Source\PSoC5/ms_counter.c ****     /* Clear the compare mode bits in the control register */
 512:Generated_Source\PSoC5/ms_counter.c ****     ms_counter_CONTROL &= ((uint8)(~ms_counter_CTRL_CMPMODE_MASK));
 513:Generated_Source\PSoC5/ms_counter.c ****     
 514:Generated_Source\PSoC5/ms_counter.c ****     /* Write the new setting */
 515:Generated_Source\PSoC5/ms_counter.c ****     ms_counter_CONTROL |= compareMode;
 516:Generated_Source\PSoC5/ms_counter.c **** }
 517:Generated_Source\PSoC5/ms_counter.c **** #endif  /* (ms_counter_COMPARE_MODE_SOFTWARE) */
 518:Generated_Source\PSoC5/ms_counter.c **** 
 519:Generated_Source\PSoC5/ms_counter.c **** 
 520:Generated_Source\PSoC5/ms_counter.c **** #if (ms_counter_CAPTURE_MODE_SOFTWARE)
 521:Generated_Source\PSoC5/ms_counter.c **** /*******************************************************************************
 522:Generated_Source\PSoC5/ms_counter.c **** * Function Name: ms_counter_SetCaptureMode
 523:Generated_Source\PSoC5/ms_counter.c **** ********************************************************************************
 524:Generated_Source\PSoC5/ms_counter.c **** * Summary:
 525:Generated_Source\PSoC5/ms_counter.c **** *  Sets the software controlled Capture Mode.
 526:Generated_Source\PSoC5/ms_counter.c **** *
 527:Generated_Source\PSoC5/ms_counter.c **** * Parameters:
 528:Generated_Source\PSoC5/ms_counter.c **** *  captureMode:  Capture Mode Enumerated Type.
 529:Generated_Source\PSoC5/ms_counter.c **** *
 530:Generated_Source\PSoC5/ms_counter.c **** * Return:
 531:Generated_Source\PSoC5/ms_counter.c **** *  void
 532:Generated_Source\PSoC5/ms_counter.c **** *
 533:Generated_Source\PSoC5/ms_counter.c **** *******************************************************************************/
 534:Generated_Source\PSoC5/ms_counter.c **** void ms_counter_SetCaptureMode(uint8 captureMode) 
 535:Generated_Source\PSoC5/ms_counter.c **** {
 536:Generated_Source\PSoC5/ms_counter.c ****     /* Clear the capture mode bits in the control register */
 537:Generated_Source\PSoC5/ms_counter.c ****     ms_counter_CONTROL &= ((uint8)(~ms_counter_CTRL_CAPMODE_MASK));
 538:Generated_Source\PSoC5/ms_counter.c ****     
 539:Generated_Source\PSoC5/ms_counter.c ****     /* Write the new setting */
 540:Generated_Source\PSoC5/ms_counter.c ****     ms_counter_CONTROL |= ((uint8)((uint8)captureMode << ms_counter_CTRL_CAPMODE0_SHIFT));
 541:Generated_Source\PSoC5/ms_counter.c **** }
 542:Generated_Source\PSoC5/ms_counter.c **** #endif  /* (ms_counter_CAPTURE_MODE_SOFTWARE) */
 543:Generated_Source\PSoC5/ms_counter.c **** 
 544:Generated_Source\PSoC5/ms_counter.c **** 
 545:Generated_Source\PSoC5/ms_counter.c **** /*******************************************************************************
 546:Generated_Source\PSoC5/ms_counter.c **** * Function Name: ms_counter_ClearFIFO
 547:Generated_Source\PSoC5/ms_counter.c **** ********************************************************************************
 548:Generated_Source\PSoC5/ms_counter.c **** * Summary:
 549:Generated_Source\PSoC5/ms_counter.c **** *   This function clears all capture data from the capture FIFO
 550:Generated_Source\PSoC5/ms_counter.c **** *
 551:Generated_Source\PSoC5/ms_counter.c **** * Parameters:  
 552:Generated_Source\PSoC5/ms_counter.c **** *  void:
 553:Generated_Source\PSoC5/ms_counter.c **** *
 554:Generated_Source\PSoC5/ms_counter.c **** * Return: 
 555:Generated_Source\PSoC5/ms_counter.c **** *  None
 556:Generated_Source\PSoC5/ms_counter.c **** *
 557:Generated_Source\PSoC5/ms_counter.c **** *******************************************************************************/
 558:Generated_Source\PSoC5/ms_counter.c **** void ms_counter_ClearFIFO(void) 
 559:Generated_Source\PSoC5/ms_counter.c **** {
 693              		.loc 1 559 0
 694              		.cfi_startproc
 695              		@ args = 0, pretend = 0, frame = 0
ARM GAS  C:\Users\Matthew\AppData\Local\Temp\ccvKoP6M.s 			page 23


 696              		@ frame_needed = 1, uses_anonymous_args = 0
 697 0000 80B5     		push	{r7, lr}
 698              		.cfi_def_cfa_offset 8
 699              		.cfi_offset 7, -8
 700              		.cfi_offset 14, -4
 701 0002 00AF     		add	r7, sp, #0
 702              		.cfi_def_cfa_register 7
 560:Generated_Source\PSoC5/ms_counter.c **** 
 561:Generated_Source\PSoC5/ms_counter.c ****     while(0u != (ms_counter_ReadStatusRegister() & ms_counter_STATUS_FIFONEMP))
 703              		.loc 1 561 0
 704 0004 01E0     		b	.L54
 705              	.L55:
 562:Generated_Source\PSoC5/ms_counter.c ****     {
 563:Generated_Source\PSoC5/ms_counter.c ****         (void)ms_counter_ReadCapture();
 706              		.loc 1 563 0
 707 0006 FFF7FEFF 		bl	ms_counter_ReadCapture
 708              	.L54:
 561:Generated_Source\PSoC5/ms_counter.c ****     {
 709              		.loc 1 561 0
 710 000a FFF7FEFF 		bl	ms_counter_ReadStatusRegister
 711 000e 0346     		mov	r3, r0
 712 0010 03F04003 		and	r3, r3, #64
 713 0014 002B     		cmp	r3, #0
 714 0016 F6D1     		bne	.L55
 564:Generated_Source\PSoC5/ms_counter.c ****     }
 565:Generated_Source\PSoC5/ms_counter.c **** 
 566:Generated_Source\PSoC5/ms_counter.c **** }
 715              		.loc 1 566 0
 716 0018 00BF     		nop
 717 001a 80BD     		pop	{r7, pc}
 718              		.cfi_endproc
 719              	.LFE15:
 720              		.size	ms_counter_ClearFIFO, .-ms_counter_ClearFIFO
 721              		.text
 722              	.Letext0:
 723              		.file 2 "Generated_Source\\PSoC5\\cytypes.h"