ARM GAS  C:\Users\Matthew\AppData\Local\Temp\ccXVKO4t.s 			page 1


   1              		.syntax unified
   2              		.cpu cortex-m3
   3              		.fpu softvfp
   4              		.eabi_attribute 20, 1
   5              		.eabi_attribute 21, 1
   6              		.eabi_attribute 23, 3
   7              		.eabi_attribute 24, 1
   8              		.eabi_attribute 25, 1
   9              		.eabi_attribute 26, 1
  10              		.eabi_attribute 30, 6
  11              		.eabi_attribute 34, 1
  12              		.eabi_attribute 18, 4
  13              		.thumb
  14              		.syntax unified
  15              		.file	"oled_ssd1331.c"
  16              		.text
  17              	.Ltext0:
  18              		.cfi_sections	.debug_frame
  19              		.comm	screen_buffer,255,4
  20              		.section	.text.send_cmd,"ax",%progbits
  21              		.align	2
  22              		.global	send_cmd
  23              		.thumb
  24              		.thumb_func
  25              		.type	send_cmd, %function
  26              	send_cmd:
  27              	.LFB0:
  28              		.file 1 "oled_ssd1331.c"
   1:oled_ssd1331.c **** /* ========================================
   2:oled_ssd1331.c ****  *
   3:oled_ssd1331.c ****  * Copyright YOUR COMPANY, THE YEAR
   4:oled_ssd1331.c ****  * All Rights Reserved
   5:oled_ssd1331.c ****  * UNPUBLISHED, LICENSED SOFTWARE.
   6:oled_ssd1331.c ****  *
   7:oled_ssd1331.c ****  * CONFIDENTIAL AND PROPRIETARY INFORMATION
   8:oled_ssd1331.c ****  * WHICH IS THE PROPERTY OF your company.
   9:oled_ssd1331.c ****  *
  10:oled_ssd1331.c ****  * ========================================
  11:oled_ssd1331.c **** */
  12:oled_ssd1331.c **** #include "oled_ssd1331.h"
  13:oled_ssd1331.c **** #include "common.h"
  14:oled_ssd1331.c **** 
  15:oled_ssd1331.c **** uint8 screen_buffer[255];
  16:oled_ssd1331.c **** 
  17:oled_ssd1331.c **** void send_cmd(uint8 cmd) {
  29              		.loc 1 17 0
  30              		.cfi_startproc
  31              		@ args = 0, pretend = 0, frame = 8
  32              		@ frame_needed = 1, uses_anonymous_args = 0
  33 0000 80B5     		push	{r7, lr}
  34              		.cfi_def_cfa_offset 8
  35              		.cfi_offset 7, -8
  36              		.cfi_offset 14, -4
  37 0002 82B0     		sub	sp, sp, #8
  38              		.cfi_def_cfa_offset 16
  39 0004 00AF     		add	r7, sp, #0
  40              		.cfi_def_cfa_register 7
ARM GAS  C:\Users\Matthew\AppData\Local\Temp\ccXVKO4t.s 			page 2


  41 0006 0346     		mov	r3, r0
  42 0008 FB71     		strb	r3, [r7, #7]
  18:oled_ssd1331.c ****     OLED_DC_Write(0);
  43              		.loc 1 18 0
  44 000a 0020     		movs	r0, #0
  45 000c FFF7FEFF 		bl	OLED_DC_Write
  19:oled_ssd1331.c ****     OLED_CS_Write(0);
  46              		.loc 1 19 0
  47 0010 0020     		movs	r0, #0
  48 0012 FFF7FEFF 		bl	OLED_CS_Write
  20:oled_ssd1331.c ****     SPI_OLED_WriteTxData(cmd);
  49              		.loc 1 20 0
  50 0016 FB79     		ldrb	r3, [r7, #7]	@ zero_extendqisi2
  51 0018 1846     		mov	r0, r3
  52 001a FFF7FEFF 		bl	SPI_OLED_WriteTxData
  21:oled_ssd1331.c ****     while(spi_done == 0) {
  53              		.loc 1 21 0
  54 001e 00BF     		nop
  55              	.L2:
  56              		.loc 1 21 0 is_stmt 0 discriminator 1
  57 0020 054B     		ldr	r3, .L3
  58 0022 1B68     		ldr	r3, [r3]
  59 0024 002B     		cmp	r3, #0
  60 0026 FBD0     		beq	.L2
  22:oled_ssd1331.c ****     }
  23:oled_ssd1331.c ****     spi_done = 0;
  61              		.loc 1 23 0 is_stmt 1
  62 0028 034B     		ldr	r3, .L3
  63 002a 0022     		movs	r2, #0
  64 002c 1A60     		str	r2, [r3]
  24:oled_ssd1331.c ****     // OLED_CS_Write(1);
  25:oled_ssd1331.c **** }
  65              		.loc 1 25 0
  66 002e 00BF     		nop
  67 0030 0837     		adds	r7, r7, #8
  68              		.cfi_def_cfa_offset 8
  69 0032 BD46     		mov	sp, r7
  70              		.cfi_def_cfa_register 13
  71              		@ sp needed
  72 0034 80BD     		pop	{r7, pc}
  73              	.L4:
  74 0036 00BF     		.align	2
  75              	.L3:
  76 0038 00000000 		.word	spi_done
  77              		.cfi_endproc
  78              	.LFE0:
  79              		.size	send_cmd, .-send_cmd
  80              		.section	.text.send_data,"ax",%progbits
  81              		.align	2
  82              		.global	send_data
  83              		.thumb
  84              		.thumb_func
  85              		.type	send_data, %function
  86              	send_data:
  87              	.LFB1:
  26:oled_ssd1331.c **** 
  27:oled_ssd1331.c **** void send_data(uint8 data) {
ARM GAS  C:\Users\Matthew\AppData\Local\Temp\ccXVKO4t.s 			page 3


  88              		.loc 1 27 0
  89              		.cfi_startproc
  90              		@ args = 0, pretend = 0, frame = 8
  91              		@ frame_needed = 1, uses_anonymous_args = 0
  92 0000 80B5     		push	{r7, lr}
  93              		.cfi_def_cfa_offset 8
  94              		.cfi_offset 7, -8
  95              		.cfi_offset 14, -4
  96 0002 82B0     		sub	sp, sp, #8
  97              		.cfi_def_cfa_offset 16
  98 0004 00AF     		add	r7, sp, #0
  99              		.cfi_def_cfa_register 7
 100 0006 0346     		mov	r3, r0
 101 0008 FB71     		strb	r3, [r7, #7]
  28:oled_ssd1331.c ****     OLED_DC_Write(1);
 102              		.loc 1 28 0
 103 000a 0120     		movs	r0, #1
 104 000c FFF7FEFF 		bl	OLED_DC_Write
  29:oled_ssd1331.c ****     OLED_CS_Write(0);
 105              		.loc 1 29 0
 106 0010 0020     		movs	r0, #0
 107 0012 FFF7FEFF 		bl	OLED_CS_Write
  30:oled_ssd1331.c ****     SPI_OLED_WriteTxData(data);
 108              		.loc 1 30 0
 109 0016 FB79     		ldrb	r3, [r7, #7]	@ zero_extendqisi2
 110 0018 1846     		mov	r0, r3
 111 001a FFF7FEFF 		bl	SPI_OLED_WriteTxData
  31:oled_ssd1331.c ****     while(spi_done == 0) {
 112              		.loc 1 31 0
 113 001e 00BF     		nop
 114              	.L6:
 115              		.loc 1 31 0 is_stmt 0 discriminator 1
 116 0020 054B     		ldr	r3, .L7
 117 0022 1B68     		ldr	r3, [r3]
 118 0024 002B     		cmp	r3, #0
 119 0026 FBD0     		beq	.L6
  32:oled_ssd1331.c ****     }
  33:oled_ssd1331.c ****     spi_done = 0;
 120              		.loc 1 33 0 is_stmt 1
 121 0028 034B     		ldr	r3, .L7
 122 002a 0022     		movs	r2, #0
 123 002c 1A60     		str	r2, [r3]
  34:oled_ssd1331.c ****     // OLED_CS_Write(1);
  35:oled_ssd1331.c **** }
 124              		.loc 1 35 0
 125 002e 00BF     		nop
 126 0030 0837     		adds	r7, r7, #8
 127              		.cfi_def_cfa_offset 8
 128 0032 BD46     		mov	sp, r7
 129              		.cfi_def_cfa_register 13
 130              		@ sp needed
 131 0034 80BD     		pop	{r7, pc}
 132              	.L8:
 133 0036 00BF     		.align	2
 134              	.L7:
 135 0038 00000000 		.word	spi_done
 136              		.cfi_endproc
ARM GAS  C:\Users\Matthew\AppData\Local\Temp\ccXVKO4t.s 			page 4


 137              	.LFE1:
 138              		.size	send_data, .-send_data
 139              		.section	.text.init_oled,"ax",%progbits
 140              		.align	2
 141              		.global	init_oled
 142              		.thumb
 143              		.thumb_func
 144              		.type	init_oled, %function
 145              	init_oled:
 146              	.LFB2:
  36:oled_ssd1331.c **** 
  37:oled_ssd1331.c **** void init_oled() {
 147              		.loc 1 37 0
 148              		.cfi_startproc
 149              		@ args = 0, pretend = 0, frame = 8
 150              		@ frame_needed = 1, uses_anonymous_args = 0
 151 0000 80B5     		push	{r7, lr}
 152              		.cfi_def_cfa_offset 8
 153              		.cfi_offset 7, -8
 154              		.cfi_offset 14, -4
 155 0002 82B0     		sub	sp, sp, #8
 156              		.cfi_def_cfa_offset 16
 157 0004 00AF     		add	r7, sp, #0
 158              		.cfi_def_cfa_register 7
  38:oled_ssd1331.c ****     OLED_CS_Write(0);
 159              		.loc 1 38 0
 160 0006 0020     		movs	r0, #0
 161 0008 FFF7FEFF 		bl	OLED_CS_Write
  39:oled_ssd1331.c ****     send_cmd(SSD1331_CMD_DISPLAYOFF);  	// 0xAE
 162              		.loc 1 39 0
 163 000c AE20     		movs	r0, #174
 164 000e FFF7FEFF 		bl	send_cmd
  40:oled_ssd1331.c ****     send_cmd(SSD1331_CMD_SETREMAP); 	// 0xA0
 165              		.loc 1 40 0
 166 0012 A020     		movs	r0, #160
 167 0014 FFF7FEFF 		bl	send_cmd
  41:oled_ssd1331.c ****     send_cmd(0x72);				// RGB Color
 168              		.loc 1 41 0
 169 0018 7220     		movs	r0, #114
 170 001a FFF7FEFF 		bl	send_cmd
  42:oled_ssd1331.c ****     send_cmd(SSD1331_CMD_STARTLINE); 	// 0xA1
 171              		.loc 1 42 0
 172 001e A120     		movs	r0, #161
 173 0020 FFF7FEFF 		bl	send_cmd
  43:oled_ssd1331.c ****     send_cmd(0x0);
 174              		.loc 1 43 0
 175 0024 0020     		movs	r0, #0
 176 0026 FFF7FEFF 		bl	send_cmd
  44:oled_ssd1331.c ****     send_cmd(SSD1331_CMD_DISPLAYOFFSET); 	// 0xA2
 177              		.loc 1 44 0
 178 002a A220     		movs	r0, #162
 179 002c FFF7FEFF 		bl	send_cmd
  45:oled_ssd1331.c ****     send_cmd(0x0);
 180              		.loc 1 45 0
 181 0030 0020     		movs	r0, #0
 182 0032 FFF7FEFF 		bl	send_cmd
  46:oled_ssd1331.c ****     send_cmd(SSD1331_CMD_NORMALDISPLAY);  	// 0xA4
ARM GAS  C:\Users\Matthew\AppData\Local\Temp\ccXVKO4t.s 			page 5


 183              		.loc 1 46 0
 184 0036 A420     		movs	r0, #164
 185 0038 FFF7FEFF 		bl	send_cmd
  47:oled_ssd1331.c ****     send_cmd(SSD1331_CMD_SETMULTIPLEX); 	// 0xA8
 186              		.loc 1 47 0
 187 003c A820     		movs	r0, #168
 188 003e FFF7FEFF 		bl	send_cmd
  48:oled_ssd1331.c ****     send_cmd(0x3F);  			// 0x3F 1/64 duty
 189              		.loc 1 48 0
 190 0042 3F20     		movs	r0, #63
 191 0044 FFF7FEFF 		bl	send_cmd
  49:oled_ssd1331.c ****     send_cmd(SSD1331_CMD_SETMASTER);  	// 0xAD
 192              		.loc 1 49 0
 193 0048 AD20     		movs	r0, #173
 194 004a FFF7FEFF 		bl	send_cmd
  50:oled_ssd1331.c ****     send_cmd(0x8E);
 195              		.loc 1 50 0
 196 004e 8E20     		movs	r0, #142
 197 0050 FFF7FEFF 		bl	send_cmd
  51:oled_ssd1331.c ****     send_cmd(SSD1331_CMD_POWERMODE);  	// 0xB0
 198              		.loc 1 51 0
 199 0054 B020     		movs	r0, #176
 200 0056 FFF7FEFF 		bl	send_cmd
  52:oled_ssd1331.c ****     send_cmd(0x0B);
 201              		.loc 1 52 0
 202 005a 0B20     		movs	r0, #11
 203 005c FFF7FEFF 		bl	send_cmd
  53:oled_ssd1331.c ****     send_cmd(SSD1331_CMD_PHASEPERIOD);  	// 0xB1
 204              		.loc 1 53 0
 205 0060 B120     		movs	r0, #177
 206 0062 FFF7FEFF 		bl	send_cmd
  54:oled_ssd1331.c ****     send_cmd(0x11);
 207              		.loc 1 54 0
 208 0066 1120     		movs	r0, #17
 209 0068 FFF7FEFF 		bl	send_cmd
  55:oled_ssd1331.c ****     send_cmd(SSD1331_CMD_CLOCKDIV);  	// 0xB3
 210              		.loc 1 55 0
 211 006c B320     		movs	r0, #179
 212 006e FFF7FEFF 		bl	send_cmd
  56:oled_ssd1331.c ****     send_cmd(0xF0);  // 7:4 = Oscillator Frequency, 3:0 = CLK Div Ratio (A[3:0]+1 = 1..16)
 213              		.loc 1 56 0
 214 0072 F020     		movs	r0, #240
 215 0074 FFF7FEFF 		bl	send_cmd
  57:oled_ssd1331.c ****     send_cmd(SSD1331_CMD_PRECHARGEA);  	// 0x8A
 216              		.loc 1 57 0
 217 0078 8A20     		movs	r0, #138
 218 007a FFF7FEFF 		bl	send_cmd
  58:oled_ssd1331.c ****     send_cmd(0x64);
 219              		.loc 1 58 0
 220 007e 6420     		movs	r0, #100
 221 0080 FFF7FEFF 		bl	send_cmd
  59:oled_ssd1331.c ****     send_cmd(SSD1331_CMD_PRECHARGEB);  	// 0x8B
 222              		.loc 1 59 0
 223 0084 8B20     		movs	r0, #139
 224 0086 FFF7FEFF 		bl	send_cmd
  60:oled_ssd1331.c ****     send_cmd(0x78);
 225              		.loc 1 60 0
ARM GAS  C:\Users\Matthew\AppData\Local\Temp\ccXVKO4t.s 			page 6


 226 008a 7820     		movs	r0, #120
 227 008c FFF7FEFF 		bl	send_cmd
  61:oled_ssd1331.c ****     send_cmd(SSD1331_CMD_PRECHARGEC);  	// 0x8C
 228              		.loc 1 61 0
 229 0090 8C20     		movs	r0, #140
 230 0092 FFF7FEFF 		bl	send_cmd
  62:oled_ssd1331.c ****     send_cmd(0x64);
 231              		.loc 1 62 0
 232 0096 6420     		movs	r0, #100
 233 0098 FFF7FEFF 		bl	send_cmd
  63:oled_ssd1331.c ****     send_cmd(SSD1331_CMD_PRECHARGELEVEL);  	// 0xBB
 234              		.loc 1 63 0
 235 009c BB20     		movs	r0, #187
 236 009e FFF7FEFF 		bl	send_cmd
  64:oled_ssd1331.c ****     send_cmd(0x3A);
 237              		.loc 1 64 0
 238 00a2 3A20     		movs	r0, #58
 239 00a4 FFF7FEFF 		bl	send_cmd
  65:oled_ssd1331.c ****     send_cmd(SSD1331_CMD_VCOMH);  		// 0xBE
 240              		.loc 1 65 0
 241 00a8 BE20     		movs	r0, #190
 242 00aa FFF7FEFF 		bl	send_cmd
  66:oled_ssd1331.c ****     send_cmd(0x3E);
 243              		.loc 1 66 0
 244 00ae 3E20     		movs	r0, #62
 245 00b0 FFF7FEFF 		bl	send_cmd
  67:oled_ssd1331.c ****     send_cmd(SSD1331_CMD_MASTERCURRENT);  	// 0x87
 246              		.loc 1 67 0
 247 00b4 8720     		movs	r0, #135
 248 00b6 FFF7FEFF 		bl	send_cmd
  68:oled_ssd1331.c ****     send_cmd(0x06);
 249              		.loc 1 68 0
 250 00ba 0620     		movs	r0, #6
 251 00bc FFF7FEFF 		bl	send_cmd
  69:oled_ssd1331.c ****     send_cmd(SSD1331_CMD_CONTRASTA);  	// 0x81
 252              		.loc 1 69 0
 253 00c0 8120     		movs	r0, #129
 254 00c2 FFF7FEFF 		bl	send_cmd
  70:oled_ssd1331.c ****     send_cmd(0xFF);
 255              		.loc 1 70 0
 256 00c6 FF20     		movs	r0, #255
 257 00c8 FFF7FEFF 		bl	send_cmd
  71:oled_ssd1331.c ****     send_cmd(SSD1331_CMD_CONTRASTB);  	// 0x82
 258              		.loc 1 71 0
 259 00cc 8220     		movs	r0, #130
 260 00ce FFF7FEFF 		bl	send_cmd
  72:oled_ssd1331.c ****     send_cmd(0xFF);
 261              		.loc 1 72 0
 262 00d2 FF20     		movs	r0, #255
 263 00d4 FFF7FEFF 		bl	send_cmd
  73:oled_ssd1331.c ****     send_cmd(SSD1331_CMD_CONTRASTC);  	// 0x83
 264              		.loc 1 73 0
 265 00d8 8320     		movs	r0, #131
 266 00da FFF7FEFF 		bl	send_cmd
  74:oled_ssd1331.c ****     send_cmd(0xFF);
 267              		.loc 1 74 0
 268 00de FF20     		movs	r0, #255
ARM GAS  C:\Users\Matthew\AppData\Local\Temp\ccXVKO4t.s 			page 7


 269 00e0 FFF7FEFF 		bl	send_cmd
  75:oled_ssd1331.c ****     send_cmd(CMD_DEACTIVE_SCROLLING);
 270              		.loc 1 75 0
 271 00e4 2E20     		movs	r0, #46
 272 00e6 FFF7FEFF 		bl	send_cmd
  76:oled_ssd1331.c ****     send_cmd(SSD1331_CMD_DISPLAYON);	//--turn on oled panel
 273              		.loc 1 76 0
 274 00ea AF20     		movs	r0, #175
 275 00ec FFF7FEFF 		bl	send_cmd
  77:oled_ssd1331.c ****     clear_whole_display();
 276              		.loc 1 77 0
 277 00f0 FFF7FEFF 		bl	clear_whole_display
 278              	.LBB2:
  78:oled_ssd1331.c ****     
  79:oled_ssd1331.c ****     for(int i = 0; i < 255; i++) {
 279              		.loc 1 79 0
 280 00f4 0023     		movs	r3, #0
 281 00f6 7B60     		str	r3, [r7, #4]
 282 00f8 07E0     		b	.L10
 283              	.L11:
  80:oled_ssd1331.c ****         screen_buffer[i] = 0x00;
 284              		.loc 1 80 0 discriminator 3
 285 00fa 074A     		ldr	r2, .L12
 286 00fc 7B68     		ldr	r3, [r7, #4]
 287 00fe 1344     		add	r3, r3, r2
 288 0100 0022     		movs	r2, #0
 289 0102 1A70     		strb	r2, [r3]
  79:oled_ssd1331.c ****         screen_buffer[i] = 0x00;
 290              		.loc 1 79 0 discriminator 3
 291 0104 7B68     		ldr	r3, [r7, #4]
 292 0106 0133     		adds	r3, r3, #1
 293 0108 7B60     		str	r3, [r7, #4]
 294              	.L10:
  79:oled_ssd1331.c ****         screen_buffer[i] = 0x00;
 295              		.loc 1 79 0 is_stmt 0 discriminator 1
 296 010a 7B68     		ldr	r3, [r7, #4]
 297 010c FE2B     		cmp	r3, #254
 298 010e F4DD     		ble	.L11
 299              	.LBE2:
  81:oled_ssd1331.c ****     }
  82:oled_ssd1331.c **** }
 300              		.loc 1 82 0 is_stmt 1
 301 0110 00BF     		nop
 302 0112 0837     		adds	r7, r7, #8
 303              		.cfi_def_cfa_offset 8
 304 0114 BD46     		mov	sp, r7
 305              		.cfi_def_cfa_register 13
 306              		@ sp needed
 307 0116 80BD     		pop	{r7, pc}
 308              	.L13:
 309              		.align	2
 310              	.L12:
 311 0118 00000000 		.word	screen_buffer
 312              		.cfi_endproc
 313              	.LFE2:
 314              		.size	init_oled, .-init_oled
 315              		.section	.text.draw_pixel,"ax",%progbits
ARM GAS  C:\Users\Matthew\AppData\Local\Temp\ccXVKO4t.s 			page 8


 316              		.align	2
 317              		.global	draw_pixel
 318              		.thumb
 319              		.thumb_func
 320              		.type	draw_pixel, %function
 321              	draw_pixel:
 322              	.LFB3:
  83:oled_ssd1331.c **** 
  84:oled_ssd1331.c **** void draw_pixel(uint8 x, uint8 y, uint16 color) {
 323              		.loc 1 84 0
 324              		.cfi_startproc
 325              		@ args = 0, pretend = 0, frame = 8
 326              		@ frame_needed = 1, uses_anonymous_args = 0
 327 0000 80B5     		push	{r7, lr}
 328              		.cfi_def_cfa_offset 8
 329              		.cfi_offset 7, -8
 330              		.cfi_offset 14, -4
 331 0002 82B0     		sub	sp, sp, #8
 332              		.cfi_def_cfa_offset 16
 333 0004 00AF     		add	r7, sp, #0
 334              		.cfi_def_cfa_register 7
 335 0006 0346     		mov	r3, r0
 336 0008 FB71     		strb	r3, [r7, #7]
 337 000a 0B46     		mov	r3, r1
 338 000c BB71     		strb	r3, [r7, #6]
 339 000e 1346     		mov	r3, r2	@ movhi
 340 0010 BB80     		strh	r3, [r7, #4]	@ movhi
  85:oled_ssd1331.c ****     if(x >= RGB_OLED_WIDTH || y >= RGB_OLED_HEIGHT) {
 341              		.loc 1 85 0
 342 0012 FB79     		ldrb	r3, [r7, #7]	@ zero_extendqisi2
 343 0014 5F2B     		cmp	r3, #95
 344 0016 26D8     		bhi	.L18
 345              		.loc 1 85 0 is_stmt 0 discriminator 1
 346 0018 BB79     		ldrb	r3, [r7, #6]	@ zero_extendqisi2
 347 001a 3F2B     		cmp	r3, #63
 348 001c 23D8     		bhi	.L18
  86:oled_ssd1331.c ****         return;
  87:oled_ssd1331.c ****     }
  88:oled_ssd1331.c ****     OLED_CS_Write(0);
 349              		.loc 1 88 0 is_stmt 1
 350 001e 0020     		movs	r0, #0
 351 0020 FFF7FEFF 		bl	OLED_CS_Write
  89:oled_ssd1331.c ****     send_cmd(CMD_SET_COLUMN_ADDRESS);
 352              		.loc 1 89 0
 353 0024 1520     		movs	r0, #21
 354 0026 FFF7FEFF 		bl	send_cmd
  90:oled_ssd1331.c ****     send_cmd(x);
 355              		.loc 1 90 0
 356 002a FB79     		ldrb	r3, [r7, #7]	@ zero_extendqisi2
 357 002c 1846     		mov	r0, r3
 358 002e FFF7FEFF 		bl	send_cmd
  91:oled_ssd1331.c ****     send_cmd(RGB_OLED_WIDTH-1);
 359              		.loc 1 91 0
 360 0032 5F20     		movs	r0, #95
 361 0034 FFF7FEFF 		bl	send_cmd
  92:oled_ssd1331.c ****     //set row point
  93:oled_ssd1331.c ****     send_cmd(CMD_SET_ROW_ADDRESS);
ARM GAS  C:\Users\Matthew\AppData\Local\Temp\ccXVKO4t.s 			page 9


 362              		.loc 1 93 0
 363 0038 7520     		movs	r0, #117
 364 003a FFF7FEFF 		bl	send_cmd
  94:oled_ssd1331.c ****     send_cmd(y);
 365              		.loc 1 94 0
 366 003e BB79     		ldrb	r3, [r7, #6]	@ zero_extendqisi2
 367 0040 1846     		mov	r0, r3
 368 0042 FFF7FEFF 		bl	send_cmd
  95:oled_ssd1331.c ****     send_cmd(RGB_OLED_HEIGHT-1);
 369              		.loc 1 95 0
 370 0046 3F20     		movs	r0, #63
 371 0048 FFF7FEFF 		bl	send_cmd
  96:oled_ssd1331.c ****     send_data(color >> 8);
 372              		.loc 1 96 0
 373 004c BB88     		ldrh	r3, [r7, #4]
 374 004e 1B0A     		lsrs	r3, r3, #8
 375 0050 9BB2     		uxth	r3, r3
 376 0052 DBB2     		uxtb	r3, r3
 377 0054 1846     		mov	r0, r3
 378 0056 FFF7FEFF 		bl	send_data
  97:oled_ssd1331.c ****     send_data(color);
 379              		.loc 1 97 0
 380 005a BB88     		ldrh	r3, [r7, #4]	@ movhi
 381 005c DBB2     		uxtb	r3, r3
 382 005e 1846     		mov	r0, r3
 383 0060 FFF7FEFF 		bl	send_data
 384 0064 00E0     		b	.L14
 385              	.L18:
  86:oled_ssd1331.c ****     }
 386              		.loc 1 86 0
 387 0066 00BF     		nop
 388              	.L14:
  98:oled_ssd1331.c ****     
  99:oled_ssd1331.c **** }
 389              		.loc 1 99 0
 390 0068 0837     		adds	r7, r7, #8
 391              		.cfi_def_cfa_offset 8
 392 006a BD46     		mov	sp, r7
 393              		.cfi_def_cfa_register 13
 394              		@ sp needed
 395 006c 80BD     		pop	{r7, pc}
 396              		.cfi_endproc
 397              	.LFE3:
 398              		.size	draw_pixel, .-draw_pixel
 399 006e 00BF     		.section	.text.draw_line,"ax",%progbits
 400              		.align	2
 401              		.global	draw_line
 402              		.thumb
 403              		.thumb_func
 404              		.type	draw_line, %function
 405              	draw_line:
 406              	.LFB4:
 100:oled_ssd1331.c **** 
 101:oled_ssd1331.c **** void draw_line(uint8 x0, uint8 y0, uint8 x1, uint8 y1, uint16 color) {
 407              		.loc 1 101 0
 408              		.cfi_startproc
 409              		@ args = 4, pretend = 0, frame = 8
ARM GAS  C:\Users\Matthew\AppData\Local\Temp\ccXVKO4t.s 			page 10


 410              		@ frame_needed = 1, uses_anonymous_args = 0
 411 0000 90B5     		push	{r4, r7, lr}
 412              		.cfi_def_cfa_offset 12
 413              		.cfi_offset 4, -12
 414              		.cfi_offset 7, -8
 415              		.cfi_offset 14, -4
 416 0002 83B0     		sub	sp, sp, #12
 417              		.cfi_def_cfa_offset 24
 418 0004 00AF     		add	r7, sp, #0
 419              		.cfi_def_cfa_register 7
 420 0006 0446     		mov	r4, r0
 421 0008 0846     		mov	r0, r1
 422 000a 1146     		mov	r1, r2
 423 000c 1A46     		mov	r2, r3
 424 000e 2346     		mov	r3, r4
 425 0010 FB71     		strb	r3, [r7, #7]
 426 0012 0346     		mov	r3, r0
 427 0014 BB71     		strb	r3, [r7, #6]
 428 0016 0B46     		mov	r3, r1
 429 0018 7B71     		strb	r3, [r7, #5]
 430 001a 1346     		mov	r3, r2
 431 001c 3B71     		strb	r3, [r7, #4]
 102:oled_ssd1331.c ****     if((x0 < 0) || (y0 < 0) || (x1 < 0) || (y1 < 0))
 103:oled_ssd1331.c ****         return;
 104:oled_ssd1331.c ****     OLED_CS_Write(0);
 432              		.loc 1 104 0
 433 001e 0020     		movs	r0, #0
 434 0020 FFF7FEFF 		bl	OLED_CS_Write
 105:oled_ssd1331.c ****     if (x0 >= RGB_OLED_WIDTH)  x0 = RGB_OLED_WIDTH - 1;
 435              		.loc 1 105 0
 436 0024 FB79     		ldrb	r3, [r7, #7]	@ zero_extendqisi2
 437 0026 5F2B     		cmp	r3, #95
 438 0028 01D9     		bls	.L20
 439              		.loc 1 105 0 is_stmt 0 discriminator 1
 440 002a 5F23     		movs	r3, #95
 441 002c FB71     		strb	r3, [r7, #7]
 442              	.L20:
 106:oled_ssd1331.c ****     if (y0 >= RGB_OLED_HEIGHT) y0 = RGB_OLED_HEIGHT - 1;
 443              		.loc 1 106 0 is_stmt 1
 444 002e BB79     		ldrb	r3, [r7, #6]	@ zero_extendqisi2
 445 0030 3F2B     		cmp	r3, #63
 446 0032 01D9     		bls	.L21
 447              		.loc 1 106 0 is_stmt 0 discriminator 1
 448 0034 3F23     		movs	r3, #63
 449 0036 BB71     		strb	r3, [r7, #6]
 450              	.L21:
 107:oled_ssd1331.c ****     if (x1 >= RGB_OLED_WIDTH)  x1 = RGB_OLED_WIDTH - 1;
 451              		.loc 1 107 0 is_stmt 1
 452 0038 7B79     		ldrb	r3, [r7, #5]	@ zero_extendqisi2
 453 003a 5F2B     		cmp	r3, #95
 454 003c 01D9     		bls	.L22
 455              		.loc 1 107 0 is_stmt 0 discriminator 1
 456 003e 5F23     		movs	r3, #95
 457 0040 7B71     		strb	r3, [r7, #5]
 458              	.L22:
 108:oled_ssd1331.c ****     if (y1 >= RGB_OLED_HEIGHT) y1 = RGB_OLED_HEIGHT - 1;
 459              		.loc 1 108 0 is_stmt 1
ARM GAS  C:\Users\Matthew\AppData\Local\Temp\ccXVKO4t.s 			page 11


 460 0042 3B79     		ldrb	r3, [r7, #4]	@ zero_extendqisi2
 461 0044 3F2B     		cmp	r3, #63
 462 0046 01D9     		bls	.L23
 463              		.loc 1 108 0 is_stmt 0 discriminator 1
 464 0048 3F23     		movs	r3, #63
 465 004a 3B71     		strb	r3, [r7, #4]
 466              	.L23:
 109:oled_ssd1331.c **** 
 110:oled_ssd1331.c ****     send_cmd(CMD_DRAW_LINE);//draw line
 467              		.loc 1 110 0 is_stmt 1
 468 004c 2120     		movs	r0, #33
 469 004e FFF7FEFF 		bl	send_cmd
 111:oled_ssd1331.c ****     send_cmd(x0);//start column
 470              		.loc 1 111 0
 471 0052 FB79     		ldrb	r3, [r7, #7]	@ zero_extendqisi2
 472 0054 1846     		mov	r0, r3
 473 0056 FFF7FEFF 		bl	send_cmd
 112:oled_ssd1331.c ****     send_cmd(y0);//start row
 474              		.loc 1 112 0
 475 005a BB79     		ldrb	r3, [r7, #6]	@ zero_extendqisi2
 476 005c 1846     		mov	r0, r3
 477 005e FFF7FEFF 		bl	send_cmd
 113:oled_ssd1331.c ****     send_cmd(x1);//end column
 478              		.loc 1 113 0
 479 0062 7B79     		ldrb	r3, [r7, #5]	@ zero_extendqisi2
 480 0064 1846     		mov	r0, r3
 481 0066 FFF7FEFF 		bl	send_cmd
 114:oled_ssd1331.c ****     send_cmd(y1);//end row
 482              		.loc 1 114 0
 483 006a 3B79     		ldrb	r3, [r7, #4]	@ zero_extendqisi2
 484 006c 1846     		mov	r0, r3
 485 006e FFF7FEFF 		bl	send_cmd
 115:oled_ssd1331.c ****     send_cmd((uint8_t)((color>>11)&0x1F));//R
 486              		.loc 1 115 0
 487 0072 3B8B     		ldrh	r3, [r7, #24]
 488 0074 DB0A     		lsrs	r3, r3, #11
 489 0076 9BB2     		uxth	r3, r3
 490 0078 DBB2     		uxtb	r3, r3
 491 007a 03F01F03 		and	r3, r3, #31
 492 007e DBB2     		uxtb	r3, r3
 493 0080 1846     		mov	r0, r3
 494 0082 FFF7FEFF 		bl	send_cmd
 116:oled_ssd1331.c ****     send_cmd((uint8_t)((color>>5)&0x3F));//G
 495              		.loc 1 116 0
 496 0086 3B8B     		ldrh	r3, [r7, #24]
 497 0088 5B09     		lsrs	r3, r3, #5
 498 008a 9BB2     		uxth	r3, r3
 499 008c DBB2     		uxtb	r3, r3
 500 008e 03F03F03 		and	r3, r3, #63
 501 0092 DBB2     		uxtb	r3, r3
 502 0094 1846     		mov	r0, r3
 503 0096 FFF7FEFF 		bl	send_cmd
 117:oled_ssd1331.c ****     send_cmd((uint8_t)(color&0x1F));//B
 504              		.loc 1 117 0
 505 009a 3B8B     		ldrh	r3, [r7, #24]	@ movhi
 506 009c DBB2     		uxtb	r3, r3
 507 009e 03F01F03 		and	r3, r3, #31
ARM GAS  C:\Users\Matthew\AppData\Local\Temp\ccXVKO4t.s 			page 12


 508 00a2 DBB2     		uxtb	r3, r3
 509 00a4 1846     		mov	r0, r3
 510 00a6 FFF7FEFF 		bl	send_cmd
 118:oled_ssd1331.c **** }
 511              		.loc 1 118 0
 512 00aa 0C37     		adds	r7, r7, #12
 513              		.cfi_def_cfa_offset 12
 514 00ac BD46     		mov	sp, r7
 515              		.cfi_def_cfa_register 13
 516              		@ sp needed
 517 00ae 90BD     		pop	{r4, r7, pc}
 518              		.cfi_endproc
 519              	.LFE4:
 520              		.size	draw_line, .-draw_line
 521              		.section	.text.draw_rect,"ax",%progbits
 522              		.align	2
 523              		.global	draw_rect
 524              		.thumb
 525              		.thumb_func
 526              		.type	draw_rect, %function
 527              	draw_rect:
 528              	.LFB5:
 119:oled_ssd1331.c **** 
 120:oled_ssd1331.c **** void draw_rect(uint8 x0, uint8 y0, uint8 x1, uint8 y1, uint16 out_color, uint16 fill_color) {
 529              		.loc 1 120 0
 530              		.cfi_startproc
 531              		@ args = 8, pretend = 0, frame = 8
 532              		@ frame_needed = 1, uses_anonymous_args = 0
 533 0000 90B5     		push	{r4, r7, lr}
 534              		.cfi_def_cfa_offset 12
 535              		.cfi_offset 4, -12
 536              		.cfi_offset 7, -8
 537              		.cfi_offset 14, -4
 538 0002 83B0     		sub	sp, sp, #12
 539              		.cfi_def_cfa_offset 24
 540 0004 00AF     		add	r7, sp, #0
 541              		.cfi_def_cfa_register 7
 542 0006 0446     		mov	r4, r0
 543 0008 0846     		mov	r0, r1
 544 000a 1146     		mov	r1, r2
 545 000c 1A46     		mov	r2, r3
 546 000e 2346     		mov	r3, r4
 547 0010 FB71     		strb	r3, [r7, #7]
 548 0012 0346     		mov	r3, r0
 549 0014 BB71     		strb	r3, [r7, #6]
 550 0016 0B46     		mov	r3, r1
 551 0018 7B71     		strb	r3, [r7, #5]
 552 001a 1346     		mov	r3, r2
 553 001c 3B71     		strb	r3, [r7, #4]
 121:oled_ssd1331.c ****     if((x0 < 0) || (y0 < 0) || (x1 < 0) || (y1 < 0))
 122:oled_ssd1331.c ****         return;
 123:oled_ssd1331.c ****     OLED_CS_Write(0);
 554              		.loc 1 123 0
 555 001e 0020     		movs	r0, #0
 556 0020 FFF7FEFF 		bl	OLED_CS_Write
 124:oled_ssd1331.c ****     if (x0 >= RGB_OLED_WIDTH)  x0 = RGB_OLED_WIDTH - 1;
 557              		.loc 1 124 0
ARM GAS  C:\Users\Matthew\AppData\Local\Temp\ccXVKO4t.s 			page 13


 558 0024 FB79     		ldrb	r3, [r7, #7]	@ zero_extendqisi2
 559 0026 5F2B     		cmp	r3, #95
 560 0028 01D9     		bls	.L26
 561              		.loc 1 124 0 is_stmt 0 discriminator 1
 562 002a 5F23     		movs	r3, #95
 563 002c FB71     		strb	r3, [r7, #7]
 564              	.L26:
 125:oled_ssd1331.c ****     if (y0 >= RGB_OLED_HEIGHT) y0 = RGB_OLED_HEIGHT - 1;
 565              		.loc 1 125 0 is_stmt 1
 566 002e BB79     		ldrb	r3, [r7, #6]	@ zero_extendqisi2
 567 0030 3F2B     		cmp	r3, #63
 568 0032 01D9     		bls	.L27
 569              		.loc 1 125 0 is_stmt 0 discriminator 1
 570 0034 3F23     		movs	r3, #63
 571 0036 BB71     		strb	r3, [r7, #6]
 572              	.L27:
 126:oled_ssd1331.c ****     if (x1 >= RGB_OLED_WIDTH)  x1 = RGB_OLED_WIDTH - 1;
 573              		.loc 1 126 0 is_stmt 1
 574 0038 7B79     		ldrb	r3, [r7, #5]	@ zero_extendqisi2
 575 003a 5F2B     		cmp	r3, #95
 576 003c 01D9     		bls	.L28
 577              		.loc 1 126 0 is_stmt 0 discriminator 1
 578 003e 5F23     		movs	r3, #95
 579 0040 7B71     		strb	r3, [r7, #5]
 580              	.L28:
 127:oled_ssd1331.c ****     if (y1 >= RGB_OLED_HEIGHT) y1 = RGB_OLED_HEIGHT - 1;
 581              		.loc 1 127 0 is_stmt 1
 582 0042 3B79     		ldrb	r3, [r7, #4]	@ zero_extendqisi2
 583 0044 3F2B     		cmp	r3, #63
 584 0046 01D9     		bls	.L29
 585              		.loc 1 127 0 is_stmt 0 discriminator 1
 586 0048 3F23     		movs	r3, #63
 587 004a 3B71     		strb	r3, [r7, #4]
 588              	.L29:
 128:oled_ssd1331.c **** 
 129:oled_ssd1331.c ****     send_cmd(CMD_FILL_WINDOW);//fill window
 589              		.loc 1 129 0 is_stmt 1
 590 004c 2620     		movs	r0, #38
 591 004e FFF7FEFF 		bl	send_cmd
 130:oled_ssd1331.c ****     send_cmd(ENABLE_FILL);
 592              		.loc 1 130 0
 593 0052 0120     		movs	r0, #1
 594 0054 FFF7FEFF 		bl	send_cmd
 131:oled_ssd1331.c ****     send_cmd(CMD_DRAW_RECTANGLE);//draw rectangle
 595              		.loc 1 131 0
 596 0058 2220     		movs	r0, #34
 597 005a FFF7FEFF 		bl	send_cmd
 132:oled_ssd1331.c ****     send_cmd(x0);//start column
 598              		.loc 1 132 0
 599 005e FB79     		ldrb	r3, [r7, #7]	@ zero_extendqisi2
 600 0060 1846     		mov	r0, r3
 601 0062 FFF7FEFF 		bl	send_cmd
 133:oled_ssd1331.c ****     send_cmd(y0);//start row
 602              		.loc 1 133 0
 603 0066 BB79     		ldrb	r3, [r7, #6]	@ zero_extendqisi2
 604 0068 1846     		mov	r0, r3
 605 006a FFF7FEFF 		bl	send_cmd
ARM GAS  C:\Users\Matthew\AppData\Local\Temp\ccXVKO4t.s 			page 14


 134:oled_ssd1331.c ****     send_cmd(x1);//end column
 606              		.loc 1 134 0
 607 006e 7B79     		ldrb	r3, [r7, #5]	@ zero_extendqisi2
 608 0070 1846     		mov	r0, r3
 609 0072 FFF7FEFF 		bl	send_cmd
 135:oled_ssd1331.c ****     send_cmd(y1);//end row
 610              		.loc 1 135 0
 611 0076 3B79     		ldrb	r3, [r7, #4]	@ zero_extendqisi2
 612 0078 1846     		mov	r0, r3
 613 007a FFF7FEFF 		bl	send_cmd
 136:oled_ssd1331.c ****     send_cmd((uint8_t)((out_color>>11)&0x1F));//R
 614              		.loc 1 136 0
 615 007e 3B8B     		ldrh	r3, [r7, #24]
 616 0080 DB0A     		lsrs	r3, r3, #11
 617 0082 9BB2     		uxth	r3, r3
 618 0084 DBB2     		uxtb	r3, r3
 619 0086 03F01F03 		and	r3, r3, #31
 620 008a DBB2     		uxtb	r3, r3
 621 008c 1846     		mov	r0, r3
 622 008e FFF7FEFF 		bl	send_cmd
 137:oled_ssd1331.c ****     send_cmd((uint8_t)((out_color>>5)&0x3F));//G
 623              		.loc 1 137 0
 624 0092 3B8B     		ldrh	r3, [r7, #24]
 625 0094 5B09     		lsrs	r3, r3, #5
 626 0096 9BB2     		uxth	r3, r3
 627 0098 DBB2     		uxtb	r3, r3
 628 009a 03F03F03 		and	r3, r3, #63
 629 009e DBB2     		uxtb	r3, r3
 630 00a0 1846     		mov	r0, r3
 631 00a2 FFF7FEFF 		bl	send_cmd
 138:oled_ssd1331.c ****     send_cmd((uint8_t)(out_color&0x1F));//B
 632              		.loc 1 138 0
 633 00a6 3B8B     		ldrh	r3, [r7, #24]	@ movhi
 634 00a8 DBB2     		uxtb	r3, r3
 635 00aa 03F01F03 		and	r3, r3, #31
 636 00ae DBB2     		uxtb	r3, r3
 637 00b0 1846     		mov	r0, r3
 638 00b2 FFF7FEFF 		bl	send_cmd
 139:oled_ssd1331.c ****     send_cmd((uint8_t)((fill_color>>11)&0x1F));//R
 639              		.loc 1 139 0
 640 00b6 BB8B     		ldrh	r3, [r7, #28]
 641 00b8 DB0A     		lsrs	r3, r3, #11
 642 00ba 9BB2     		uxth	r3, r3
 643 00bc DBB2     		uxtb	r3, r3
 644 00be 03F01F03 		and	r3, r3, #31
 645 00c2 DBB2     		uxtb	r3, r3
 646 00c4 1846     		mov	r0, r3
 647 00c6 FFF7FEFF 		bl	send_cmd
 140:oled_ssd1331.c ****     send_cmd((uint8_t)((fill_color>>5)&0x3F));//G
 648              		.loc 1 140 0
 649 00ca BB8B     		ldrh	r3, [r7, #28]
 650 00cc 5B09     		lsrs	r3, r3, #5
 651 00ce 9BB2     		uxth	r3, r3
 652 00d0 DBB2     		uxtb	r3, r3
 653 00d2 03F03F03 		and	r3, r3, #63
 654 00d6 DBB2     		uxtb	r3, r3
 655 00d8 1846     		mov	r0, r3
ARM GAS  C:\Users\Matthew\AppData\Local\Temp\ccXVKO4t.s 			page 15


 656 00da FFF7FEFF 		bl	send_cmd
 141:oled_ssd1331.c ****     send_cmd((uint8_t)(fill_color&0x1F));//B
 657              		.loc 1 141 0
 658 00de BB8B     		ldrh	r3, [r7, #28]	@ movhi
 659 00e0 DBB2     		uxtb	r3, r3
 660 00e2 03F01F03 		and	r3, r3, #31
 661 00e6 DBB2     		uxtb	r3, r3
 662 00e8 1846     		mov	r0, r3
 663 00ea FFF7FEFF 		bl	send_cmd
 142:oled_ssd1331.c **** }
 664              		.loc 1 142 0
 665 00ee 0C37     		adds	r7, r7, #12
 666              		.cfi_def_cfa_offset 12
 667 00f0 BD46     		mov	sp, r7
 668              		.cfi_def_cfa_register 13
 669              		@ sp needed
 670 00f2 90BD     		pop	{r4, r7, pc}
 671              		.cfi_endproc
 672              	.LFE5:
 673              		.size	draw_rect, .-draw_rect
 674              		.section	.text.clear_whole_display,"ax",%progbits
 675              		.align	2
 676              		.global	clear_whole_display
 677              		.thumb
 678              		.thumb_func
 679              		.type	clear_whole_display, %function
 680              	clear_whole_display:
 681              	.LFB6:
 143:oled_ssd1331.c **** 
 144:oled_ssd1331.c **** void clear_whole_display() {
 682              		.loc 1 144 0
 683              		.cfi_startproc
 684              		@ args = 0, pretend = 0, frame = 0
 685              		@ frame_needed = 1, uses_anonymous_args = 0
 686 0000 80B5     		push	{r7, lr}
 687              		.cfi_def_cfa_offset 8
 688              		.cfi_offset 7, -8
 689              		.cfi_offset 14, -4
 690 0002 82B0     		sub	sp, sp, #8
 691              		.cfi_def_cfa_offset 16
 692 0004 02AF     		add	r7, sp, #8
 693              		.cfi_def_cfa 7, 8
 145:oled_ssd1331.c ****     OLED_CS_Write(0);
 694              		.loc 1 145 0
 695 0006 0020     		movs	r0, #0
 696 0008 FFF7FEFF 		bl	OLED_CS_Write
 146:oled_ssd1331.c ****     draw_rect(0,0,RGB_OLED_WIDTH, RGB_OLED_HEIGHT, 0x0000, 0x0000);
 697              		.loc 1 146 0
 698 000c 0023     		movs	r3, #0
 699 000e 0193     		str	r3, [sp, #4]
 700 0010 0023     		movs	r3, #0
 701 0012 0093     		str	r3, [sp]
 702 0014 4023     		movs	r3, #64
 703 0016 6022     		movs	r2, #96
 704 0018 0021     		movs	r1, #0
 705 001a 0020     		movs	r0, #0
 706 001c FFF7FEFF 		bl	draw_rect
ARM GAS  C:\Users\Matthew\AppData\Local\Temp\ccXVKO4t.s 			page 16


 147:oled_ssd1331.c **** }
 707              		.loc 1 147 0
 708 0020 00BF     		nop
 709 0022 BD46     		mov	sp, r7
 710              		.cfi_def_cfa_register 13
 711              		@ sp needed
 712 0024 80BD     		pop	{r7, pc}
 713              		.cfi_endproc
 714              	.LFE6:
 715              		.size	clear_whole_display, .-clear_whole_display
 716 0026 00BF     		.section	.text.clear_whole_display_by_pixel,"ax",%progbits
 717              		.align	2
 718              		.global	clear_whole_display_by_pixel
 719              		.thumb
 720              		.thumb_func
 721              		.type	clear_whole_display_by_pixel, %function
 722              	clear_whole_display_by_pixel:
 723              	.LFB7:
 148:oled_ssd1331.c **** 
 149:oled_ssd1331.c **** void clear_whole_display_by_pixel() {
 724              		.loc 1 149 0
 725              		.cfi_startproc
 726              		@ args = 0, pretend = 0, frame = 8
 727              		@ frame_needed = 1, uses_anonymous_args = 0
 728 0000 80B5     		push	{r7, lr}
 729              		.cfi_def_cfa_offset 8
 730              		.cfi_offset 7, -8
 731              		.cfi_offset 14, -4
 732 0002 82B0     		sub	sp, sp, #8
 733              		.cfi_def_cfa_offset 16
 734 0004 00AF     		add	r7, sp, #0
 735              		.cfi_def_cfa_register 7
 150:oled_ssd1331.c ****     
 151:oled_ssd1331.c ****     send_cmd(CMD_SET_COLUMN_ADDRESS);
 736              		.loc 1 151 0
 737 0006 1520     		movs	r0, #21
 738 0008 FFF7FEFF 		bl	send_cmd
 152:oled_ssd1331.c ****     send_cmd(0);
 739              		.loc 1 152 0
 740 000c 0020     		movs	r0, #0
 741 000e FFF7FEFF 		bl	send_cmd
 153:oled_ssd1331.c ****     send_cmd(RGB_OLED_WIDTH-1);
 742              		.loc 1 153 0
 743 0012 5F20     		movs	r0, #95
 744 0014 FFF7FEFF 		bl	send_cmd
 154:oled_ssd1331.c ****     //set row point
 155:oled_ssd1331.c ****     send_cmd(CMD_SET_ROW_ADDRESS);
 745              		.loc 1 155 0
 746 0018 7520     		movs	r0, #117
 747 001a FFF7FEFF 		bl	send_cmd
 156:oled_ssd1331.c ****     send_cmd(0);
 748              		.loc 1 156 0
 749 001e 0020     		movs	r0, #0
 750 0020 FFF7FEFF 		bl	send_cmd
 751              	.LBB3:
 157:oled_ssd1331.c ****     
 158:oled_ssd1331.c ****     for(int i = 0; i < 49; i++) {
ARM GAS  C:\Users\Matthew\AppData\Local\Temp\ccXVKO4t.s 			page 17


 752              		.loc 1 158 0
 753 0024 0023     		movs	r3, #0
 754 0026 7B60     		str	r3, [r7, #4]
 755 0028 06E0     		b	.L33
 756              	.L34:
 159:oled_ssd1331.c ****         SPI_OLED_PutArray(screen_buffer, 255);
 757              		.loc 1 159 0 discriminator 3
 758 002a FF21     		movs	r1, #255
 759 002c 0648     		ldr	r0, .L35
 760 002e FFF7FEFF 		bl	SPI_OLED_PutArray
 158:oled_ssd1331.c ****         SPI_OLED_PutArray(screen_buffer, 255);
 761              		.loc 1 158 0 discriminator 3
 762 0032 7B68     		ldr	r3, [r7, #4]
 763 0034 0133     		adds	r3, r3, #1
 764 0036 7B60     		str	r3, [r7, #4]
 765              	.L33:
 158:oled_ssd1331.c ****         SPI_OLED_PutArray(screen_buffer, 255);
 766              		.loc 1 158 0 is_stmt 0 discriminator 1
 767 0038 7B68     		ldr	r3, [r7, #4]
 768 003a 302B     		cmp	r3, #48
 769 003c F5DD     		ble	.L34
 770              	.LBE3:
 160:oled_ssd1331.c ****     }
 161:oled_ssd1331.c **** }
 771              		.loc 1 161 0 is_stmt 1
 772 003e 00BF     		nop
 773 0040 0837     		adds	r7, r7, #8
 774              		.cfi_def_cfa_offset 8
 775 0042 BD46     		mov	sp, r7
 776              		.cfi_def_cfa_register 13
 777              		@ sp needed
 778 0044 80BD     		pop	{r7, pc}
 779              	.L36:
 780 0046 00BF     		.align	2
 781              	.L35:
 782 0048 00000000 		.word	screen_buffer
 783              		.cfi_endproc
 784              	.LFE7:
 785              		.size	clear_whole_display_by_pixel, .-clear_whole_display_by_pixel
 786              		.text
 787              	.Letext0:
 788              		.file 2 "c:\\program files (x86)\\cypress\\psoc creator\\4.2\\psoc creator\\import\\gnu\\arm\\5.4.
 789              		.file 3 "c:\\program files (x86)\\cypress\\psoc creator\\4.2\\psoc creator\\import\\gnu\\arm\\5.4.
 790              		.file 4 "Generated_Source\\PSoC5/cytypes.h"
 791              		.file 5 "common.h"