ARM GAS  C:\Users\Matthew\AppData\Local\Temp\cc8NRLFT.s 			page 1


   1              		.syntax unified
   2              		.cpu cortex-m3
   3              		.fpu softvfp
   4              		.eabi_attribute 20, 1
   5              		.eabi_attribute 21, 1
   6              		.eabi_attribute 23, 3
   7              		.eabi_attribute 24, 1
   8              		.eabi_attribute 25, 1
   9              		.eabi_attribute 26, 1
  10              		.eabi_attribute 30, 6
  11              		.eabi_attribute 34, 1
  12              		.eabi_attribute 18, 4
  13              		.thumb
  14              		.syntax unified
  15              		.file	"photo_mux.c"
  16              		.text
  17              	.Ltext0:
  18              		.cfi_sections	.debug_frame
  19              		.section	.text.photo_read_mux,"ax",%progbits
  20              		.align	2
  21              		.global	photo_read_mux
  22              		.thumb
  23              		.thumb_func
  24              		.type	photo_read_mux, %function
  25              	photo_read_mux:
  26              	.LFB0:
  27              		.file 1 "photo_mux.c"
   1:photo_mux.c   **** /* ========================================
   2:photo_mux.c   ****  *
   3:photo_mux.c   ****  * Copyright YOUR COMPANY, THE YEAR
   4:photo_mux.c   ****  * All Rights Reserved
   5:photo_mux.c   ****  * UNPUBLISHED, LICENSED SOFTWARE.
   6:photo_mux.c   ****  *
   7:photo_mux.c   ****  * CONFIDENTIAL AND PROPRIETARY INFORMATION
   8:photo_mux.c   ****  * WHICH IS THE PROPERTY OF your company.
   9:photo_mux.c   ****  *
  10:photo_mux.c   ****  * ========================================
  11:photo_mux.c   **** */
  12:photo_mux.c   **** #include "photo_mux.h"
  13:photo_mux.c   **** 
  14:photo_mux.c   **** int16 photo_read_mux(int8 channel) {
  28              		.loc 1 14 0
  29              		.cfi_startproc
  30              		@ args = 0, pretend = 0, frame = 16
  31              		@ frame_needed = 1, uses_anonymous_args = 0
  32 0000 80B5     		push	{r7, lr}
  33              		.cfi_def_cfa_offset 8
  34              		.cfi_offset 7, -8
  35              		.cfi_offset 14, -4
  36 0002 84B0     		sub	sp, sp, #16
  37              		.cfi_def_cfa_offset 24
  38 0004 00AF     		add	r7, sp, #0
  39              		.cfi_def_cfa_register 7
  40 0006 0346     		mov	r3, r0
  41 0008 FB71     		strb	r3, [r7, #7]
  15:photo_mux.c   ****     photo_enable_mux(channel);
  42              		.loc 1 15 0
ARM GAS  C:\Users\Matthew\AppData\Local\Temp\cc8NRLFT.s 			page 2


  43 000a 97F90730 		ldrsb	r3, [r7, #7]
  44 000e 1846     		mov	r0, r3
  45 0010 FFF7FEFF 		bl	photo_enable_mux
  16:photo_mux.c   ****     inhibit_output(0);
  46              		.loc 1 16 0
  47 0014 0020     		movs	r0, #0
  48 0016 FFF7FEFF 		bl	inhibit_output
  17:photo_mux.c   ****     CyDelayCycles(10);
  49              		.loc 1 17 0
  50 001a 0A20     		movs	r0, #10
  51 001c FFF7FEFF 		bl	CyDelayCycles
  18:photo_mux.c   ****     int16 result = read_mux();
  52              		.loc 1 18 0
  53 0020 FFF7FEFF 		bl	read_mux
  54 0024 0346     		mov	r3, r0
  55 0026 FB81     		strh	r3, [r7, #14]	@ movhi
  19:photo_mux.c   ****     inhibit_output(1);
  56              		.loc 1 19 0
  57 0028 0120     		movs	r0, #1
  58 002a FFF7FEFF 		bl	inhibit_output
  20:photo_mux.c   ****     return result;
  59              		.loc 1 20 0
  60 002e B7F90E30 		ldrsh	r3, [r7, #14]
  21:photo_mux.c   **** }
  61              		.loc 1 21 0
  62 0032 1846     		mov	r0, r3
  63 0034 1037     		adds	r7, r7, #16
  64              		.cfi_def_cfa_offset 8
  65 0036 BD46     		mov	sp, r7
  66              		.cfi_def_cfa_register 13
  67              		@ sp needed
  68 0038 80BD     		pop	{r7, pc}
  69              		.cfi_endproc
  70              	.LFE0:
  71              		.size	photo_read_mux, .-photo_read_mux
  72 003a 00BF     		.section	.text.photo_enable_mux,"ax",%progbits
  73              		.align	2
  74              		.global	photo_enable_mux
  75              		.thumb
  76              		.thumb_func
  77              		.type	photo_enable_mux, %function
  78              	photo_enable_mux:
  79              	.LFB1:
  22:photo_mux.c   **** 
  23:photo_mux.c   **** void photo_enable_mux(int8 channel) {    
  80              		.loc 1 23 0
  81              		.cfi_startproc
  82              		@ args = 0, pretend = 0, frame = 16
  83              		@ frame_needed = 1, uses_anonymous_args = 0
  84 0000 80B5     		push	{r7, lr}
  85              		.cfi_def_cfa_offset 8
  86              		.cfi_offset 7, -8
  87              		.cfi_offset 14, -4
  88 0002 84B0     		sub	sp, sp, #16
  89              		.cfi_def_cfa_offset 24
  90 0004 00AF     		add	r7, sp, #0
  91              		.cfi_def_cfa_register 7
ARM GAS  C:\Users\Matthew\AppData\Local\Temp\cc8NRLFT.s 			page 3


  92 0006 0346     		mov	r3, r0
  93 0008 FB71     		strb	r3, [r7, #7]
  24:photo_mux.c   ****     int8 channel_masked = channel & (0x0F);
  94              		.loc 1 24 0
  95 000a FB79     		ldrb	r3, [r7, #7]
  96 000c 03F00F03 		and	r3, r3, #15
  97 0010 FB73     		strb	r3, [r7, #15]
  25:photo_mux.c   ****     MUX_A_Write((channel_masked >> 0)&0x01);
  98              		.loc 1 25 0
  99 0012 FB7B     		ldrb	r3, [r7, #15]	@ zero_extendqisi2
 100 0014 03F00103 		and	r3, r3, #1
 101 0018 DBB2     		uxtb	r3, r3
 102 001a 1846     		mov	r0, r3
 103 001c FFF7FEFF 		bl	MUX_A_Write
  26:photo_mux.c   ****     MUX_B_Write((channel_masked >> 1) & 0x01);
 104              		.loc 1 26 0
 105 0020 97F90F30 		ldrsb	r3, [r7, #15]
 106 0024 5B10     		asrs	r3, r3, #1
 107 0026 5BB2     		sxtb	r3, r3
 108 0028 DBB2     		uxtb	r3, r3
 109 002a 03F00103 		and	r3, r3, #1
 110 002e DBB2     		uxtb	r3, r3
 111 0030 1846     		mov	r0, r3
 112 0032 FFF7FEFF 		bl	MUX_B_Write
  27:photo_mux.c   ****     MUX_C_Write((channel_masked >> 2) & 0x01);
 113              		.loc 1 27 0
 114 0036 97F90F30 		ldrsb	r3, [r7, #15]
 115 003a 9B10     		asrs	r3, r3, #2
 116 003c 5BB2     		sxtb	r3, r3
 117 003e DBB2     		uxtb	r3, r3
 118 0040 03F00103 		and	r3, r3, #1
 119 0044 DBB2     		uxtb	r3, r3
 120 0046 1846     		mov	r0, r3
 121 0048 FFF7FEFF 		bl	MUX_C_Write
  28:photo_mux.c   ****     MUX_D_Write((channel_masked >> 3) & 0x01);
 122              		.loc 1 28 0
 123 004c 97F90F30 		ldrsb	r3, [r7, #15]
 124 0050 DB10     		asrs	r3, r3, #3
 125 0052 5BB2     		sxtb	r3, r3
 126 0054 DBB2     		uxtb	r3, r3
 127 0056 03F00103 		and	r3, r3, #1
 128 005a DBB2     		uxtb	r3, r3
 129 005c 1846     		mov	r0, r3
 130 005e FFF7FEFF 		bl	MUX_D_Write
  29:photo_mux.c   **** }
 131              		.loc 1 29 0
 132 0062 00BF     		nop
 133 0064 1037     		adds	r7, r7, #16
 134              		.cfi_def_cfa_offset 8
 135 0066 BD46     		mov	sp, r7
 136              		.cfi_def_cfa_register 13
 137              		@ sp needed
 138 0068 80BD     		pop	{r7, pc}
 139              		.cfi_endproc
 140              	.LFE1:
 141              		.size	photo_enable_mux, .-photo_enable_mux
 142 006a 00BF     		.section	.text.inhibit_output,"ax",%progbits
ARM GAS  C:\Users\Matthew\AppData\Local\Temp\cc8NRLFT.s 			page 4


 143              		.align	2
 144              		.global	inhibit_output
 145              		.thumb
 146              		.thumb_func
 147              		.type	inhibit_output, %function
 148              	inhibit_output:
 149              	.LFB2:
  30:photo_mux.c   **** 
  31:photo_mux.c   **** void inhibit_output(int8 inhibit) {
 150              		.loc 1 31 0
 151              		.cfi_startproc
 152              		@ args = 0, pretend = 0, frame = 8
 153              		@ frame_needed = 1, uses_anonymous_args = 0
 154 0000 80B5     		push	{r7, lr}
 155              		.cfi_def_cfa_offset 8
 156              		.cfi_offset 7, -8
 157              		.cfi_offset 14, -4
 158 0002 82B0     		sub	sp, sp, #8
 159              		.cfi_def_cfa_offset 16
 160 0004 00AF     		add	r7, sp, #0
 161              		.cfi_def_cfa_register 7
 162 0006 0346     		mov	r3, r0
 163 0008 FB71     		strb	r3, [r7, #7]
  32:photo_mux.c   ****     if(inhibit == 0) {
 164              		.loc 1 32 0
 165 000a 97F90730 		ldrsb	r3, [r7, #7]
 166 000e 002B     		cmp	r3, #0
 167 0010 03D1     		bne	.L5
  33:photo_mux.c   ****         MUX_INHIBIT_Write(0);
 168              		.loc 1 33 0
 169 0012 0020     		movs	r0, #0
 170 0014 FFF7FEFF 		bl	MUX_INHIBIT_Write
  34:photo_mux.c   ****     } else {
  35:photo_mux.c   ****         MUX_INHIBIT_Write(1);
  36:photo_mux.c   ****     }
  37:photo_mux.c   **** }
 171              		.loc 1 37 0
 172 0018 02E0     		b	.L7
 173              	.L5:
  35:photo_mux.c   ****     }
 174              		.loc 1 35 0
 175 001a 0120     		movs	r0, #1
 176 001c FFF7FEFF 		bl	MUX_INHIBIT_Write
 177              	.L7:
 178              		.loc 1 37 0
 179 0020 00BF     		nop
 180 0022 0837     		adds	r7, r7, #8
 181              		.cfi_def_cfa_offset 8
 182 0024 BD46     		mov	sp, r7
 183              		.cfi_def_cfa_register 13
 184              		@ sp needed
 185 0026 80BD     		pop	{r7, pc}
 186              		.cfi_endproc
 187              	.LFE2:
 188              		.size	inhibit_output, .-inhibit_output
 189              		.section	.text.read_mux,"ax",%progbits
 190              		.align	2
ARM GAS  C:\Users\Matthew\AppData\Local\Temp\cc8NRLFT.s 			page 5


 191              		.global	read_mux
 192              		.thumb
 193              		.thumb_func
 194              		.type	read_mux, %function
 195              	read_mux:
 196              	.LFB3:
  38:photo_mux.c   **** 
  39:photo_mux.c   **** int16 read_mux(void)
  40:photo_mux.c   **** {
 197              		.loc 1 40 0
 198              		.cfi_startproc
 199              		@ args = 0, pretend = 0, frame = 8
 200              		@ frame_needed = 1, uses_anonymous_args = 0
 201 0000 80B5     		push	{r7, lr}
 202              		.cfi_def_cfa_offset 8
 203              		.cfi_offset 7, -8
 204              		.cfi_offset 14, -4
 205 0002 82B0     		sub	sp, sp, #8
 206              		.cfi_def_cfa_offset 16
 207 0004 00AF     		add	r7, sp, #0
 208              		.cfi_def_cfa_register 7
  41:photo_mux.c   ****     int16 result;
  42:photo_mux.c   **** 
  43:photo_mux.c   ****     ADC_DelSig_DEC_SR_REG |= ADC_DelSig_DEC_INTR_CLEAR;
 209              		.loc 1 43 0
 210 0006 0C4A     		ldr	r2, .L10
 211 0008 0B4B     		ldr	r3, .L10
 212 000a 1B78     		ldrb	r3, [r3]
 213 000c DBB2     		uxtb	r3, r3
 214 000e 43F00403 		orr	r3, r3, #4
 215 0012 DBB2     		uxtb	r3, r3
 216 0014 1370     		strb	r3, [r2]
  44:photo_mux.c   ****     ADC_DelSig_StartConvert();
 217              		.loc 1 44 0
 218 0016 FFF7FEFF 		bl	ADC_DelSig_StartConvert
  45:photo_mux.c   ****     (void) ADC_DelSig_IsEndConversion(ADC_DelSig_WAIT_FOR_RESULT);
 219              		.loc 1 45 0
 220 001a 0020     		movs	r0, #0
 221 001c FFF7FEFF 		bl	ADC_DelSig_IsEndConversion
  46:photo_mux.c   ****     ADC_DelSig_StopConvert();
 222              		.loc 1 46 0
 223 0020 FFF7FEFF 		bl	ADC_DelSig_StopConvert
  47:photo_mux.c   ****     result = ADC_DelSig_GetResult16();
 224              		.loc 1 47 0
 225 0024 FFF7FEFF 		bl	ADC_DelSig_GetResult16
 226 0028 0346     		mov	r3, r0
 227 002a FB80     		strh	r3, [r7, #6]	@ movhi
  48:photo_mux.c   **** 
  49:photo_mux.c   ****     return(result);
 228              		.loc 1 49 0
 229 002c B7F90630 		ldrsh	r3, [r7, #6]
  50:photo_mux.c   **** }
 230              		.loc 1 50 0
 231 0030 1846     		mov	r0, r3
 232 0032 0837     		adds	r7, r7, #8
 233              		.cfi_def_cfa_offset 8
 234 0034 BD46     		mov	sp, r7
ARM GAS  C:\Users\Matthew\AppData\Local\Temp\cc8NRLFT.s 			page 6


 235              		.cfi_def_cfa_register 13
 236              		@ sp needed
 237 0036 80BD     		pop	{r7, pc}
 238              	.L11:
 239              		.align	2
 240              	.L10:
 241 0038 014E0040 		.word	1073761793
 242              		.cfi_endproc
 243              	.LFE3:
 244              		.size	read_mux, .-read_mux
 245              		.text
 246              	.Letext0:
 247              		.file 2 "Generated_Source\\PSoC5/cytypes.h"