ARM GAS  C:\Users\Matthew\AppData\Local\Temp\ccJtD6J2.s 			page 1


   1              		.syntax unified
   2              		.cpu cortex-m3
   3              		.fpu softvfp
   4              		.eabi_attribute 20, 1
   5              		.eabi_attribute 21, 1
   6              		.eabi_attribute 23, 3
   7              		.eabi_attribute 24, 1
   8              		.eabi_attribute 25, 1
   9              		.eabi_attribute 26, 1
  10              		.eabi_attribute 30, 6
  11              		.eabi_attribute 34, 1
  12              		.eabi_attribute 18, 4
  13              		.thumb
  14              		.syntax unified
  15              		.file	"rngs.c"
  16              		.text
  17              	.Ltext0:
  18              		.cfi_sections	.debug_frame
  19              		.data
  20              		.align	2
  21              		.type	seed, %object
  22              		.size	seed, 1024
  23              	seed:
  24 0000 15CD5B07 		.word	123456789
  25 0004 00000000 		.space	1020
  25      00000000 
  25      00000000 
  25      00000000 
  25      00000000 
  26              		.bss
  27              		.align	2
  28              	stream:
  29 0000 00000000 		.space	4
  30              		.align	2
  31              	initialized:
  32 0004 00000000 		.space	4
  33              		.global	__aeabi_i2d
  34              		.global	__aeabi_ddiv
  35              		.section	.text.Random,"ax",%progbits
  36              		.align	2
  37              		.global	Random
  38              		.thumb
  39              		.thumb_func
  40              		.type	Random, %function
  41              	Random:
  42              	.LFB1:
  43              		.file 1 "rngs.c"
   1:rngs.c        **** /* -------------------------------------------------------------------------
   2:rngs.c        ****  * This is an ANSI C library for multi-stream random number generation.  
   3:rngs.c        ****  * The use of this library is recommended as a replacement for the ANSI C 
   4:rngs.c        ****  * rand() and srand() functions, particularly in simulation applications 
   5:rngs.c        ****  * where the statistical 'goodness' of the random number generator is 
   6:rngs.c        ****  * important.  The library supplies 256 streams of random numbers; use 
   7:rngs.c        ****  * SelectStream(s) to switch between streams indexed s = 0,1,...,255.
   8:rngs.c        ****  *
   9:rngs.c        ****  * The streams must be initialized.  The recommended way to do this is by
  10:rngs.c        ****  * using the function PlantSeeds(x) with the value of x used to initialize 
ARM GAS  C:\Users\Matthew\AppData\Local\Temp\ccJtD6J2.s 			page 2


  11:rngs.c        ****  * the default stream and all other streams initialized automatically with
  12:rngs.c        ****  * values dependent on the value of x.  The following convention is used 
  13:rngs.c        ****  * to initialize the default stream:
  14:rngs.c        ****  *    if x > 0 then x is the state
  15:rngs.c        ****  *    if x < 0 then the state is obtained from the system clock
  16:rngs.c        ****  *    if x = 0 then the state is to be supplied interactively.
  17:rngs.c        ****  *
  18:rngs.c        ****  * The generator used in this library is a so-called 'Lehmer random number
  19:rngs.c        ****  * generator' which returns a pseudo-random number uniformly distributed
  20:rngs.c        ****  * 0.0 and 1.0.  The period is (m - 1) where m = 2,147,483,647 and the
  21:rngs.c        ****  * smallest and largest possible values are (1 / m) and 1 - (1 / m)
  22:rngs.c        ****  * respectively.  For more details see:
  23:rngs.c        ****  * 
  24:rngs.c        ****  *       "Random Number Generators: Good Ones Are Hard To Find"
  25:rngs.c        ****  *                   Steve Park and Keith Miller
  26:rngs.c        ****  *              Communications of the ACM, October 1988
  27:rngs.c        ****  *
  28:rngs.c        ****  * Name            : rngs.c  (Random Number Generation - Multiple Streams)
  29:rngs.c        ****  * Authors         : Steve Park & Dave Geyer
  30:rngs.c        ****  * Language        : ANSI C
  31:rngs.c        ****  * Latest Revision : 09-22-98
  32:rngs.c        ****  * ------------------------------------------------------------------------- 
  33:rngs.c        ****  */
  34:rngs.c        **** 
  35:rngs.c        **** #include <stdio.h>
  36:rngs.c        **** #include <time.h>
  37:rngs.c        **** #include "rngs.h"
  38:rngs.c        **** 
  39:rngs.c        **** #define MODULUS    2147483647 /* DON'T CHANGE THIS VALUE                  */
  40:rngs.c        **** #define MULTIPLIER 48271      /* DON'T CHANGE THIS VALUE                  */
  41:rngs.c        **** #define CHECK      399268537  /* DON'T CHANGE THIS VALUE                  */
  42:rngs.c        **** #define STREAMS    256        /* # of streams, DON'T CHANGE THIS VALUE    */
  43:rngs.c        **** #define A256       22925      /* jump multiplier, DON'T CHANGE THIS VALUE */
  44:rngs.c        **** #define DEFAULT    123456789  /* initial seed, use 0 < DEFAULT < MODULUS  */
  45:rngs.c        ****       
  46:rngs.c        **** static long seed[STREAMS] = {DEFAULT};  /* current state of each stream   */
  47:rngs.c        **** static int  stream        = 0;          /* stream index, 0 is the default */
  48:rngs.c        **** static int  initialized   = 0;          /* test for stream initialization */
  49:rngs.c        **** 
  50:rngs.c        **** 
  51:rngs.c        ****    double Random(void)
  52:rngs.c        **** /* ----------------------------------------------------------------
  53:rngs.c        ****  * Random returns a pseudo-random real number uniformly distributed 
  54:rngs.c        ****  * between 0.0 and 1.0. 
  55:rngs.c        ****  * ----------------------------------------------------------------
  56:rngs.c        ****  */
  57:rngs.c        **** {
  44              		.loc 1 57 0
  45              		.cfi_startproc
  46              		@ args = 0, pretend = 0, frame = 16
  47              		@ frame_needed = 1, uses_anonymous_args = 0
  48 0000 90B5     		push	{r4, r7, lr}
  49              		.cfi_def_cfa_offset 12
  50              		.cfi_offset 4, -12
  51              		.cfi_offset 7, -8
  52              		.cfi_offset 14, -4
  53 0002 85B0     		sub	sp, sp, #20
ARM GAS  C:\Users\Matthew\AppData\Local\Temp\ccJtD6J2.s 			page 3


  54              		.cfi_def_cfa_offset 32
  55 0004 00AF     		add	r7, sp, #0
  56              		.cfi_def_cfa_register 7
  58:rngs.c        ****   const long Q = MODULUS / MULTIPLIER;
  57              		.loc 1 58 0
  58 0006 4AF6C853 		movw	r3, #44488
  59 000a FB60     		str	r3, [r7, #12]
  59:rngs.c        ****   const long R = MODULUS % MULTIPLIER;
  60              		.loc 1 59 0
  61 000c 40F64753 		movw	r3, #3399
  62 0010 BB60     		str	r3, [r7, #8]
  60:rngs.c        ****         long t;
  61:rngs.c        **** 
  62:rngs.c        ****   t = MULTIPLIER * (seed[stream] % Q) - R * (seed[stream] / Q);
  63              		.loc 1 62 0
  64 0012 254B     		ldr	r3, .L5+8
  65 0014 1B68     		ldr	r3, [r3]
  66 0016 254A     		ldr	r2, .L5+12
  67 0018 52F82330 		ldr	r3, [r2, r3, lsl #2]
  68 001c FA68     		ldr	r2, [r7, #12]
  69 001e 93FBF2F2 		sdiv	r2, r3, r2
  70 0022 F968     		ldr	r1, [r7, #12]
  71 0024 01FB02F2 		mul	r2, r1, r2
  72 0028 9B1A     		subs	r3, r3, r2
  73 002a 4BF68F42 		movw	r2, #48271
  74 002e 02FB03F2 		mul	r2, r2, r3
  75 0032 1D4B     		ldr	r3, .L5+8
  76 0034 1B68     		ldr	r3, [r3]
  77 0036 1D49     		ldr	r1, .L5+12
  78 0038 51F82310 		ldr	r1, [r1, r3, lsl #2]
  79 003c FB68     		ldr	r3, [r7, #12]
  80 003e 91FBF3F3 		sdiv	r3, r1, r3
  81 0042 B968     		ldr	r1, [r7, #8]
  82 0044 01FB03F3 		mul	r3, r1, r3
  83 0048 D31A     		subs	r3, r2, r3
  84 004a 7B60     		str	r3, [r7, #4]
  63:rngs.c        ****   if (t > 0) 
  85              		.loc 1 63 0
  86 004c 7B68     		ldr	r3, [r7, #4]
  87 004e 002B     		cmp	r3, #0
  88 0050 06DD     		ble	.L2
  64:rngs.c        ****     seed[stream] = t;
  89              		.loc 1 64 0
  90 0052 154B     		ldr	r3, .L5+8
  91 0054 1B68     		ldr	r3, [r3]
  92 0056 1549     		ldr	r1, .L5+12
  93 0058 7A68     		ldr	r2, [r7, #4]
  94 005a 41F82320 		str	r2, [r1, r3, lsl #2]
  95 005e 08E0     		b	.L3
  96              	.L2:
  65:rngs.c        ****   else 
  66:rngs.c        ****     seed[stream] = t + MODULUS;
  97              		.loc 1 66 0
  98 0060 114B     		ldr	r3, .L5+8
  99 0062 1A68     		ldr	r2, [r3]
 100 0064 7B68     		ldr	r3, [r7, #4]
 101 0066 03F10043 		add	r3, r3, #-2147483648
ARM GAS  C:\Users\Matthew\AppData\Local\Temp\ccJtD6J2.s 			page 4


 102 006a 013B     		subs	r3, r3, #1
 103 006c 0F49     		ldr	r1, .L5+12
 104 006e 41F82230 		str	r3, [r1, r2, lsl #2]
 105              	.L3:
  67:rngs.c        ****   return ((double) seed[stream] / MODULUS);
 106              		.loc 1 67 0
 107 0072 0D4B     		ldr	r3, .L5+8
 108 0074 1B68     		ldr	r3, [r3]
 109 0076 0D4A     		ldr	r2, .L5+12
 110 0078 52F82330 		ldr	r3, [r2, r3, lsl #2]
 111 007c 1846     		mov	r0, r3
 112 007e FFF7FEFF 		bl	__aeabi_i2d
 113 0082 07A3     		adr	r3, .L5
 114 0084 D3E90023 		ldrd	r2, [r3]
 115 0088 FFF7FEFF 		bl	__aeabi_ddiv
 116 008c 0346     		mov	r3, r0
 117 008e 0C46     		mov	r4, r1
  68:rngs.c        **** }
 118              		.loc 1 68 0
 119 0090 1846     		mov	r0, r3
 120 0092 2146     		mov	r1, r4
 121 0094 1437     		adds	r7, r7, #20
 122              		.cfi_def_cfa_offset 12
 123 0096 BD46     		mov	sp, r7
 124              		.cfi_def_cfa_register 13
 125              		@ sp needed
 126 0098 90BD     		pop	{r4, r7, pc}
 127              	.L6:
 128 009a 00BFAFF3 		.align	3
 128      0080
 129              	.L5:
 130 00a0 0000C0FF 		.word	-4194304
 131 00a4 FFFFDF41 		.word	1105199103
 132 00a8 00000000 		.word	stream
 133 00ac 00000000 		.word	seed
 134              		.cfi_endproc
 135              	.LFE1:
 136              		.size	Random, .-Random
 137              		.section	.text.PlantSeeds,"ax",%progbits
 138              		.align	2
 139              		.global	PlantSeeds
 140              		.thumb
 141              		.thumb_func
 142              		.type	PlantSeeds, %function
 143              	PlantSeeds:
 144              	.LFB2:
  69:rngs.c        **** 
  70:rngs.c        **** 
  71:rngs.c        ****    void PlantSeeds(long x)
  72:rngs.c        **** /* ---------------------------------------------------------------------
  73:rngs.c        ****  * Use this function to set the state of all the random number generator 
  74:rngs.c        ****  * streams by "planting" a sequence of states (seeds), one per stream, 
  75:rngs.c        ****  * with all states dictated by the state of the default stream. 
  76:rngs.c        ****  * The sequence of planted states is separated one from the next by 
  77:rngs.c        ****  * 8,367,782 calls to Random().
  78:rngs.c        ****  * ---------------------------------------------------------------------
  79:rngs.c        ****  */
ARM GAS  C:\Users\Matthew\AppData\Local\Temp\ccJtD6J2.s 			page 5


  80:rngs.c        **** {
 145              		.loc 1 80 0
 146              		.cfi_startproc
 147              		@ args = 0, pretend = 0, frame = 24
 148              		@ frame_needed = 1, uses_anonymous_args = 0
 149 0000 80B5     		push	{r7, lr}
 150              		.cfi_def_cfa_offset 8
 151              		.cfi_offset 7, -8
 152              		.cfi_offset 14, -4
 153 0002 86B0     		sub	sp, sp, #24
 154              		.cfi_def_cfa_offset 32
 155 0004 00AF     		add	r7, sp, #0
 156              		.cfi_def_cfa_register 7
 157 0006 7860     		str	r0, [r7, #4]
  81:rngs.c        ****   const long Q = MODULUS / A256;
 158              		.loc 1 81 0
 159 0008 274B     		ldr	r3, .L12
 160 000a 3B61     		str	r3, [r7, #16]
  82:rngs.c        ****   const long R = MODULUS % A256;
 161              		.loc 1 82 0
 162 000c 41F61D43 		movw	r3, #7197
 163 0010 FB60     		str	r3, [r7, #12]
  83:rngs.c        ****         int  j;
  84:rngs.c        ****         int  s;
  85:rngs.c        **** 
  86:rngs.c        ****   initialized = 1;
 164              		.loc 1 86 0
 165 0012 264B     		ldr	r3, .L12+4
 166 0014 0122     		movs	r2, #1
 167 0016 1A60     		str	r2, [r3]
  87:rngs.c        ****   s = stream;                            /* remember the current stream */
 168              		.loc 1 87 0
 169 0018 254B     		ldr	r3, .L12+8
 170 001a 1B68     		ldr	r3, [r3]
 171 001c BB60     		str	r3, [r7, #8]
  88:rngs.c        ****   SelectStream(0);                       /* change to stream 0          */
 172              		.loc 1 88 0
 173 001e 0020     		movs	r0, #0
 174 0020 FFF7FEFF 		bl	SelectStream
  89:rngs.c        ****   PutSeed(x);                            /* set seed[0]                 */
 175              		.loc 1 89 0
 176 0024 7868     		ldr	r0, [r7, #4]
 177 0026 FFF7FEFF 		bl	PutSeed
  90:rngs.c        ****   stream = s;                            /* reset the current stream    */
 178              		.loc 1 90 0
 179 002a 214A     		ldr	r2, .L12+8
 180 002c BB68     		ldr	r3, [r7, #8]
 181 002e 1360     		str	r3, [r2]
  91:rngs.c        ****   for (j = 1; j < STREAMS; j++) {
 182              		.loc 1 91 0
 183 0030 0123     		movs	r3, #1
 184 0032 7B61     		str	r3, [r7, #20]
 185 0034 30E0     		b	.L8
 186              	.L11:
  92:rngs.c        ****     x = A256 * (seed[j - 1] % Q) - R * (seed[j - 1] / Q);
 187              		.loc 1 92 0
 188 0036 7B69     		ldr	r3, [r7, #20]
ARM GAS  C:\Users\Matthew\AppData\Local\Temp\ccJtD6J2.s 			page 6


 189 0038 013B     		subs	r3, r3, #1
 190 003a 1E4A     		ldr	r2, .L12+12
 191 003c 52F82330 		ldr	r3, [r2, r3, lsl #2]
 192 0040 3A69     		ldr	r2, [r7, #16]
 193 0042 93FBF2F2 		sdiv	r2, r3, r2
 194 0046 3969     		ldr	r1, [r7, #16]
 195 0048 01FB02F2 		mul	r2, r1, r2
 196 004c 9B1A     		subs	r3, r3, r2
 197 004e 45F68D12 		movw	r2, #22925
 198 0052 02FB03F2 		mul	r2, r2, r3
 199 0056 7B69     		ldr	r3, [r7, #20]
 200 0058 013B     		subs	r3, r3, #1
 201 005a 1649     		ldr	r1, .L12+12
 202 005c 51F82310 		ldr	r1, [r1, r3, lsl #2]
 203 0060 3B69     		ldr	r3, [r7, #16]
 204 0062 91FBF3F3 		sdiv	r3, r1, r3
 205 0066 F968     		ldr	r1, [r7, #12]
 206 0068 01FB03F3 		mul	r3, r1, r3
 207 006c D31A     		subs	r3, r2, r3
 208 006e 7B60     		str	r3, [r7, #4]
  93:rngs.c        ****     if (x > 0)
 209              		.loc 1 93 0
 210 0070 7B68     		ldr	r3, [r7, #4]
 211 0072 002B     		cmp	r3, #0
 212 0074 05DD     		ble	.L9
  94:rngs.c        ****       seed[j] = x;
 213              		.loc 1 94 0
 214 0076 0F49     		ldr	r1, .L12+12
 215 0078 7B69     		ldr	r3, [r7, #20]
 216 007a 7A68     		ldr	r2, [r7, #4]
 217 007c 41F82320 		str	r2, [r1, r3, lsl #2]
 218 0080 07E0     		b	.L10
 219              	.L9:
  95:rngs.c        ****     else
  96:rngs.c        ****       seed[j] = x + MODULUS;
 220              		.loc 1 96 0
 221 0082 7B68     		ldr	r3, [r7, #4]
 222 0084 03F10043 		add	r3, r3, #-2147483648
 223 0088 013B     		subs	r3, r3, #1
 224 008a 0A49     		ldr	r1, .L12+12
 225 008c 7A69     		ldr	r2, [r7, #20]
 226 008e 41F82230 		str	r3, [r1, r2, lsl #2]
 227              	.L10:
  91:rngs.c        ****     x = A256 * (seed[j - 1] % Q) - R * (seed[j - 1] / Q);
 228              		.loc 1 91 0 discriminator 2
 229 0092 7B69     		ldr	r3, [r7, #20]
 230 0094 0133     		adds	r3, r3, #1
 231 0096 7B61     		str	r3, [r7, #20]
 232              	.L8:
  91:rngs.c        ****     x = A256 * (seed[j - 1] % Q) - R * (seed[j - 1] / Q);
 233              		.loc 1 91 0 is_stmt 0 discriminator 1
 234 0098 7B69     		ldr	r3, [r7, #20]
 235 009a FF2B     		cmp	r3, #255
 236 009c CBDD     		ble	.L11
  97:rngs.c        ****    }
  98:rngs.c        **** }
 237              		.loc 1 98 0 is_stmt 1
ARM GAS  C:\Users\Matthew\AppData\Local\Temp\ccJtD6J2.s 			page 7


 238 009e 00BF     		nop
 239 00a0 1837     		adds	r7, r7, #24
 240              		.cfi_def_cfa_offset 8
 241 00a2 BD46     		mov	sp, r7
 242              		.cfi_def_cfa_register 13
 243              		@ sp needed
 244 00a4 80BD     		pop	{r7, pc}
 245              	.L13:
 246 00a6 00BF     		.align	2
 247              	.L12:
 248 00a8 EA6D0100 		.word	93674
 249 00ac 04000000 		.word	initialized
 250 00b0 00000000 		.word	stream
 251 00b4 00000000 		.word	seed
 252              		.cfi_endproc
 253              	.LFE2:
 254              		.size	PlantSeeds, .-PlantSeeds
 255              		.section	.rodata
 256              		.align	2
 257              	.LC0:
 258 0000 0A456E74 		.ascii	"\012Enter a positive integer seed (9 digits or less"
 258      65722061 
 258      20706F73 
 258      69746976 
 258      6520696E 
 259 0030 29203E3E 		.ascii	") >> \000"
 259      2000
 260 0036 0000     		.align	2
 261              	.LC1:
 262 0038 256C6400 		.ascii	"%ld\000"
 263              		.align	2
 264              	.LC2:
 265 003c 0A496E70 		.ascii	"\012Input out of range ... try again\000"
 265      7574206F 
 265      7574206F 
 265      66207261 
 265      6E676520 
 266              		.section	.text.PutSeed,"ax",%progbits
 267              		.align	2
 268              		.global	PutSeed
 269              		.thumb
 270              		.thumb_func
 271              		.type	PutSeed, %function
 272              	PutSeed:
 273              	.LFB3:
  99:rngs.c        **** 
 100:rngs.c        **** 
 101:rngs.c        ****    void PutSeed(long x)
 102:rngs.c        **** /* ---------------------------------------------------------------
 103:rngs.c        ****  * Use this function to set the state of the current random number 
 104:rngs.c        ****  * generator stream according to the following conventions:
 105:rngs.c        ****  *    if x > 0 then x is the state (unless too large)
 106:rngs.c        ****  *    if x < 0 then the state is obtained from the system clock
 107:rngs.c        ****  *    if x = 0 then the state is to be supplied interactively
 108:rngs.c        ****  * ---------------------------------------------------------------
 109:rngs.c        ****  */
 110:rngs.c        **** {
ARM GAS  C:\Users\Matthew\AppData\Local\Temp\ccJtD6J2.s 			page 8


 274              		.loc 1 110 0
 275              		.cfi_startproc
 276              		@ args = 0, pretend = 0, frame = 16
 277              		@ frame_needed = 1, uses_anonymous_args = 0
 278 0000 90B5     		push	{r4, r7, lr}
 279              		.cfi_def_cfa_offset 12
 280              		.cfi_offset 4, -12
 281              		.cfi_offset 7, -8
 282              		.cfi_offset 14, -4
 283 0002 85B0     		sub	sp, sp, #20
 284              		.cfi_def_cfa_offset 32
 285 0004 00AF     		add	r7, sp, #0
 286              		.cfi_def_cfa_register 7
 287 0006 7860     		str	r0, [r7, #4]
 111:rngs.c        ****   char ok = 0;
 288              		.loc 1 111 0
 289 0008 0023     		movs	r3, #0
 290 000a FB73     		strb	r3, [r7, #15]
 112:rngs.c        **** 
 113:rngs.c        ****   if (x > 0)
 291              		.loc 1 113 0
 292 000c 7B68     		ldr	r3, [r7, #4]
 293 000e 002B     		cmp	r3, #0
 294 0010 0BDD     		ble	.L15
 114:rngs.c        ****     x = x % MODULUS;                       /* correct if x is too large  */
 295              		.loc 1 114 0
 296 0012 7968     		ldr	r1, [r7, #4]
 297 0014 254B     		ldr	r3, .L22
 298 0016 83FB0123 		smull	r2, r3, r3, r1
 299 001a 5A17     		asrs	r2, r3, #29
 300 001c CB17     		asrs	r3, r1, #31
 301 001e D21A     		subs	r2, r2, r3
 302 0020 1346     		mov	r3, r2
 303 0022 DB07     		lsls	r3, r3, #31
 304 0024 9B1A     		subs	r3, r3, r2
 305 0026 CA1A     		subs	r2, r1, r3
 306 0028 7A60     		str	r2, [r7, #4]
 307              	.L15:
 115:rngs.c        ****   if (x < 0)                                 
 308              		.loc 1 115 0
 309 002a 7B68     		ldr	r3, [r7, #4]
 310 002c 002B     		cmp	r3, #0
 311 002e 11DA     		bge	.L16
 116:rngs.c        ****     x = ((unsigned long) time((time_t *) NULL)) % MODULUS;              
 312              		.loc 1 116 0
 313 0030 0020     		movs	r0, #0
 314 0032 FFF7FEFF 		bl	time
 315 0036 0346     		mov	r3, r0
 316 0038 1946     		mov	r1, r3
 317 003a 0323     		movs	r3, #3
 318 003c A1FB0334 		umull	r3, r4, r1, r3
 319 0040 0A1B     		subs	r2, r1, r4
 320 0042 5208     		lsrs	r2, r2, #1
 321 0044 1319     		adds	r3, r2, r4
 322 0046 9A0F     		lsrs	r2, r3, #30
 323 0048 1346     		mov	r3, r2
 324 004a DB07     		lsls	r3, r3, #31
ARM GAS  C:\Users\Matthew\AppData\Local\Temp\ccJtD6J2.s 			page 9


 325 004c 9B1A     		subs	r3, r3, r2
 326 004e CA1A     		subs	r2, r1, r3
 327 0050 1346     		mov	r3, r2
 328 0052 7B60     		str	r3, [r7, #4]
 329              	.L16:
 117:rngs.c        ****   if (x == 0)                                
 330              		.loc 1 117 0
 331 0054 7B68     		ldr	r3, [r7, #4]
 332 0056 002B     		cmp	r3, #0
 333 0058 1DD1     		bne	.L17
 118:rngs.c        ****     while (!ok) {
 334              		.loc 1 118 0
 335 005a 19E0     		b	.L18
 336              	.L21:
 119:rngs.c        ****       printf("\nEnter a positive integer seed (9 digits or less) >> ");
 337              		.loc 1 119 0
 338 005c 1448     		ldr	r0, .L22+4
 339 005e FFF7FEFF 		bl	printf
 120:rngs.c        ****       scanf("%ld", &x);
 340              		.loc 1 120 0
 341 0062 3B1D     		adds	r3, r7, #4
 342 0064 1946     		mov	r1, r3
 343 0066 1348     		ldr	r0, .L22+8
 344 0068 FFF7FEFF 		bl	scanf
 121:rngs.c        ****       ok = (0 < x) && (x < MODULUS);
 345              		.loc 1 121 0
 346 006c 7B68     		ldr	r3, [r7, #4]
 347 006e 002B     		cmp	r3, #0
 348 0070 06DD     		ble	.L19
 349              		.loc 1 121 0 is_stmt 0 discriminator 1
 350 0072 7B68     		ldr	r3, [r7, #4]
 351 0074 6FF00042 		mvn	r2, #-2147483648
 352 0078 9342     		cmp	r3, r2
 353 007a 01D0     		beq	.L19
 354              		.loc 1 121 0 discriminator 3
 355 007c 0123     		movs	r3, #1
 356 007e 00E0     		b	.L20
 357              	.L19:
 358              		.loc 1 121 0 discriminator 4
 359 0080 0023     		movs	r3, #0
 360              	.L20:
 361              		.loc 1 121 0 discriminator 6
 362 0082 FB73     		strb	r3, [r7, #15]
 122:rngs.c        ****       if (!ok)
 363              		.loc 1 122 0 is_stmt 1 discriminator 6
 364 0084 FB7B     		ldrb	r3, [r7, #15]	@ zero_extendqisi2
 365 0086 002B     		cmp	r3, #0
 366 0088 02D1     		bne	.L18
 123:rngs.c        ****         printf("\nInput out of range ... try again\n");
 367              		.loc 1 123 0
 368 008a 0B48     		ldr	r0, .L22+12
 369 008c FFF7FEFF 		bl	puts
 370              	.L18:
 118:rngs.c        ****       printf("\nEnter a positive integer seed (9 digits or less) >> ");
 371              		.loc 1 118 0
 372 0090 FB7B     		ldrb	r3, [r7, #15]	@ zero_extendqisi2
 373 0092 002B     		cmp	r3, #0
ARM GAS  C:\Users\Matthew\AppData\Local\Temp\ccJtD6J2.s 			page 10


 374 0094 E2D0     		beq	.L21
 375              	.L17:
 124:rngs.c        ****     }
 125:rngs.c        ****   seed[stream] = x;
 376              		.loc 1 125 0
 377 0096 094B     		ldr	r3, .L22+16
 378 0098 1B68     		ldr	r3, [r3]
 379 009a 7A68     		ldr	r2, [r7, #4]
 380 009c 0849     		ldr	r1, .L22+20
 381 009e 41F82320 		str	r2, [r1, r3, lsl #2]
 126:rngs.c        **** }
 382              		.loc 1 126 0
 383 00a2 00BF     		nop
 384 00a4 1437     		adds	r7, r7, #20
 385              		.cfi_def_cfa_offset 12
 386 00a6 BD46     		mov	sp, r7
 387              		.cfi_def_cfa_register 13
 388              		@ sp needed
 389 00a8 90BD     		pop	{r4, r7, pc}
 390              	.L23:
 391 00aa 00BF     		.align	2
 392              	.L22:
 393 00ac 01000040 		.word	1073741825
 394 00b0 00000000 		.word	.LC0
 395 00b4 38000000 		.word	.LC1
 396 00b8 3C000000 		.word	.LC2
 397 00bc 00000000 		.word	stream
 398 00c0 00000000 		.word	seed
 399              		.cfi_endproc
 400              	.LFE3:
 401              		.size	PutSeed, .-PutSeed
 402              		.section	.text.GetSeed,"ax",%progbits
 403              		.align	2
 404              		.global	GetSeed
 405              		.thumb
 406              		.thumb_func
 407              		.type	GetSeed, %function
 408              	GetSeed:
 409              	.LFB4:
 127:rngs.c        **** 
 128:rngs.c        **** 
 129:rngs.c        ****    void GetSeed(long *x)
 130:rngs.c        **** /* ---------------------------------------------------------------
 131:rngs.c        ****  * Use this function to get the state of the current random number 
 132:rngs.c        ****  * generator stream.                                                   
 133:rngs.c        ****  * ---------------------------------------------------------------
 134:rngs.c        ****  */
 135:rngs.c        **** {
 410              		.loc 1 135 0
 411              		.cfi_startproc
 412              		@ args = 0, pretend = 0, frame = 8
 413              		@ frame_needed = 1, uses_anonymous_args = 0
 414              		@ link register save eliminated.
 415 0000 80B4     		push	{r7}
 416              		.cfi_def_cfa_offset 4
 417              		.cfi_offset 7, -4
 418 0002 83B0     		sub	sp, sp, #12
ARM GAS  C:\Users\Matthew\AppData\Local\Temp\ccJtD6J2.s 			page 11


 419              		.cfi_def_cfa_offset 16
 420 0004 00AF     		add	r7, sp, #0
 421              		.cfi_def_cfa_register 7
 422 0006 7860     		str	r0, [r7, #4]
 136:rngs.c        ****   *x = seed[stream];
 423              		.loc 1 136 0
 424 0008 054B     		ldr	r3, .L25
 425 000a 1B68     		ldr	r3, [r3]
 426 000c 054A     		ldr	r2, .L25+4
 427 000e 52F82320 		ldr	r2, [r2, r3, lsl #2]
 428 0012 7B68     		ldr	r3, [r7, #4]
 429 0014 1A60     		str	r2, [r3]
 137:rngs.c        **** }
 430              		.loc 1 137 0
 431 0016 00BF     		nop
 432 0018 0C37     		adds	r7, r7, #12
 433              		.cfi_def_cfa_offset 4
 434 001a BD46     		mov	sp, r7
 435              		.cfi_def_cfa_register 13
 436              		@ sp needed
 437 001c 80BC     		pop	{r7}
 438              		.cfi_restore 7
 439              		.cfi_def_cfa_offset 0
 440 001e 7047     		bx	lr
 441              	.L26:
 442              		.align	2
 443              	.L25:
 444 0020 00000000 		.word	stream
 445 0024 00000000 		.word	seed
 446              		.cfi_endproc
 447              	.LFE4:
 448              		.size	GetSeed, .-GetSeed
 449              		.section	.text.SelectStream,"ax",%progbits
 450              		.align	2
 451              		.global	SelectStream
 452              		.thumb
 453              		.thumb_func
 454              		.type	SelectStream, %function
 455              	SelectStream:
 456              	.LFB5:
 138:rngs.c        **** 
 139:rngs.c        **** 
 140:rngs.c        ****    void SelectStream(int index)
 141:rngs.c        **** /* ------------------------------------------------------------------
 142:rngs.c        ****  * Use this function to set the current random number generator
 143:rngs.c        ****  * stream -- that stream from which the next random number will come.
 144:rngs.c        ****  * ------------------------------------------------------------------
 145:rngs.c        ****  */
 146:rngs.c        **** {
 457              		.loc 1 146 0
 458              		.cfi_startproc
 459              		@ args = 0, pretend = 0, frame = 8
 460              		@ frame_needed = 1, uses_anonymous_args = 0
 461 0000 80B5     		push	{r7, lr}
 462              		.cfi_def_cfa_offset 8
 463              		.cfi_offset 7, -8
 464              		.cfi_offset 14, -4
ARM GAS  C:\Users\Matthew\AppData\Local\Temp\ccJtD6J2.s 			page 12


 465 0002 82B0     		sub	sp, sp, #8
 466              		.cfi_def_cfa_offset 16
 467 0004 00AF     		add	r7, sp, #0
 468              		.cfi_def_cfa_register 7
 469 0006 7860     		str	r0, [r7, #4]
 147:rngs.c        ****   stream = ((unsigned int) index) % STREAMS;
 470              		.loc 1 147 0
 471 0008 7B68     		ldr	r3, [r7, #4]
 472 000a DBB2     		uxtb	r3, r3
 473 000c 084A     		ldr	r2, .L30
 474 000e 1360     		str	r3, [r2]
 148:rngs.c        ****   if ((initialized == 0) && (stream != 0))   /* protect against        */
 475              		.loc 1 148 0
 476 0010 084B     		ldr	r3, .L30+4
 477 0012 1B68     		ldr	r3, [r3]
 478 0014 002B     		cmp	r3, #0
 479 0016 06D1     		bne	.L29
 480              		.loc 1 148 0 is_stmt 0 discriminator 1
 481 0018 054B     		ldr	r3, .L30
 482 001a 1B68     		ldr	r3, [r3]
 483 001c 002B     		cmp	r3, #0
 484 001e 02D0     		beq	.L29
 149:rngs.c        ****     PlantSeeds(DEFAULT);                     /* un-initialized streams */
 485              		.loc 1 149 0 is_stmt 1
 486 0020 0548     		ldr	r0, .L30+8
 487 0022 FFF7FEFF 		bl	PlantSeeds
 488              	.L29:
 150:rngs.c        **** }
 489              		.loc 1 150 0
 490 0026 00BF     		nop
 491 0028 0837     		adds	r7, r7, #8
 492              		.cfi_def_cfa_offset 8
 493 002a BD46     		mov	sp, r7
 494              		.cfi_def_cfa_register 13
 495              		@ sp needed
 496 002c 80BD     		pop	{r7, pc}
 497              	.L31:
 498 002e 00BF     		.align	2
 499              	.L30:
 500 0030 00000000 		.word	stream
 501 0034 04000000 		.word	initialized
 502 0038 15CD5B07 		.word	123456789
 503              		.cfi_endproc
 504              	.LFE5:
 505              		.size	SelectStream, .-SelectStream
 506              		.section	.rodata
 507 005e 0000     		.align	2
 508              	.LC3:
 509 0060 0A205468 		.ascii	"\012 The implementation of rngs.c is correct.\012\000"
 509      6520696D 
 509      706C656D 
 509      656E7461 
 509      74696F6E 
 510              		.align	2
 511              	.LC4:
 512 008c 0A072045 		.ascii	"\012\007 ERROR -- the implementation of rngs.c is n"
 512      52524F52 
ARM GAS  C:\Users\Matthew\AppData\Local\Temp\ccJtD6J2.s 			page 13


 512      202D2D20 
 512      74686520 
 512      696D706C 
 513 00b9 6F742063 		.ascii	"ot correct.\012\000"
 513      6F727265 
 513      63742E0A 
 513      00
 514              		.section	.text.TestRandom,"ax",%progbits
 515              		.align	2
 516              		.global	TestRandom
 517              		.thumb
 518              		.thumb_func
 519              		.type	TestRandom, %function
 520              	TestRandom:
 521              	.LFB6:
 151:rngs.c        **** 
 152:rngs.c        **** 
 153:rngs.c        ****    void TestRandom(void)
 154:rngs.c        **** /* ------------------------------------------------------------------
 155:rngs.c        ****  * Use this (optional) function to test for a correct implementation.
 156:rngs.c        ****  * ------------------------------------------------------------------    
 157:rngs.c        ****  */
 158:rngs.c        **** {
 522              		.loc 1 158 0
 523              		.cfi_startproc
 524              		@ args = 0, pretend = 0, frame = 24
 525              		@ frame_needed = 1, uses_anonymous_args = 0
 526 0000 80B5     		push	{r7, lr}
 527              		.cfi_def_cfa_offset 8
 528              		.cfi_offset 7, -8
 529              		.cfi_offset 14, -4
 530 0002 86B0     		sub	sp, sp, #24
 531              		.cfi_def_cfa_offset 32
 532 0004 00AF     		add	r7, sp, #0
 533              		.cfi_def_cfa_register 7
 159:rngs.c        ****   long   i;
 160:rngs.c        ****   long   x;
 161:rngs.c        ****   double u;
 162:rngs.c        ****   char   ok = 0;  
 534              		.loc 1 162 0
 535 0006 0023     		movs	r3, #0
 536 0008 FB74     		strb	r3, [r7, #19]
 163:rngs.c        **** 
 164:rngs.c        ****   SelectStream(0);                  /* select the default stream */
 537              		.loc 1 164 0
 538 000a 0020     		movs	r0, #0
 539 000c FFF7FEFF 		bl	SelectStream
 165:rngs.c        ****   PutSeed(1);                       /* and set the state to 1    */
 540              		.loc 1 165 0
 541 0010 0120     		movs	r0, #1
 542 0012 FFF7FEFF 		bl	PutSeed
 166:rngs.c        ****   for(i = 0; i < 10000; i++)
 543              		.loc 1 166 0
 544 0016 0023     		movs	r3, #0
 545 0018 7B61     		str	r3, [r7, #20]
 546 001a 06E0     		b	.L33
 547              	.L34:
ARM GAS  C:\Users\Matthew\AppData\Local\Temp\ccJtD6J2.s 			page 14


 167:rngs.c        ****     u = Random();
 548              		.loc 1 167 0 discriminator 3
 549 001c FFF7FEFF 		bl	Random
 550 0020 C7E90201 		strd	r0, [r7, #8]
 166:rngs.c        ****   for(i = 0; i < 10000; i++)
 551              		.loc 1 166 0 discriminator 3
 552 0024 7B69     		ldr	r3, [r7, #20]
 553 0026 0133     		adds	r3, r3, #1
 554 0028 7B61     		str	r3, [r7, #20]
 555              	.L33:
 166:rngs.c        ****   for(i = 0; i < 10000; i++)
 556              		.loc 1 166 0 is_stmt 0 discriminator 1
 557 002a 7B69     		ldr	r3, [r7, #20]
 558 002c 42F20F72 		movw	r2, #9999
 559 0030 9342     		cmp	r3, r2
 560 0032 F3DD     		ble	.L34
 168:rngs.c        ****   GetSeed(&x);                      /* get the new state value   */
 561              		.loc 1 168 0 is_stmt 1
 562 0034 3B1D     		adds	r3, r7, #4
 563 0036 1846     		mov	r0, r3
 564 0038 FFF7FEFF 		bl	GetSeed
 169:rngs.c        ****   ok = (x == CHECK);                /* and check for correctness */
 565              		.loc 1 169 0
 566 003c 7B68     		ldr	r3, [r7, #4]
 567 003e 154A     		ldr	r2, .L40
 568 0040 9342     		cmp	r3, r2
 569 0042 0CBF     		ite	eq
 570 0044 0123     		moveq	r3, #1
 571 0046 0023     		movne	r3, #0
 572 0048 DBB2     		uxtb	r3, r3
 573 004a FB74     		strb	r3, [r7, #19]
 170:rngs.c        **** 
 171:rngs.c        ****   SelectStream(1);                  /* select stream 1                 */ 
 574              		.loc 1 171 0
 575 004c 0120     		movs	r0, #1
 576 004e FFF7FEFF 		bl	SelectStream
 172:rngs.c        ****   PlantSeeds(1);                    /* set the state of all streams    */
 577              		.loc 1 172 0
 578 0052 0120     		movs	r0, #1
 579 0054 FFF7FEFF 		bl	PlantSeeds
 173:rngs.c        ****   GetSeed(&x);                      /* get the state of stream 1       */
 580              		.loc 1 173 0
 581 0058 3B1D     		adds	r3, r7, #4
 582 005a 1846     		mov	r0, r3
 583 005c FFF7FEFF 		bl	GetSeed
 174:rngs.c        ****   ok = ok && (x == A256);           /* x should be the jump multiplier */    
 584              		.loc 1 174 0
 585 0060 FB7C     		ldrb	r3, [r7, #19]	@ zero_extendqisi2
 586 0062 002B     		cmp	r3, #0
 587 0064 06D0     		beq	.L35
 588              		.loc 1 174 0 is_stmt 0 discriminator 1
 589 0066 7B68     		ldr	r3, [r7, #4]
 590 0068 45F68D12 		movw	r2, #22925
 591 006c 9342     		cmp	r3, r2
 592 006e 01D1     		bne	.L35
 593              		.loc 1 174 0 discriminator 3
 594 0070 0123     		movs	r3, #1
ARM GAS  C:\Users\Matthew\AppData\Local\Temp\ccJtD6J2.s 			page 15


 595 0072 00E0     		b	.L36
 596              	.L35:
 597              		.loc 1 174 0 discriminator 4
 598 0074 0023     		movs	r3, #0
 599              	.L36:
 600              		.loc 1 174 0 discriminator 6
 601 0076 FB74     		strb	r3, [r7, #19]
 175:rngs.c        ****   if (ok)
 602              		.loc 1 175 0 is_stmt 1 discriminator 6
 603 0078 FB7C     		ldrb	r3, [r7, #19]	@ zero_extendqisi2
 604 007a 002B     		cmp	r3, #0
 605 007c 03D0     		beq	.L37
 176:rngs.c        ****     printf("\n The implementation of rngs.c is correct.\n\n");
 606              		.loc 1 176 0
 607 007e 0648     		ldr	r0, .L40+4
 608 0080 FFF7FEFF 		bl	puts
 177:rngs.c        ****   else
 178:rngs.c        ****     printf("\n\a ERROR -- the implementation of rngs.c is not correct.\n\n");
 179:rngs.c        **** }...
 609              		.loc 1 179 0
 610 0084 02E0     		b	.L39
 611              	.L37:
 178:rngs.c        ****     printf("\n\a ERROR -- the implementation of rngs.c is not correct.\n\n");
 612              		.loc 1 178 0
 613 0086 0548     		ldr	r0, .L40+8
 614 0088 FFF7FEFF 		bl	puts
 615              	.L39:
 616              		.loc 1 179 0
 617 008c 00BF     		nop
 618 008e 1837     		adds	r7, r7, #24
 619              		.cfi_def_cfa_offset 8
 620 0090 BD46     		mov	sp, r7
 621              		.cfi_def_cfa_register 13
 622              		@ sp needed
 623 0092 80BD     		pop	{r7, pc}
 624              	.L41:
 625              		.align	2
 626              	.L40:
 627 0094 B95ACC17 		.word	399268537
 628 0098 60000000 		.word	.LC3
 629 009c 8C000000 		.word	.LC4
 630              		.cfi_endproc
 631              	.LFE6:
 632              		.size	TestRandom, .-TestRandom
 633              		.text
 634              	.Letext0:
 635              		.file 2 "c:\\program files (x86)\\cypress\\psoc creator\\4.2\\psoc creator\\import\\gnu\\arm\\5.4.