ARM GAS  C:\Users\Matthew\AppData\Local\Temp\ccwjZYHX.s 			page 1


   1              		.syntax unified
   2              		.cpu cortex-m3
   3              		.fpu softvfp
   4              		.eabi_attribute 20, 1
   5              		.eabi_attribute 21, 1
   6              		.eabi_attribute 23, 3
   7              		.eabi_attribute 24, 1
   8              		.eabi_attribute 25, 1
   9              		.eabi_attribute 26, 1
  10              		.eabi_attribute 30, 6
  11              		.eabi_attribute 34, 1
  12              		.eabi_attribute 18, 4
  13              		.thumb
  14              		.syntax unified
  15              		.file	"spi_done.c"
  16              		.text
  17              	.Ltext0:
  18              		.cfi_sections	.debug_frame
  19              		.global	spi_done
  20              		.bss
  21              		.align	2
  22              		.type	spi_done, %object
  23              		.size	spi_done, 4
  24              	spi_done:
  25 0000 00000000 		.space	4
  26              		.section	.text.spi_done_Start,"ax",%progbits
  27              		.align	2
  28              		.global	spi_done_Start
  29              		.thumb
  30              		.thumb_func
  31              		.type	spi_done_Start, %function
  32              	spi_done_Start:
  33              	.LFB0:
  34              		.file 1 "Generated_Source\\PSoC5\\spi_done.c"
   1:Generated_Source\PSoC5/spi_done.c **** /*******************************************************************************
   2:Generated_Source\PSoC5/spi_done.c **** * File Name: spi_done.c  
   3:Generated_Source\PSoC5/spi_done.c **** * Version 1.70
   4:Generated_Source\PSoC5/spi_done.c **** *
   5:Generated_Source\PSoC5/spi_done.c **** *  Description:
   6:Generated_Source\PSoC5/spi_done.c **** *   API for controlling the state of an interrupt.
   7:Generated_Source\PSoC5/spi_done.c **** *
   8:Generated_Source\PSoC5/spi_done.c **** *
   9:Generated_Source\PSoC5/spi_done.c **** *  Note:
  10:Generated_Source\PSoC5/spi_done.c **** *
  11:Generated_Source\PSoC5/spi_done.c **** ********************************************************************************
  12:Generated_Source\PSoC5/spi_done.c **** * Copyright 2008-2015, Cypress Semiconductor Corporation.  All rights reserved.
  13:Generated_Source\PSoC5/spi_done.c **** * You may use this file only in accordance with the license, terms, conditions, 
  14:Generated_Source\PSoC5/spi_done.c **** * disclaimers, and limitations in the end user license agreement accompanying 
  15:Generated_Source\PSoC5/spi_done.c **** * the software package with which this file was provided.
  16:Generated_Source\PSoC5/spi_done.c **** *******************************************************************************/
  17:Generated_Source\PSoC5/spi_done.c **** 
  18:Generated_Source\PSoC5/spi_done.c **** 
  19:Generated_Source\PSoC5/spi_done.c **** #include <cydevice_trm.h>
  20:Generated_Source\PSoC5/spi_done.c **** #include <CyLib.h>
  21:Generated_Source\PSoC5/spi_done.c **** #include <spi_done.h>
  22:Generated_Source\PSoC5/spi_done.c **** #include "cyapicallbacks.h"
  23:Generated_Source\PSoC5/spi_done.c **** 
ARM GAS  C:\Users\Matthew\AppData\Local\Temp\ccwjZYHX.s 			page 2


  24:Generated_Source\PSoC5/spi_done.c **** #if !defined(spi_done__REMOVED) /* Check for removal by optimization */
  25:Generated_Source\PSoC5/spi_done.c **** 
  26:Generated_Source\PSoC5/spi_done.c **** /*******************************************************************************
  27:Generated_Source\PSoC5/spi_done.c **** *  Place your includes, defines and code here 
  28:Generated_Source\PSoC5/spi_done.c **** ********************************************************************************/
  29:Generated_Source\PSoC5/spi_done.c **** /* `#START spi_done_intc` */
  30:Generated_Source\PSoC5/spi_done.c **** #include "common.h"
  31:Generated_Source\PSoC5/spi_done.c **** #include "RED_LED.h"
  32:Generated_Source\PSoC5/spi_done.c **** spi_done = 0;
  33:Generated_Source\PSoC5/spi_done.c **** /* `#END` */
  34:Generated_Source\PSoC5/spi_done.c **** 
  35:Generated_Source\PSoC5/spi_done.c **** #ifndef CYINT_IRQ_BASE
  36:Generated_Source\PSoC5/spi_done.c **** #define CYINT_IRQ_BASE      16
  37:Generated_Source\PSoC5/spi_done.c **** #endif /* CYINT_IRQ_BASE */
  38:Generated_Source\PSoC5/spi_done.c **** #ifndef CYINT_VECT_TABLE
  39:Generated_Source\PSoC5/spi_done.c **** #define CYINT_VECT_TABLE    ((cyisraddress **) CYREG_NVIC_VECT_OFFSET)
  40:Generated_Source\PSoC5/spi_done.c **** #endif /* CYINT_VECT_TABLE */
  41:Generated_Source\PSoC5/spi_done.c **** 
  42:Generated_Source\PSoC5/spi_done.c **** /* Declared in startup, used to set unused interrupts to. */
  43:Generated_Source\PSoC5/spi_done.c **** CY_ISR_PROTO(IntDefaultHandler);
  44:Generated_Source\PSoC5/spi_done.c **** 
  45:Generated_Source\PSoC5/spi_done.c **** 
  46:Generated_Source\PSoC5/spi_done.c **** /*******************************************************************************
  47:Generated_Source\PSoC5/spi_done.c **** * Function Name: spi_done_Start
  48:Generated_Source\PSoC5/spi_done.c **** ********************************************************************************
  49:Generated_Source\PSoC5/spi_done.c **** *
  50:Generated_Source\PSoC5/spi_done.c **** * Summary:
  51:Generated_Source\PSoC5/spi_done.c **** *  Set up the interrupt and enable it. This function disables the interrupt, 
  52:Generated_Source\PSoC5/spi_done.c **** *  sets the default interrupt vector, sets the priority from the value in the
  53:Generated_Source\PSoC5/spi_done.c **** *  Design Wide Resources Interrupt Editor, then enables the interrupt to the 
  54:Generated_Source\PSoC5/spi_done.c **** *  interrupt controller.
  55:Generated_Source\PSoC5/spi_done.c **** *
  56:Generated_Source\PSoC5/spi_done.c **** * Parameters:  
  57:Generated_Source\PSoC5/spi_done.c **** *   None
  58:Generated_Source\PSoC5/spi_done.c **** *
  59:Generated_Source\PSoC5/spi_done.c **** * Return:
  60:Generated_Source\PSoC5/spi_done.c **** *   None
  61:Generated_Source\PSoC5/spi_done.c **** *
  62:Generated_Source\PSoC5/spi_done.c **** *******************************************************************************/
  63:Generated_Source\PSoC5/spi_done.c **** void spi_done_Start(void)
  64:Generated_Source\PSoC5/spi_done.c **** {
  35              		.loc 1 64 0
  36              		.cfi_startproc
  37              		@ args = 0, pretend = 0, frame = 0
  38              		@ frame_needed = 1, uses_anonymous_args = 0
  39 0000 80B5     		push	{r7, lr}
  40              		.cfi_def_cfa_offset 8
  41              		.cfi_offset 7, -8
  42              		.cfi_offset 14, -4
  43 0002 00AF     		add	r7, sp, #0
  44              		.cfi_def_cfa_register 7
  65:Generated_Source\PSoC5/spi_done.c ****     /* For all we know the interrupt is active. */
  66:Generated_Source\PSoC5/spi_done.c ****     spi_done_Disable();
  45              		.loc 1 66 0
  46 0004 FFF7FEFF 		bl	spi_done_Disable
  67:Generated_Source\PSoC5/spi_done.c **** 
  68:Generated_Source\PSoC5/spi_done.c ****     /* Set the ISR to point to the spi_done Interrupt. */
ARM GAS  C:\Users\Matthew\AppData\Local\Temp\ccwjZYHX.s 			page 3


  69:Generated_Source\PSoC5/spi_done.c ****     spi_done_SetVector(&spi_done_Interrupt);
  47              		.loc 1 69 0
  48 0008 0448     		ldr	r0, .L2
  49 000a FFF7FEFF 		bl	spi_done_SetVector
  70:Generated_Source\PSoC5/spi_done.c **** 
  71:Generated_Source\PSoC5/spi_done.c ****     /* Set the priority. */
  72:Generated_Source\PSoC5/spi_done.c ****     spi_done_SetPriority((uint8)spi_done_INTC_PRIOR_NUMBER);
  50              		.loc 1 72 0
  51 000e 0720     		movs	r0, #7
  52 0010 FFF7FEFF 		bl	spi_done_SetPriority
  73:Generated_Source\PSoC5/spi_done.c **** 
  74:Generated_Source\PSoC5/spi_done.c ****     /* Enable it. */
  75:Generated_Source\PSoC5/spi_done.c ****     spi_done_Enable();
  53              		.loc 1 75 0
  54 0014 FFF7FEFF 		bl	spi_done_Enable
  76:Generated_Source\PSoC5/spi_done.c **** }
  55              		.loc 1 76 0
  56 0018 00BF     		nop
  57 001a 80BD     		pop	{r7, pc}
  58              	.L3:
  59              		.align	2
  60              	.L2:
  61 001c 00000000 		.word	spi_done_Interrupt
  62              		.cfi_endproc
  63              	.LFE0:
  64              		.size	spi_done_Start, .-spi_done_Start
  65              		.section	.text.spi_done_StartEx,"ax",%progbits
  66              		.align	2
  67              		.global	spi_done_StartEx
  68              		.thumb
  69              		.thumb_func
  70              		.type	spi_done_StartEx, %function
  71              	spi_done_StartEx:
  72              	.LFB1:
  77:Generated_Source\PSoC5/spi_done.c **** 
  78:Generated_Source\PSoC5/spi_done.c **** 
  79:Generated_Source\PSoC5/spi_done.c **** /*******************************************************************************
  80:Generated_Source\PSoC5/spi_done.c **** * Function Name: spi_done_StartEx
  81:Generated_Source\PSoC5/spi_done.c **** ********************************************************************************
  82:Generated_Source\PSoC5/spi_done.c **** *
  83:Generated_Source\PSoC5/spi_done.c **** * Summary:
  84:Generated_Source\PSoC5/spi_done.c **** *  Sets up the interrupt and enables it. This function disables the interrupt,
  85:Generated_Source\PSoC5/spi_done.c **** *  sets the interrupt vector based on the address passed in, sets the priority 
  86:Generated_Source\PSoC5/spi_done.c **** *  from the value in the Design Wide Resources Interrupt Editor, then enables 
  87:Generated_Source\PSoC5/spi_done.c **** *  the interrupt to the interrupt controller.
  88:Generated_Source\PSoC5/spi_done.c **** *  
  89:Generated_Source\PSoC5/spi_done.c **** *  When defining ISR functions, the CY_ISR and CY_ISR_PROTO macros should be 
  90:Generated_Source\PSoC5/spi_done.c **** *  used to provide consistent definition across compilers:
  91:Generated_Source\PSoC5/spi_done.c **** *  
  92:Generated_Source\PSoC5/spi_done.c **** *  Function definition example:
  93:Generated_Source\PSoC5/spi_done.c **** *   CY_ISR(MyISR)
  94:Generated_Source\PSoC5/spi_done.c **** *   {
  95:Generated_Source\PSoC5/spi_done.c **** *   }
  96:Generated_Source\PSoC5/spi_done.c **** *   Function prototype example:
  97:Generated_Source\PSoC5/spi_done.c **** *   CY_ISR_PROTO(MyISR);
  98:Generated_Source\PSoC5/spi_done.c **** *
  99:Generated_Source\PSoC5/spi_done.c **** * Parameters:  
ARM GAS  C:\Users\Matthew\AppData\Local\Temp\ccwjZYHX.s 			page 4


 100:Generated_Source\PSoC5/spi_done.c **** *   address: Address of the ISR to set in the interrupt vector table.
 101:Generated_Source\PSoC5/spi_done.c **** *
 102:Generated_Source\PSoC5/spi_done.c **** * Return:
 103:Generated_Source\PSoC5/spi_done.c **** *   None
 104:Generated_Source\PSoC5/spi_done.c **** *
 105:Generated_Source\PSoC5/spi_done.c **** *******************************************************************************/
 106:Generated_Source\PSoC5/spi_done.c **** void spi_done_StartEx(cyisraddress address)
 107:Generated_Source\PSoC5/spi_done.c **** {
  73              		.loc 1 107 0
  74              		.cfi_startproc
  75              		@ args = 0, pretend = 0, frame = 8
  76              		@ frame_needed = 1, uses_anonymous_args = 0
  77 0000 80B5     		push	{r7, lr}
  78              		.cfi_def_cfa_offset 8
  79              		.cfi_offset 7, -8
  80              		.cfi_offset 14, -4
  81 0002 82B0     		sub	sp, sp, #8
  82              		.cfi_def_cfa_offset 16
  83 0004 00AF     		add	r7, sp, #0
  84              		.cfi_def_cfa_register 7
  85 0006 7860     		str	r0, [r7, #4]
 108:Generated_Source\PSoC5/spi_done.c ****     /* For all we know the interrupt is active. */
 109:Generated_Source\PSoC5/spi_done.c ****     spi_done_Disable();
  86              		.loc 1 109 0
  87 0008 FFF7FEFF 		bl	spi_done_Disable
 110:Generated_Source\PSoC5/spi_done.c **** 
 111:Generated_Source\PSoC5/spi_done.c ****     /* Set the ISR to point to the spi_done Interrupt. */
 112:Generated_Source\PSoC5/spi_done.c ****     spi_done_SetVector(address);
  88              		.loc 1 112 0
  89 000c 7868     		ldr	r0, [r7, #4]
  90 000e FFF7FEFF 		bl	spi_done_SetVector
 113:Generated_Source\PSoC5/spi_done.c **** 
 114:Generated_Source\PSoC5/spi_done.c ****     /* Set the priority. */
 115:Generated_Source\PSoC5/spi_done.c ****     spi_done_SetPriority((uint8)spi_done_INTC_PRIOR_NUMBER);
  91              		.loc 1 115 0
  92 0012 0720     		movs	r0, #7
  93 0014 FFF7FEFF 		bl	spi_done_SetPriority
 116:Generated_Source\PSoC5/spi_done.c **** 
 117:Generated_Source\PSoC5/spi_done.c ****     /* Enable it. */
 118:Generated_Source\PSoC5/spi_done.c ****     spi_done_Enable();
  94              		.loc 1 118 0
  95 0018 FFF7FEFF 		bl	spi_done_Enable
 119:Generated_Source\PSoC5/spi_done.c **** }
  96              		.loc 1 119 0
  97 001c 00BF     		nop
  98 001e 0837     		adds	r7, r7, #8
  99              		.cfi_def_cfa_offset 8
 100 0020 BD46     		mov	sp, r7
 101              		.cfi_def_cfa_register 13
 102              		@ sp needed
 103 0022 80BD     		pop	{r7, pc}
 104              		.cfi_endproc
 105              	.LFE1:
 106              		.size	spi_done_StartEx, .-spi_done_StartEx
 107              		.section	.text.spi_done_Stop,"ax",%progbits
 108              		.align	2
 109              		.global	spi_done_Stop
ARM GAS  C:\Users\Matthew\AppData\Local\Temp\ccwjZYHX.s 			page 5


 110              		.thumb
 111              		.thumb_func
 112              		.type	spi_done_Stop, %function
 113              	spi_done_Stop:
 114              	.LFB2:
 120:Generated_Source\PSoC5/spi_done.c **** 
 121:Generated_Source\PSoC5/spi_done.c **** 
 122:Generated_Source\PSoC5/spi_done.c **** /*******************************************************************************
 123:Generated_Source\PSoC5/spi_done.c **** * Function Name: spi_done_Stop
 124:Generated_Source\PSoC5/spi_done.c **** ********************************************************************************
 125:Generated_Source\PSoC5/spi_done.c **** *
 126:Generated_Source\PSoC5/spi_done.c **** * Summary:
 127:Generated_Source\PSoC5/spi_done.c **** *   Disables and removes the interrupt.
 128:Generated_Source\PSoC5/spi_done.c **** *
 129:Generated_Source\PSoC5/spi_done.c **** * Parameters:  
 130:Generated_Source\PSoC5/spi_done.c **** *   None
 131:Generated_Source\PSoC5/spi_done.c **** *
 132:Generated_Source\PSoC5/spi_done.c **** * Return:
 133:Generated_Source\PSoC5/spi_done.c **** *   None
 134:Generated_Source\PSoC5/spi_done.c **** *
 135:Generated_Source\PSoC5/spi_done.c **** *******************************************************************************/
 136:Generated_Source\PSoC5/spi_done.c **** void spi_done_Stop(void)
 137:Generated_Source\PSoC5/spi_done.c **** {
 115              		.loc 1 137 0
 116              		.cfi_startproc
 117              		@ args = 0, pretend = 0, frame = 0
 118              		@ frame_needed = 1, uses_anonymous_args = 0
 119 0000 80B5     		push	{r7, lr}
 120              		.cfi_def_cfa_offset 8
 121              		.cfi_offset 7, -8
 122              		.cfi_offset 14, -4
 123 0002 00AF     		add	r7, sp, #0
 124              		.cfi_def_cfa_register 7
 138:Generated_Source\PSoC5/spi_done.c ****     /* Disable this interrupt. */
 139:Generated_Source\PSoC5/spi_done.c ****     spi_done_Disable();
 125              		.loc 1 139 0
 126 0004 FFF7FEFF 		bl	spi_done_Disable
 140:Generated_Source\PSoC5/spi_done.c **** 
 141:Generated_Source\PSoC5/spi_done.c ****     /* Set the ISR to point to the passive one. */
 142:Generated_Source\PSoC5/spi_done.c ****     spi_done_SetVector(&IntDefaultHandler);
 127              		.loc 1 142 0
 128 0008 0248     		ldr	r0, .L6
 129 000a FFF7FEFF 		bl	spi_done_SetVector
 143:Generated_Source\PSoC5/spi_done.c **** }
 130              		.loc 1 143 0
 131 000e 00BF     		nop
 132 0010 80BD     		pop	{r7, pc}
 133              	.L7:
 134 0012 00BF     		.align	2
 135              	.L6:
 136 0014 00000000 		.word	IntDefaultHandler
 137              		.cfi_endproc
 138              	.LFE2:
 139              		.size	spi_done_Stop, .-spi_done_Stop
 140              		.section	.text.spi_done_Interrupt,"ax",%progbits
 141              		.align	2
 142              		.global	spi_done_Interrupt
ARM GAS  C:\Users\Matthew\AppData\Local\Temp\ccwjZYHX.s 			page 6


 143              		.thumb
 144              		.thumb_func
 145              		.type	spi_done_Interrupt, %function
 146              	spi_done_Interrupt:
 147              	.LFB3:
 144:Generated_Source\PSoC5/spi_done.c **** 
 145:Generated_Source\PSoC5/spi_done.c **** 
 146:Generated_Source\PSoC5/spi_done.c **** /*******************************************************************************
 147:Generated_Source\PSoC5/spi_done.c **** * Function Name: spi_done_Interrupt
 148:Generated_Source\PSoC5/spi_done.c **** ********************************************************************************
 149:Generated_Source\PSoC5/spi_done.c **** *
 150:Generated_Source\PSoC5/spi_done.c **** * Summary:
 151:Generated_Source\PSoC5/spi_done.c **** *   The default Interrupt Service Routine for spi_done.
 152:Generated_Source\PSoC5/spi_done.c **** *
 153:Generated_Source\PSoC5/spi_done.c **** *   Add custom code between the coments to keep the next version of this file
 154:Generated_Source\PSoC5/spi_done.c **** *   from over writting your code.
 155:Generated_Source\PSoC5/spi_done.c **** *
 156:Generated_Source\PSoC5/spi_done.c **** * Parameters:  
 157:Generated_Source\PSoC5/spi_done.c **** *
 158:Generated_Source\PSoC5/spi_done.c **** * Return:
 159:Generated_Source\PSoC5/spi_done.c **** *   None
 160:Generated_Source\PSoC5/spi_done.c **** *
 161:Generated_Source\PSoC5/spi_done.c **** *******************************************************************************/
 162:Generated_Source\PSoC5/spi_done.c **** CY_ISR(spi_done_Interrupt)
 163:Generated_Source\PSoC5/spi_done.c **** {
 148              		.loc 1 163 0
 149              		.cfi_startproc
 150              		@ args = 0, pretend = 0, frame = 0
 151              		@ frame_needed = 1, uses_anonymous_args = 0
 152 0000 80B5     		push	{r7, lr}
 153              		.cfi_def_cfa_offset 8
 154              		.cfi_offset 7, -8
 155              		.cfi_offset 14, -4
 156 0002 00AF     		add	r7, sp, #0
 157              		.cfi_def_cfa_register 7
 164:Generated_Source\PSoC5/spi_done.c ****     #ifdef spi_done_INTERRUPT_INTERRUPT_CALLBACK
 165:Generated_Source\PSoC5/spi_done.c ****         spi_done_Interrupt_InterruptCallback();
 166:Generated_Source\PSoC5/spi_done.c ****     #endif /* spi_done_INTERRUPT_INTERRUPT_CALLBACK */ 
 167:Generated_Source\PSoC5/spi_done.c **** 
 168:Generated_Source\PSoC5/spi_done.c ****     /*  Place your Interrupt code here. */
 169:Generated_Source\PSoC5/spi_done.c ****     /* `#START spi_done_Interrupt` */
 170:Generated_Source\PSoC5/spi_done.c ****     spi_done = 1;
 158              		.loc 1 170 0
 159 0004 034B     		ldr	r3, .L9
 160 0006 0122     		movs	r2, #1
 161 0008 1A60     		str	r2, [r3]
 171:Generated_Source\PSoC5/spi_done.c ****     RED_LED_Write(1);
 162              		.loc 1 171 0
 163 000a 0120     		movs	r0, #1
 164 000c FFF7FEFF 		bl	RED_LED_Write
 172:Generated_Source\PSoC5/spi_done.c ****     /* `#END` */
 173:Generated_Source\PSoC5/spi_done.c **** }
 165              		.loc 1 173 0
 166 0010 00BF     		nop
 167 0012 80BD     		pop	{r7, pc}
 168              	.L10:
 169              		.align	2
ARM GAS  C:\Users\Matthew\AppData\Local\Temp\ccwjZYHX.s 			page 7


 170              	.L9:
 171 0014 00000000 		.word	spi_done
 172              		.cfi_endproc
 173              	.LFE3:
 174              		.size	spi_done_Interrupt, .-spi_done_Interrupt
 175              		.section	.text.spi_done_SetVector,"ax",%progbits
 176              		.align	2
 177              		.global	spi_done_SetVector
 178              		.thumb
 179              		.thumb_func
 180              		.type	spi_done_SetVector, %function
 181              	spi_done_SetVector:
 182              	.LFB4:
 174:Generated_Source\PSoC5/spi_done.c **** 
 175:Generated_Source\PSoC5/spi_done.c **** 
 176:Generated_Source\PSoC5/spi_done.c **** /*******************************************************************************
 177:Generated_Source\PSoC5/spi_done.c **** * Function Name: spi_done_SetVector
 178:Generated_Source\PSoC5/spi_done.c **** ********************************************************************************
 179:Generated_Source\PSoC5/spi_done.c **** *
 180:Generated_Source\PSoC5/spi_done.c **** * Summary:
 181:Generated_Source\PSoC5/spi_done.c **** *   Change the ISR vector for the Interrupt. Note calling spi_done_Start
 182:Generated_Source\PSoC5/spi_done.c **** *   will override any effect this method would have had. To set the vector 
 183:Generated_Source\PSoC5/spi_done.c **** *   before the component has been started use spi_done_StartEx instead.
 184:Generated_Source\PSoC5/spi_done.c **** * 
 185:Generated_Source\PSoC5/spi_done.c **** *   When defining ISR functions, the CY_ISR and CY_ISR_PROTO macros should be 
 186:Generated_Source\PSoC5/spi_done.c **** *   used to provide consistent definition across compilers:
 187:Generated_Source\PSoC5/spi_done.c **** *
 188:Generated_Source\PSoC5/spi_done.c **** *   Function definition example:
 189:Generated_Source\PSoC5/spi_done.c **** *   CY_ISR(MyISR)
 190:Generated_Source\PSoC5/spi_done.c **** *   {
 191:Generated_Source\PSoC5/spi_done.c **** *   }
 192:Generated_Source\PSoC5/spi_done.c **** *
 193:Generated_Source\PSoC5/spi_done.c **** *   Function prototype example:
 194:Generated_Source\PSoC5/spi_done.c **** *     CY_ISR_PROTO(MyISR);
 195:Generated_Source\PSoC5/spi_done.c **** *
 196:Generated_Source\PSoC5/spi_done.c **** * Parameters:
 197:Generated_Source\PSoC5/spi_done.c **** *   address: Address of the ISR to set in the interrupt vector table.
 198:Generated_Source\PSoC5/spi_done.c **** *
 199:Generated_Source\PSoC5/spi_done.c **** * Return:
 200:Generated_Source\PSoC5/spi_done.c **** *   None
 201:Generated_Source\PSoC5/spi_done.c **** *
 202:Generated_Source\PSoC5/spi_done.c **** *******************************************************************************/
 203:Generated_Source\PSoC5/spi_done.c **** void spi_done_SetVector(cyisraddress address)
 204:Generated_Source\PSoC5/spi_done.c **** {
 183              		.loc 1 204 0
 184              		.cfi_startproc
 185              		@ args = 0, pretend = 0, frame = 16
 186              		@ frame_needed = 1, uses_anonymous_args = 0
 187              		@ link register save eliminated.
 188 0000 80B4     		push	{r7}
 189              		.cfi_def_cfa_offset 4
 190              		.cfi_offset 7, -4
 191 0002 85B0     		sub	sp, sp, #20
 192              		.cfi_def_cfa_offset 24
 193 0004 00AF     		add	r7, sp, #0
 194              		.cfi_def_cfa_register 7
 195 0006 7860     		str	r0, [r7, #4]
ARM GAS  C:\Users\Matthew\AppData\Local\Temp\ccwjZYHX.s 			page 8


 205:Generated_Source\PSoC5/spi_done.c ****     cyisraddress * ramVectorTable;
 206:Generated_Source\PSoC5/spi_done.c **** 
 207:Generated_Source\PSoC5/spi_done.c ****     ramVectorTable = (cyisraddress *) *CYINT_VECT_TABLE;
 196              		.loc 1 207 0
 197 0008 054B     		ldr	r3, .L12
 198 000a 1B68     		ldr	r3, [r3]
 199 000c FB60     		str	r3, [r7, #12]
 208:Generated_Source\PSoC5/spi_done.c **** 
 209:Generated_Source\PSoC5/spi_done.c ****     ramVectorTable[CYINT_IRQ_BASE + (uint32)spi_done__INTC_NUMBER] = address;
 200              		.loc 1 209 0
 201 000e FB68     		ldr	r3, [r7, #12]
 202 0010 4833     		adds	r3, r3, #72
 203 0012 7A68     		ldr	r2, [r7, #4]
 204 0014 1A60     		str	r2, [r3]
 210:Generated_Source\PSoC5/spi_done.c **** }
 205              		.loc 1 210 0
 206 0016 00BF     		nop
 207 0018 1437     		adds	r7, r7, #20
 208              		.cfi_def_cfa_offset 4
 209 001a BD46     		mov	sp, r7
 210              		.cfi_def_cfa_register 13
 211              		@ sp needed
 212 001c 80BC     		pop	{r7}
 213              		.cfi_restore 7
 214              		.cfi_def_cfa_offset 0
 215 001e 7047     		bx	lr
 216              	.L13:
 217              		.align	2
 218              	.L12:
 219 0020 08ED00E0 		.word	-536810232
 220              		.cfi_endproc
 221              	.LFE4:
 222              		.size	spi_done_SetVector, .-spi_done_SetVector
 223              		.section	.text.spi_done_GetVector,"ax",%progbits
 224              		.align	2
 225              		.global	spi_done_GetVector
 226              		.thumb
 227              		.thumb_func
 228              		.type	spi_done_GetVector, %function
 229              	spi_done_GetVector:
 230              	.LFB5:
 211:Generated_Source\PSoC5/spi_done.c **** 
 212:Generated_Source\PSoC5/spi_done.c **** 
 213:Generated_Source\PSoC5/spi_done.c **** /*******************************************************************************
 214:Generated_Source\PSoC5/spi_done.c **** * Function Name: spi_done_GetVector
 215:Generated_Source\PSoC5/spi_done.c **** ********************************************************************************
 216:Generated_Source\PSoC5/spi_done.c **** *
 217:Generated_Source\PSoC5/spi_done.c **** * Summary:
 218:Generated_Source\PSoC5/spi_done.c **** *   Gets the "address" of the current ISR vector for the Interrupt.
 219:Generated_Source\PSoC5/spi_done.c **** *
 220:Generated_Source\PSoC5/spi_done.c **** * Parameters:
 221:Generated_Source\PSoC5/spi_done.c **** *   None
 222:Generated_Source\PSoC5/spi_done.c **** *
 223:Generated_Source\PSoC5/spi_done.c **** * Return:
 224:Generated_Source\PSoC5/spi_done.c **** *   Address of the ISR in the interrupt vector table.
 225:Generated_Source\PSoC5/spi_done.c **** *
 226:Generated_Source\PSoC5/spi_done.c **** *******************************************************************************/
ARM GAS  C:\Users\Matthew\AppData\Local\Temp\ccwjZYHX.s 			page 9


 227:Generated_Source\PSoC5/spi_done.c **** cyisraddress spi_done_GetVector(void)
 228:Generated_Source\PSoC5/spi_done.c **** {
 231              		.loc 1 228 0
 232              		.cfi_startproc
 233              		@ args = 0, pretend = 0, frame = 8
 234              		@ frame_needed = 1, uses_anonymous_args = 0
 235              		@ link register save eliminated.
 236 0000 80B4     		push	{r7}
 237              		.cfi_def_cfa_offset 4
 238              		.cfi_offset 7, -4
 239 0002 83B0     		sub	sp, sp, #12
 240              		.cfi_def_cfa_offset 16
 241 0004 00AF     		add	r7, sp, #0
 242              		.cfi_def_cfa_register 7
 229:Generated_Source\PSoC5/spi_done.c ****     cyisraddress * ramVectorTable;
 230:Generated_Source\PSoC5/spi_done.c **** 
 231:Generated_Source\PSoC5/spi_done.c ****     ramVectorTable = (cyisraddress *) *CYINT_VECT_TABLE;
 243              		.loc 1 231 0
 244 0006 054B     		ldr	r3, .L16
 245 0008 1B68     		ldr	r3, [r3]
 246 000a 7B60     		str	r3, [r7, #4]
 232:Generated_Source\PSoC5/spi_done.c **** 
 233:Generated_Source\PSoC5/spi_done.c ****     return ramVectorTable[CYINT_IRQ_BASE + (uint32)spi_done__INTC_NUMBER];
 247              		.loc 1 233 0
 248 000c 7B68     		ldr	r3, [r7, #4]
 249 000e 9B6C     		ldr	r3, [r3, #72]
 234:Generated_Source\PSoC5/spi_done.c **** }
 250              		.loc 1 234 0
 251 0010 1846     		mov	r0, r3
 252 0012 0C37     		adds	r7, r7, #12
 253              		.cfi_def_cfa_offset 4
 254 0014 BD46     		mov	sp, r7
 255              		.cfi_def_cfa_register 13
 256              		@ sp needed
 257 0016 80BC     		pop	{r7}
 258              		.cfi_restore 7
 259              		.cfi_def_cfa_offset 0
 260 0018 7047     		bx	lr
 261              	.L17:
 262 001a 00BF     		.align	2
 263              	.L16:
 264 001c 08ED00E0 		.word	-536810232
 265              		.cfi_endproc
 266              	.LFE5:
 267              		.size	spi_done_GetVector, .-spi_done_GetVector
 268              		.section	.text.spi_done_SetPriority,"ax",%progbits
 269              		.align	2
 270              		.global	spi_done_SetPriority
 271              		.thumb
 272              		.thumb_func
 273              		.type	spi_done_SetPriority, %function
 274              	spi_done_SetPriority:
 275              	.LFB6:
 235:Generated_Source\PSoC5/spi_done.c **** 
 236:Generated_Source\PSoC5/spi_done.c **** 
 237:Generated_Source\PSoC5/spi_done.c **** /*******************************************************************************
 238:Generated_Source\PSoC5/spi_done.c **** * Function Name: spi_done_SetPriority
ARM GAS  C:\Users\Matthew\AppData\Local\Temp\ccwjZYHX.s 			page 10


 239:Generated_Source\PSoC5/spi_done.c **** ********************************************************************************
 240:Generated_Source\PSoC5/spi_done.c **** *
 241:Generated_Source\PSoC5/spi_done.c **** * Summary:
 242:Generated_Source\PSoC5/spi_done.c **** *   Sets the Priority of the Interrupt. 
 243:Generated_Source\PSoC5/spi_done.c **** *
 244:Generated_Source\PSoC5/spi_done.c **** *   Note calling spi_done_Start or spi_done_StartEx will 
 245:Generated_Source\PSoC5/spi_done.c **** *   override any effect this API would have had. This API should only be called
 246:Generated_Source\PSoC5/spi_done.c **** *   after spi_done_Start or spi_done_StartEx has been called. 
 247:Generated_Source\PSoC5/spi_done.c **** *   To set the initial priority for the component, use the Design-Wide Resources
 248:Generated_Source\PSoC5/spi_done.c **** *   Interrupt Editor.
 249:Generated_Source\PSoC5/spi_done.c **** *
 250:Generated_Source\PSoC5/spi_done.c **** *   Note This API has no effect on Non-maskable interrupt NMI).
 251:Generated_Source\PSoC5/spi_done.c **** *
 252:Generated_Source\PSoC5/spi_done.c **** * Parameters:
 253:Generated_Source\PSoC5/spi_done.c **** *   priority: Priority of the interrupt, 0 being the highest priority
 254:Generated_Source\PSoC5/spi_done.c **** *             PSoC 3 and PSoC 5LP: Priority is from 0 to 7.
 255:Generated_Source\PSoC5/spi_done.c **** *             PSoC 4: Priority is from 0 to 3.
 256:Generated_Source\PSoC5/spi_done.c **** *
 257:Generated_Source\PSoC5/spi_done.c **** * Return:
 258:Generated_Source\PSoC5/spi_done.c **** *   None
 259:Generated_Source\PSoC5/spi_done.c **** *
 260:Generated_Source\PSoC5/spi_done.c **** *******************************************************************************/
 261:Generated_Source\PSoC5/spi_done.c **** void spi_done_SetPriority(uint8 priority)
 262:Generated_Source\PSoC5/spi_done.c **** {
 276              		.loc 1 262 0
 277              		.cfi_startproc
 278              		@ args = 0, pretend = 0, frame = 8
 279              		@ frame_needed = 1, uses_anonymous_args = 0
 280              		@ link register save eliminated.
 281 0000 80B4     		push	{r7}
 282              		.cfi_def_cfa_offset 4
 283              		.cfi_offset 7, -4
 284 0002 83B0     		sub	sp, sp, #12
 285              		.cfi_def_cfa_offset 16
 286 0004 00AF     		add	r7, sp, #0
 287              		.cfi_def_cfa_register 7
 288 0006 0346     		mov	r3, r0
 289 0008 FB71     		strb	r3, [r7, #7]
 263:Generated_Source\PSoC5/spi_done.c ****     *spi_done_INTC_PRIOR = priority << 5;
 290              		.loc 1 263 0
 291 000a 054A     		ldr	r2, .L19
 292 000c FB79     		ldrb	r3, [r7, #7]
 293 000e 5B01     		lsls	r3, r3, #5
 294 0010 DBB2     		uxtb	r3, r3
 295 0012 1370     		strb	r3, [r2]
 264:Generated_Source\PSoC5/spi_done.c **** }
 296              		.loc 1 264 0
 297 0014 00BF     		nop
 298 0016 0C37     		adds	r7, r7, #12
 299              		.cfi_def_cfa_offset 4
 300 0018 BD46     		mov	sp, r7
 301              		.cfi_def_cfa_register 13
 302              		@ sp needed
 303 001a 80BC     		pop	{r7}
 304              		.cfi_restore 7
 305              		.cfi_def_cfa_offset 0
 306 001c 7047     		bx	lr
ARM GAS  C:\Users\Matthew\AppData\Local\Temp\ccwjZYHX.s 			page 11


 307              	.L20:
 308 001e 00BF     		.align	2
 309              	.L19:
 310 0020 02E400E0 		.word	-536812542
 311              		.cfi_endproc
 312              	.LFE6:
 313              		.size	spi_done_SetPriority, .-spi_done_SetPriority
 314              		.section	.text.spi_done_GetPriority,"ax",%progbits
 315              		.align	2
 316              		.global	spi_done_GetPriority
 317              		.thumb
 318              		.thumb_func
 319              		.type	spi_done_GetPriority, %function
 320              	spi_done_GetPriority:
 321              	.LFB7:
 265:Generated_Source\PSoC5/spi_done.c **** 
 266:Generated_Source\PSoC5/spi_done.c **** 
 267:Generated_Source\PSoC5/spi_done.c **** /*******************************************************************************
 268:Generated_Source\PSoC5/spi_done.c **** * Function Name: spi_done_GetPriority
 269:Generated_Source\PSoC5/spi_done.c **** ********************************************************************************
 270:Generated_Source\PSoC5/spi_done.c **** *
 271:Generated_Source\PSoC5/spi_done.c **** * Summary:
 272:Generated_Source\PSoC5/spi_done.c **** *   Gets the Priority of the Interrupt.
 273:Generated_Source\PSoC5/spi_done.c **** *
 274:Generated_Source\PSoC5/spi_done.c **** * Parameters:
 275:Generated_Source\PSoC5/spi_done.c **** *   None
 276:Generated_Source\PSoC5/spi_done.c **** *
 277:Generated_Source\PSoC5/spi_done.c **** * Return:
 278:Generated_Source\PSoC5/spi_done.c **** *   Priority of the interrupt, 0 being the highest priority
 279:Generated_Source\PSoC5/spi_done.c **** *    PSoC 3 and PSoC 5LP: Priority is from 0 to 7.
 280:Generated_Source\PSoC5/spi_done.c **** *    PSoC 4: Priority is from 0 to 3.
 281:Generated_Source\PSoC5/spi_done.c **** *
 282:Generated_Source\PSoC5/spi_done.c **** *******************************************************************************/
 283:Generated_Source\PSoC5/spi_done.c **** uint8 spi_done_GetPriority(void)
 284:Generated_Source\PSoC5/spi_done.c **** {
 322              		.loc 1 284 0
 323              		.cfi_startproc
 324              		@ args = 0, pretend = 0, frame = 8
 325              		@ frame_needed = 1, uses_anonymous_args = 0
 326              		@ link register save eliminated.
 327 0000 80B4     		push	{r7}
 328              		.cfi_def_cfa_offset 4
 329              		.cfi_offset 7, -4
 330 0002 83B0     		sub	sp, sp, #12
 331              		.cfi_def_cfa_offset 16
 332 0004 00AF     		add	r7, sp, #0
 333              		.cfi_def_cfa_register 7
 285:Generated_Source\PSoC5/spi_done.c ****     uint8 priority;
 286:Generated_Source\PSoC5/spi_done.c **** 
 287:Generated_Source\PSoC5/spi_done.c **** 
 288:Generated_Source\PSoC5/spi_done.c ****     priority = *spi_done_INTC_PRIOR >> 5;
 334              		.loc 1 288 0
 335 0006 054B     		ldr	r3, .L23
 336 0008 1B78     		ldrb	r3, [r3]
 337 000a DBB2     		uxtb	r3, r3
 338 000c 5B09     		lsrs	r3, r3, #5
 339 000e FB71     		strb	r3, [r7, #7]
ARM GAS  C:\Users\Matthew\AppData\Local\Temp\ccwjZYHX.s 			page 12


 289:Generated_Source\PSoC5/spi_done.c **** 
 290:Generated_Source\PSoC5/spi_done.c ****     return priority;
 340              		.loc 1 290 0
 341 0010 FB79     		ldrb	r3, [r7, #7]	@ zero_extendqisi2
 291:Generated_Source\PSoC5/spi_done.c **** }
 342              		.loc 1 291 0
 343 0012 1846     		mov	r0, r3
 344 0014 0C37     		adds	r7, r7, #12
 345              		.cfi_def_cfa_offset 4
 346 0016 BD46     		mov	sp, r7
 347              		.cfi_def_cfa_register 13
 348              		@ sp needed
 349 0018 80BC     		pop	{r7}
 350              		.cfi_restore 7
 351              		.cfi_def_cfa_offset 0
 352 001a 7047     		bx	lr
 353              	.L24:
 354              		.align	2
 355              	.L23:
 356 001c 02E400E0 		.word	-536812542
 357              		.cfi_endproc
 358              	.LFE7:
 359              		.size	spi_done_GetPriority, .-spi_done_GetPriority
 360              		.section	.text.spi_done_Enable,"ax",%progbits
 361              		.align	2
 362              		.global	spi_done_Enable
 363              		.thumb
 364              		.thumb_func
 365              		.type	spi_done_Enable, %function
 366              	spi_done_Enable:
 367              	.LFB8:
 292:Generated_Source\PSoC5/spi_done.c **** 
 293:Generated_Source\PSoC5/spi_done.c **** 
 294:Generated_Source\PSoC5/spi_done.c **** /*******************************************************************************
 295:Generated_Source\PSoC5/spi_done.c **** * Function Name: spi_done_Enable
 296:Generated_Source\PSoC5/spi_done.c **** ********************************************************************************
 297:Generated_Source\PSoC5/spi_done.c **** *
 298:Generated_Source\PSoC5/spi_done.c **** * Summary:
 299:Generated_Source\PSoC5/spi_done.c **** *   Enables the interrupt to the interrupt controller. Do not call this function
 300:Generated_Source\PSoC5/spi_done.c **** *   unless ISR_Start() has been called or the functionality of the ISR_Start() 
 301:Generated_Source\PSoC5/spi_done.c **** *   function, which sets the vector and the priority, has been called.
 302:Generated_Source\PSoC5/spi_done.c **** *
 303:Generated_Source\PSoC5/spi_done.c **** * Parameters:
 304:Generated_Source\PSoC5/spi_done.c **** *   None
 305:Generated_Source\PSoC5/spi_done.c **** *
 306:Generated_Source\PSoC5/spi_done.c **** * Return:
 307:Generated_Source\PSoC5/spi_done.c **** *   None
 308:Generated_Source\PSoC5/spi_done.c **** *
 309:Generated_Source\PSoC5/spi_done.c **** *******************************************************************************/
 310:Generated_Source\PSoC5/spi_done.c **** void spi_done_Enable(void)
 311:Generated_Source\PSoC5/spi_done.c **** {
 368              		.loc 1 311 0
 369              		.cfi_startproc
 370              		@ args = 0, pretend = 0, frame = 0
 371              		@ frame_needed = 1, uses_anonymous_args = 0
 372              		@ link register save eliminated.
 373 0000 80B4     		push	{r7}
ARM GAS  C:\Users\Matthew\AppData\Local\Temp\ccwjZYHX.s 			page 13


 374              		.cfi_def_cfa_offset 4
 375              		.cfi_offset 7, -4
 376 0002 00AF     		add	r7, sp, #0
 377              		.cfi_def_cfa_register 7
 312:Generated_Source\PSoC5/spi_done.c ****     /* Enable the general interrupt. */
 313:Generated_Source\PSoC5/spi_done.c ****     *spi_done_INTC_SET_EN = spi_done__INTC_MASK;
 378              		.loc 1 313 0
 379 0004 034B     		ldr	r3, .L26
 380 0006 0422     		movs	r2, #4
 381 0008 1A60     		str	r2, [r3]
 314:Generated_Source\PSoC5/spi_done.c **** }
 382              		.loc 1 314 0
 383 000a 00BF     		nop
 384 000c BD46     		mov	sp, r7
 385              		.cfi_def_cfa_register 13
 386              		@ sp needed
 387 000e 80BC     		pop	{r7}
 388              		.cfi_restore 7
 389              		.cfi_def_cfa_offset 0
 390 0010 7047     		bx	lr
 391              	.L27:
 392 0012 00BF     		.align	2
 393              	.L26:
 394 0014 00E100E0 		.word	-536813312
 395              		.cfi_endproc
 396              	.LFE8:
 397              		.size	spi_done_Enable, .-spi_done_Enable
 398              		.section	.text.spi_done_GetState,"ax",%progbits
 399              		.align	2
 400              		.global	spi_done_GetState
 401              		.thumb
 402              		.thumb_func
 403              		.type	spi_done_GetState, %function
 404              	spi_done_GetState:
 405              	.LFB9:
 315:Generated_Source\PSoC5/spi_done.c **** 
 316:Generated_Source\PSoC5/spi_done.c **** 
 317:Generated_Source\PSoC5/spi_done.c **** /*******************************************************************************
 318:Generated_Source\PSoC5/spi_done.c **** * Function Name: spi_done_GetState
 319:Generated_Source\PSoC5/spi_done.c **** ********************************************************************************
 320:Generated_Source\PSoC5/spi_done.c **** *
 321:Generated_Source\PSoC5/spi_done.c **** * Summary:
 322:Generated_Source\PSoC5/spi_done.c **** *   Gets the state (enabled, disabled) of the Interrupt.
 323:Generated_Source\PSoC5/spi_done.c **** *
 324:Generated_Source\PSoC5/spi_done.c **** * Parameters:
 325:Generated_Source\PSoC5/spi_done.c **** *   None
 326:Generated_Source\PSoC5/spi_done.c **** *
 327:Generated_Source\PSoC5/spi_done.c **** * Return:
 328:Generated_Source\PSoC5/spi_done.c **** *   1 if enabled, 0 if disabled.
 329:Generated_Source\PSoC5/spi_done.c **** *
 330:Generated_Source\PSoC5/spi_done.c **** *******************************************************************************/
 331:Generated_Source\PSoC5/spi_done.c **** uint8 spi_done_GetState(void)
 332:Generated_Source\PSoC5/spi_done.c **** {
 406              		.loc 1 332 0
 407              		.cfi_startproc
 408              		@ args = 0, pretend = 0, frame = 0
 409              		@ frame_needed = 1, uses_anonymous_args = 0
ARM GAS  C:\Users\Matthew\AppData\Local\Temp\ccwjZYHX.s 			page 14


 410              		@ link register save eliminated.
 411 0000 80B4     		push	{r7}
 412              		.cfi_def_cfa_offset 4
 413              		.cfi_offset 7, -4
 414 0002 00AF     		add	r7, sp, #0
 415              		.cfi_def_cfa_register 7
 333:Generated_Source\PSoC5/spi_done.c ****     /* Get the state of the general interrupt. */
 334:Generated_Source\PSoC5/spi_done.c ****     return ((*spi_done_INTC_SET_EN & (uint32)spi_done__INTC_MASK) != 0u) ? 1u:0u;
 416              		.loc 1 334 0
 417 0004 064B     		ldr	r3, .L32
 418 0006 1B68     		ldr	r3, [r3]
 419 0008 03F00403 		and	r3, r3, #4
 420 000c 002B     		cmp	r3, #0
 421 000e 01D0     		beq	.L29
 422              		.loc 1 334 0 is_stmt 0 discriminator 1
 423 0010 0123     		movs	r3, #1
 424 0012 00E0     		b	.L30
 425              	.L29:
 426              		.loc 1 334 0 discriminator 2
 427 0014 0023     		movs	r3, #0
 428              	.L30:
 335:Generated_Source\PSoC5/spi_done.c **** }
 429              		.loc 1 335 0 is_stmt 1 discriminator 4
 430 0016 1846     		mov	r0, r3
 431 0018 BD46     		mov	sp, r7
 432              		.cfi_def_cfa_register 13
 433              		@ sp needed
 434 001a 80BC     		pop	{r7}
 435              		.cfi_restore 7
 436              		.cfi_def_cfa_offset 0
 437 001c 7047     		bx	lr
 438              	.L33:
 439 001e 00BF     		.align	2
 440              	.L32:
 441 0020 00E100E0 		.word	-536813312
 442              		.cfi_endproc
 443              	.LFE9:
 444              		.size	spi_done_GetState, .-spi_done_GetState
 445              		.section	.text.spi_done_Disable,"ax",%progbits
 446              		.align	2
 447              		.global	spi_done_Disable
 448              		.thumb
 449              		.thumb_func
 450              		.type	spi_done_Disable, %function
 451              	spi_done_Disable:
 452              	.LFB10:
 336:Generated_Source\PSoC5/spi_done.c **** 
 337:Generated_Source\PSoC5/spi_done.c **** 
 338:Generated_Source\PSoC5/spi_done.c **** /*******************************************************************************
 339:Generated_Source\PSoC5/spi_done.c **** * Function Name: spi_done_Disable
 340:Generated_Source\PSoC5/spi_done.c **** ********************************************************************************
 341:Generated_Source\PSoC5/spi_done.c **** *
 342:Generated_Source\PSoC5/spi_done.c **** * Summary:
 343:Generated_Source\PSoC5/spi_done.c **** *   Disables the Interrupt in the interrupt controller.
 344:Generated_Source\PSoC5/spi_done.c **** *
 345:Generated_Source\PSoC5/spi_done.c **** * Parameters:
 346:Generated_Source\PSoC5/spi_done.c **** *   None
ARM GAS  C:\Users\Matthew\AppData\Local\Temp\ccwjZYHX.s 			page 15


 347:Generated_Source\PSoC5/spi_done.c **** *
 348:Generated_Source\PSoC5/spi_done.c **** * Return:
 349:Generated_Source\PSoC5/spi_done.c **** *   None
 350:Generated_Source\PSoC5/spi_done.c **** *
 351:Generated_Source\PSoC5/spi_done.c **** *******************************************************************************/
 352:Generated_Source\PSoC5/spi_done.c **** void spi_done_Disable(void)
 353:Generated_Source\PSoC5/spi_done.c **** {
 453              		.loc 1 353 0
 454              		.cfi_startproc
 455              		@ args = 0, pretend = 0, frame = 0
 456              		@ frame_needed = 1, uses_anonymous_args = 0
 457              		@ link register save eliminated.
 458 0000 80B4     		push	{r7}
 459              		.cfi_def_cfa_offset 4
 460              		.cfi_offset 7, -4
 461 0002 00AF     		add	r7, sp, #0
 462              		.cfi_def_cfa_register 7
 354:Generated_Source\PSoC5/spi_done.c ****     /* Disable the general interrupt. */
 355:Generated_Source\PSoC5/spi_done.c ****     *spi_done_INTC_CLR_EN = spi_done__INTC_MASK;
 463              		.loc 1 355 0
 464 0004 034B     		ldr	r3, .L35
 465 0006 0422     		movs	r2, #4
 466 0008 1A60     		str	r2, [r3]
 356:Generated_Source\PSoC5/spi_done.c **** }
 467              		.loc 1 356 0
 468 000a 00BF     		nop
 469 000c BD46     		mov	sp, r7
 470              		.cfi_def_cfa_register 13
 471              		@ sp needed
 472 000e 80BC     		pop	{r7}
 473              		.cfi_restore 7
 474              		.cfi_def_cfa_offset 0
 475 0010 7047     		bx	lr
 476              	.L36:
 477 0012 00BF     		.align	2
 478              	.L35:
 479 0014 80E100E0 		.word	-536813184
 480              		.cfi_endproc
 481              	.LFE10:
 482              		.size	spi_done_Disable, .-spi_done_Disable
 483              		.section	.text.spi_done_SetPending,"ax",%progbits
 484              		.align	2
 485              		.global	spi_done_SetPending
 486              		.thumb
 487              		.thumb_func
 488              		.type	spi_done_SetPending, %function
 489              	spi_done_SetPending:
 490              	.LFB11:
 357:Generated_Source\PSoC5/spi_done.c **** 
 358:Generated_Source\PSoC5/spi_done.c **** 
 359:Generated_Source\PSoC5/spi_done.c **** /*******************************************************************************
 360:Generated_Source\PSoC5/spi_done.c **** * Function Name: spi_done_SetPending
 361:Generated_Source\PSoC5/spi_done.c **** ********************************************************************************
 362:Generated_Source\PSoC5/spi_done.c **** *
 363:Generated_Source\PSoC5/spi_done.c **** * Summary:
 364:Generated_Source\PSoC5/spi_done.c **** *   Causes the Interrupt to enter the pending state, a software method of
 365:Generated_Source\PSoC5/spi_done.c **** *   generating the interrupt.
ARM GAS  C:\Users\Matthew\AppData\Local\Temp\ccwjZYHX.s 			page 16


 366:Generated_Source\PSoC5/spi_done.c **** *
 367:Generated_Source\PSoC5/spi_done.c **** * Parameters:
 368:Generated_Source\PSoC5/spi_done.c **** *   None
 369:Generated_Source\PSoC5/spi_done.c **** *
 370:Generated_Source\PSoC5/spi_done.c **** * Return:
 371:Generated_Source\PSoC5/spi_done.c **** *   None
 372:Generated_Source\PSoC5/spi_done.c **** *
 373:Generated_Source\PSoC5/spi_done.c **** * Side Effects:
 374:Generated_Source\PSoC5/spi_done.c **** *   If interrupts are enabled and the interrupt is set up properly, the ISR is
 375:Generated_Source\PSoC5/spi_done.c **** *   entered (depending on the priority of this interrupt and other pending 
 376:Generated_Source\PSoC5/spi_done.c **** *   interrupts).
 377:Generated_Source\PSoC5/spi_done.c **** *
 378:Generated_Source\PSoC5/spi_done.c **** *******************************************************************************/
 379:Generated_Source\PSoC5/spi_done.c **** void spi_done_SetPending(void)
 380:Generated_Source\PSoC5/spi_done.c **** {
 491              		.loc 1 380 0
 492              		.cfi_startproc
 493              		@ args = 0, pretend = 0, frame = 0
 494              		@ frame_needed = 1, uses_anonymous_args = 0
 495              		@ link register save eliminated.
 496 0000 80B4     		push	{r7}
 497              		.cfi_def_cfa_offset 4
 498              		.cfi_offset 7, -4
 499 0002 00AF     		add	r7, sp, #0
 500              		.cfi_def_cfa_register 7
 381:Generated_Source\PSoC5/spi_done.c ****     *spi_done_INTC_SET_PD = spi_done__INTC_MASK;
 501              		.loc 1 381 0
 502 0004 034B     		ldr	r3, .L38
 503 0006 0422     		movs	r2, #4
 504 0008 1A60     		str	r2, [r3]
 382:Generated_Source\PSoC5/spi_done.c **** }
 505              		.loc 1 382 0
 506 000a 00BF     		nop
 507 000c BD46     		mov	sp, r7
 508              		.cfi_def_cfa_register 13
 509              		@ sp needed
 510 000e 80BC     		pop	{r7}
 511              		.cfi_restore 7
 512              		.cfi_def_cfa_offset 0
 513 0010 7047     		bx	lr
 514              	.L39:
 515 0012 00BF     		.align	2
 516              	.L38:
 517 0014 00E200E0 		.word	-536813056
 518              		.cfi_endproc
 519              	.LFE11:
 520              		.size	spi_done_SetPending, .-spi_done_SetPending
 521              		.section	.text.spi_done_ClearPending,"ax",%progbits
 522              		.align	2
 523              		.global	spi_done_ClearPending
 524              		.thumb
 525              		.thumb_func
 526              		.type	spi_done_ClearPending, %function
 527              	spi_done_ClearPending:
 528              	.LFB12:
 383:Generated_Source\PSoC5/spi_done.c **** 
 384:Generated_Source\PSoC5/spi_done.c **** 
ARM GAS  C:\Users\Matthew\AppData\Local\Temp\ccwjZYHX.s 			page 17


 385:Generated_Source\PSoC5/spi_done.c **** /*******************************************************************************
 386:Generated_Source\PSoC5/spi_done.c **** * Function Name: spi_done_ClearPending
 387:Generated_Source\PSoC5/spi_done.c **** ********************************************************************************
 388:Generated_Source\PSoC5/spi_done.c **** *
 389:Generated_Source\PSoC5/spi_done.c **** * Summary:
 390:Generated_Source\PSoC5/spi_done.c **** *   Clears a pending interrupt in the interrupt controller.
 391:Generated_Source\PSoC5/spi_done.c **** *
 392:Generated_Source\PSoC5/spi_done.c **** *   Note Some interrupt sources are clear-on-read and require the block 
 393:Generated_Source\PSoC5/spi_done.c **** *   interrupt/status register to be read/cleared with the appropriate block API 
 394:Generated_Source\PSoC5/spi_done.c **** *   (GPIO, UART, and so on). Otherwise the ISR will continue to remain in 
 395:Generated_Source\PSoC5/spi_done.c **** *   pending state even though the interrupt itself is cleared using this API.
 396:Generated_Source\PSoC5/spi_done.c **** *
 397:Generated_Source\PSoC5/spi_done.c **** * Parameters:
 398:Generated_Source\PSoC5/spi_done.c **** *   None
 399:Generated_Source\PSoC5/spi_done.c **** *
 400:Generated_Source\PSoC5/spi_done.c **** * Return:
 401:Generated_Source\PSoC5/spi_done.c **** *   None
 402:Generated_Source\PSoC5/spi_done.c **** *
 403:Generated_Source\PSoC5/spi_done.c **** *******************************************************************************/
 404:Generated_Source\PSoC5/spi_done.c **** void spi_done_ClearPending(void)
 405:Generated_Source\PSoC5/spi_done.c **** {
 529              		.loc 1 405 0
 530              		.cfi_startproc
 531              		@ args = 0, pretend = 0, frame = 0
 532              		@ frame_needed = 1, uses_anonymous_args = 0
 533              		@ link register save eliminated.
 534 0000 80B4     		push	{r7}
 535              		.cfi_def_cfa_offset 4
 536              		.cfi_offset 7, -4
 537 0002 00AF     		add	r7, sp, #0
 538              		.cfi_def_cfa_register 7
 406:Generated_Source\PSoC5/spi_done.c ****     *spi_done_INTC_CLR_PD = spi_done__INTC_MASK;
 539              		.loc 1 406 0
 540 0004 034B     		ldr	r3, .L41
 541 0006 0422     		movs	r2, #4
 542 0008 1A60     		str	r2, [r3]
 407:Generated_Source\PSoC5/spi_done.c **** }
 543              		.loc 1 407 0
 544 000a 00BF     		nop
 545 000c BD46     		mov	sp, r7
 546              		.cfi_def_cfa_register 13
 547              		@ sp needed
 548 000e 80BC     		pop	{r7}
 549              		.cfi_restore 7
 550              		.cfi_def_cfa_offset 0
 551 0010 7047     		bx	lr
 552              	.L42:
 553 0012 00BF     		.align	2
 554              	.L41:
 555 0014 80E200E0 		.word	-536812928
 556              		.cfi_endproc
 557              	.LFE12:
 558              		.size	spi_done_ClearPending, .-spi_done_ClearPending
 559              		.text
 560              	.Letext0:
 561              		.file 2 "Generated_Source\\PSoC5/cytypes.h"