ARM GAS  C:\Users\student\AppData\Local\Temp\cclMKz6y.s 			page 1


   1              		.syntax unified
   2              		.cpu cortex-m3
   3              		.fpu softvfp
   4              		.eabi_attribute 20, 1
   5              		.eabi_attribute 21, 1
   6              		.eabi_attribute 23, 3
   7              		.eabi_attribute 24, 1
   8              		.eabi_attribute 25, 1
   9              		.eabi_attribute 26, 1
  10              		.eabi_attribute 30, 6
  11              		.eabi_attribute 34, 1
  12              		.eabi_attribute 18, 4
  13              		.thumb
  14              		.file	"audio_isr.c"
  15              		.text
  16              	.Ltext0:
  17              		.cfi_sections	.debug_frame
  18              		.global	high
  19              		.bss
  20              		.align	2
  21              		.type	high, %object
  22              		.size	high, 4
  23              	high:
  24 0000 00000000 		.space	4
  25              		.global	c4_table_idx
  26              		.align	2
  27              		.type	c4_table_idx, %object
  28              		.size	c4_table_idx, 4
  29              	c4_table_idx:
  30 0004 00000000 		.space	4
  31              		.section	.text.audio_isr_Start,"ax",%progbits
  32              		.align	2
  33              		.global	audio_isr_Start
  34              		.thumb
  35              		.thumb_func
  36              		.type	audio_isr_Start, %function
  37              	audio_isr_Start:
  38              	.LFB0:
  39              		.file 1 ".\\Generated_Source\\PSoC5\\audio_isr.c"
   1:.\Generated_Source\PSoC5/audio_isr.c **** /*******************************************************************************
   2:.\Generated_Source\PSoC5/audio_isr.c **** * File Name: audio_isr.c  
   3:.\Generated_Source\PSoC5/audio_isr.c **** * Version 1.70
   4:.\Generated_Source\PSoC5/audio_isr.c **** *
   5:.\Generated_Source\PSoC5/audio_isr.c **** *  Description:
   6:.\Generated_Source\PSoC5/audio_isr.c **** *   API for controlling the state of an interrupt.
   7:.\Generated_Source\PSoC5/audio_isr.c **** *
   8:.\Generated_Source\PSoC5/audio_isr.c **** *
   9:.\Generated_Source\PSoC5/audio_isr.c **** *  Note:
  10:.\Generated_Source\PSoC5/audio_isr.c **** *
  11:.\Generated_Source\PSoC5/audio_isr.c **** ********************************************************************************
  12:.\Generated_Source\PSoC5/audio_isr.c **** * Copyright 2008-2015, Cypress Semiconductor Corporation.  All rights reserved.
  13:.\Generated_Source\PSoC5/audio_isr.c **** * You may use this file only in accordance with the license, terms, conditions, 
  14:.\Generated_Source\PSoC5/audio_isr.c **** * disclaimers, and limitations in the end user license agreement accompanying 
  15:.\Generated_Source\PSoC5/audio_isr.c **** * the software package with which this file was provided.
  16:.\Generated_Source\PSoC5/audio_isr.c **** *******************************************************************************/
  17:.\Generated_Source\PSoC5/audio_isr.c **** 
  18:.\Generated_Source\PSoC5/audio_isr.c **** 
ARM GAS  C:\Users\student\AppData\Local\Temp\cclMKz6y.s 			page 2


  19:.\Generated_Source\PSoC5/audio_isr.c **** #include <cydevice_trm.h>
  20:.\Generated_Source\PSoC5/audio_isr.c **** #include <CyLib.h>
  21:.\Generated_Source\PSoC5/audio_isr.c **** #include <audio_isr.h>
  22:.\Generated_Source\PSoC5/audio_isr.c **** #include "cyapicallbacks.h"
  23:.\Generated_Source\PSoC5/audio_isr.c **** 
  24:.\Generated_Source\PSoC5/audio_isr.c **** #if !defined(audio_isr__REMOVED) /* Check for removal by optimization */
  25:.\Generated_Source\PSoC5/audio_isr.c **** 
  26:.\Generated_Source\PSoC5/audio_isr.c **** /*******************************************************************************
  27:.\Generated_Source\PSoC5/audio_isr.c **** *  Place your includes, defines and code here 
  28:.\Generated_Source\PSoC5/audio_isr.c **** ********************************************************************************/
  29:.\Generated_Source\PSoC5/audio_isr.c **** /* `#START audio_isr_intc` */
  30:.\Generated_Source\PSoC5/audio_isr.c **** #include "Timer_1.h"
  31:.\Generated_Source\PSoC5/audio_isr.c **** #include "TIMER_1_ISR_PIN.h"
  32:.\Generated_Source\PSoC5/audio_isr.c **** #include "VDAC8_1.h"
  33:.\Generated_Source\PSoC5/audio_isr.c **** #include "wav_tables.h"
  34:.\Generated_Source\PSoC5/audio_isr.c **** int high = 0;
  35:.\Generated_Source\PSoC5/audio_isr.c **** int c4_table_idx = 0;
  36:.\Generated_Source\PSoC5/audio_isr.c **** /* `#END` */
  37:.\Generated_Source\PSoC5/audio_isr.c **** 
  38:.\Generated_Source\PSoC5/audio_isr.c **** #ifndef CYINT_IRQ_BASE
  39:.\Generated_Source\PSoC5/audio_isr.c **** #define CYINT_IRQ_BASE      16
  40:.\Generated_Source\PSoC5/audio_isr.c **** #endif /* CYINT_IRQ_BASE */
  41:.\Generated_Source\PSoC5/audio_isr.c **** #ifndef CYINT_VECT_TABLE
  42:.\Generated_Source\PSoC5/audio_isr.c **** #define CYINT_VECT_TABLE    ((cyisraddress **) CYREG_NVIC_VECT_OFFSET)
  43:.\Generated_Source\PSoC5/audio_isr.c **** #endif /* CYINT_VECT_TABLE */
  44:.\Generated_Source\PSoC5/audio_isr.c **** 
  45:.\Generated_Source\PSoC5/audio_isr.c **** /* Declared in startup, used to set unused interrupts to. */
  46:.\Generated_Source\PSoC5/audio_isr.c **** CY_ISR_PROTO(IntDefaultHandler);
  47:.\Generated_Source\PSoC5/audio_isr.c **** 
  48:.\Generated_Source\PSoC5/audio_isr.c **** 
  49:.\Generated_Source\PSoC5/audio_isr.c **** /*******************************************************************************
  50:.\Generated_Source\PSoC5/audio_isr.c **** * Function Name: audio_isr_Start
  51:.\Generated_Source\PSoC5/audio_isr.c **** ********************************************************************************
  52:.\Generated_Source\PSoC5/audio_isr.c **** *
  53:.\Generated_Source\PSoC5/audio_isr.c **** * Summary:
  54:.\Generated_Source\PSoC5/audio_isr.c **** *  Set up the interrupt and enable it. This function disables the interrupt, 
  55:.\Generated_Source\PSoC5/audio_isr.c **** *  sets the default interrupt vector, sets the priority from the value in the
  56:.\Generated_Source\PSoC5/audio_isr.c **** *  Design Wide Resources Interrupt Editor, then enables the interrupt to the 
  57:.\Generated_Source\PSoC5/audio_isr.c **** *  interrupt controller.
  58:.\Generated_Source\PSoC5/audio_isr.c **** *
  59:.\Generated_Source\PSoC5/audio_isr.c **** * Parameters:  
  60:.\Generated_Source\PSoC5/audio_isr.c **** *   None
  61:.\Generated_Source\PSoC5/audio_isr.c **** *
  62:.\Generated_Source\PSoC5/audio_isr.c **** * Return:
  63:.\Generated_Source\PSoC5/audio_isr.c **** *   None
  64:.\Generated_Source\PSoC5/audio_isr.c **** *
  65:.\Generated_Source\PSoC5/audio_isr.c **** *******************************************************************************/
  66:.\Generated_Source\PSoC5/audio_isr.c **** void audio_isr_Start(void)
  67:.\Generated_Source\PSoC5/audio_isr.c **** {
  40              		.loc 1 67 0
  41              		.cfi_startproc
  42              		@ args = 0, pretend = 0, frame = 0
  43              		@ frame_needed = 1, uses_anonymous_args = 0
  44 0000 80B5     		push	{r7, lr}
  45              		.cfi_def_cfa_offset 8
  46              		.cfi_offset 7, -8
  47              		.cfi_offset 14, -4
ARM GAS  C:\Users\student\AppData\Local\Temp\cclMKz6y.s 			page 3


  48 0002 00AF     		add	r7, sp, #0
  49              		.cfi_def_cfa_register 7
  68:.\Generated_Source\PSoC5/audio_isr.c ****     /* For all we know the interrupt is active. */
  69:.\Generated_Source\PSoC5/audio_isr.c ****     audio_isr_Disable();
  50              		.loc 1 69 0
  51 0004 FFF7FEFF 		bl	audio_isr_Disable
  70:.\Generated_Source\PSoC5/audio_isr.c **** 
  71:.\Generated_Source\PSoC5/audio_isr.c ****     /* Set the ISR to point to the audio_isr Interrupt. */
  72:.\Generated_Source\PSoC5/audio_isr.c ****     audio_isr_SetVector(&audio_isr_Interrupt);
  52              		.loc 1 72 0
  53 0008 0448     		ldr	r0, .L2
  54 000a FFF7FEFF 		bl	audio_isr_SetVector
  73:.\Generated_Source\PSoC5/audio_isr.c **** 
  74:.\Generated_Source\PSoC5/audio_isr.c ****     /* Set the priority. */
  75:.\Generated_Source\PSoC5/audio_isr.c ****     audio_isr_SetPriority((uint8)audio_isr_INTC_PRIOR_NUMBER);
  55              		.loc 1 75 0
  56 000e 0720     		movs	r0, #7
  57 0010 FFF7FEFF 		bl	audio_isr_SetPriority
  76:.\Generated_Source\PSoC5/audio_isr.c **** 
  77:.\Generated_Source\PSoC5/audio_isr.c ****     /* Enable it. */
  78:.\Generated_Source\PSoC5/audio_isr.c ****     audio_isr_Enable();
  58              		.loc 1 78 0
  59 0014 FFF7FEFF 		bl	audio_isr_Enable
  79:.\Generated_Source\PSoC5/audio_isr.c **** }
  60              		.loc 1 79 0
  61 0018 80BD     		pop	{r7, pc}
  62              	.L3:
  63 001a 00BF     		.align	2
  64              	.L2:
  65 001c 00000000 		.word	audio_isr_Interrupt
  66              		.cfi_endproc
  67              	.LFE0:
  68              		.size	audio_isr_Start, .-audio_isr_Start
  69              		.section	.text.audio_isr_StartEx,"ax",%progbits
  70              		.align	2
  71              		.global	audio_isr_StartEx
  72              		.thumb
  73              		.thumb_func
  74              		.type	audio_isr_StartEx, %function
  75              	audio_isr_StartEx:
  76              	.LFB1:
  80:.\Generated_Source\PSoC5/audio_isr.c **** 
  81:.\Generated_Source\PSoC5/audio_isr.c **** 
  82:.\Generated_Source\PSoC5/audio_isr.c **** /*******************************************************************************
  83:.\Generated_Source\PSoC5/audio_isr.c **** * Function Name: audio_isr_StartEx
  84:.\Generated_Source\PSoC5/audio_isr.c **** ********************************************************************************
  85:.\Generated_Source\PSoC5/audio_isr.c **** *
  86:.\Generated_Source\PSoC5/audio_isr.c **** * Summary:
  87:.\Generated_Source\PSoC5/audio_isr.c **** *  Sets up the interrupt and enables it. This function disables the interrupt,
  88:.\Generated_Source\PSoC5/audio_isr.c **** *  sets the interrupt vector based on the address passed in, sets the priority 
  89:.\Generated_Source\PSoC5/audio_isr.c **** *  from the value in the Design Wide Resources Interrupt Editor, then enables 
  90:.\Generated_Source\PSoC5/audio_isr.c **** *  the interrupt to the interrupt controller.
  91:.\Generated_Source\PSoC5/audio_isr.c **** *  
  92:.\Generated_Source\PSoC5/audio_isr.c **** *  When defining ISR functions, the CY_ISR and CY_ISR_PROTO macros should be 
  93:.\Generated_Source\PSoC5/audio_isr.c **** *  used to provide consistent definition across compilers:
  94:.\Generated_Source\PSoC5/audio_isr.c **** *  
  95:.\Generated_Source\PSoC5/audio_isr.c **** *  Function definition example:
ARM GAS  C:\Users\student\AppData\Local\Temp\cclMKz6y.s 			page 4


  96:.\Generated_Source\PSoC5/audio_isr.c **** *   CY_ISR(MyISR)
  97:.\Generated_Source\PSoC5/audio_isr.c **** *   {
  98:.\Generated_Source\PSoC5/audio_isr.c **** *   }
  99:.\Generated_Source\PSoC5/audio_isr.c **** *   Function prototype example:
 100:.\Generated_Source\PSoC5/audio_isr.c **** *   CY_ISR_PROTO(MyISR);
 101:.\Generated_Source\PSoC5/audio_isr.c **** *
 102:.\Generated_Source\PSoC5/audio_isr.c **** * Parameters:  
 103:.\Generated_Source\PSoC5/audio_isr.c **** *   address: Address of the ISR to set in the interrupt vector table.
 104:.\Generated_Source\PSoC5/audio_isr.c **** *
 105:.\Generated_Source\PSoC5/audio_isr.c **** * Return:
 106:.\Generated_Source\PSoC5/audio_isr.c **** *   None
 107:.\Generated_Source\PSoC5/audio_isr.c **** *
 108:.\Generated_Source\PSoC5/audio_isr.c **** *******************************************************************************/
 109:.\Generated_Source\PSoC5/audio_isr.c **** void audio_isr_StartEx(cyisraddress address)
 110:.\Generated_Source\PSoC5/audio_isr.c **** {
  77              		.loc 1 110 0
  78              		.cfi_startproc
  79              		@ args = 0, pretend = 0, frame = 8
  80              		@ frame_needed = 1, uses_anonymous_args = 0
  81 0000 80B5     		push	{r7, lr}
  82              		.cfi_def_cfa_offset 8
  83              		.cfi_offset 7, -8
  84              		.cfi_offset 14, -4
  85 0002 82B0     		sub	sp, sp, #8
  86              		.cfi_def_cfa_offset 16
  87 0004 00AF     		add	r7, sp, #0
  88              		.cfi_def_cfa_register 7
  89 0006 7860     		str	r0, [r7, #4]
 111:.\Generated_Source\PSoC5/audio_isr.c ****     /* For all we know the interrupt is active. */
 112:.\Generated_Source\PSoC5/audio_isr.c ****     audio_isr_Disable();
  90              		.loc 1 112 0
  91 0008 FFF7FEFF 		bl	audio_isr_Disable
 113:.\Generated_Source\PSoC5/audio_isr.c **** 
 114:.\Generated_Source\PSoC5/audio_isr.c ****     /* Set the ISR to point to the audio_isr Interrupt. */
 115:.\Generated_Source\PSoC5/audio_isr.c ****     audio_isr_SetVector(address);
  92              		.loc 1 115 0
  93 000c 7868     		ldr	r0, [r7, #4]
  94 000e FFF7FEFF 		bl	audio_isr_SetVector
 116:.\Generated_Source\PSoC5/audio_isr.c **** 
 117:.\Generated_Source\PSoC5/audio_isr.c ****     /* Set the priority. */
 118:.\Generated_Source\PSoC5/audio_isr.c ****     audio_isr_SetPriority((uint8)audio_isr_INTC_PRIOR_NUMBER);
  95              		.loc 1 118 0
  96 0012 0720     		movs	r0, #7
  97 0014 FFF7FEFF 		bl	audio_isr_SetPriority
 119:.\Generated_Source\PSoC5/audio_isr.c **** 
 120:.\Generated_Source\PSoC5/audio_isr.c ****     /* Enable it. */
 121:.\Generated_Source\PSoC5/audio_isr.c ****     audio_isr_Enable();
  98              		.loc 1 121 0
  99 0018 FFF7FEFF 		bl	audio_isr_Enable
 122:.\Generated_Source\PSoC5/audio_isr.c **** }
 100              		.loc 1 122 0
 101 001c 0837     		adds	r7, r7, #8
 102              		.cfi_def_cfa_offset 8
 103 001e BD46     		mov	sp, r7
 104              		.cfi_def_cfa_register 13
 105              		@ sp needed
 106 0020 80BD     		pop	{r7, pc}
ARM GAS  C:\Users\student\AppData\Local\Temp\cclMKz6y.s 			page 5


 107              		.cfi_endproc
 108              	.LFE1:
 109              		.size	audio_isr_StartEx, .-audio_isr_StartEx
 110 0022 00BF     		.section	.text.audio_isr_Stop,"ax",%progbits
 111              		.align	2
 112              		.global	audio_isr_Stop
 113              		.thumb
 114              		.thumb_func
 115              		.type	audio_isr_Stop, %function
 116              	audio_isr_Stop:
 117              	.LFB2:
 123:.\Generated_Source\PSoC5/audio_isr.c **** 
 124:.\Generated_Source\PSoC5/audio_isr.c **** 
 125:.\Generated_Source\PSoC5/audio_isr.c **** /*******************************************************************************
 126:.\Generated_Source\PSoC5/audio_isr.c **** * Function Name: audio_isr_Stop
 127:.\Generated_Source\PSoC5/audio_isr.c **** ********************************************************************************
 128:.\Generated_Source\PSoC5/audio_isr.c **** *
 129:.\Generated_Source\PSoC5/audio_isr.c **** * Summary:
 130:.\Generated_Source\PSoC5/audio_isr.c **** *   Disables and removes the interrupt.
 131:.\Generated_Source\PSoC5/audio_isr.c **** *
 132:.\Generated_Source\PSoC5/audio_isr.c **** * Parameters:  
 133:.\Generated_Source\PSoC5/audio_isr.c **** *   None
 134:.\Generated_Source\PSoC5/audio_isr.c **** *
 135:.\Generated_Source\PSoC5/audio_isr.c **** * Return:
 136:.\Generated_Source\PSoC5/audio_isr.c **** *   None
 137:.\Generated_Source\PSoC5/audio_isr.c **** *
 138:.\Generated_Source\PSoC5/audio_isr.c **** *******************************************************************************/
 139:.\Generated_Source\PSoC5/audio_isr.c **** void audio_isr_Stop(void)
 140:.\Generated_Source\PSoC5/audio_isr.c **** {
 118              		.loc 1 140 0
 119              		.cfi_startproc
 120              		@ args = 0, pretend = 0, frame = 0
 121              		@ frame_needed = 1, uses_anonymous_args = 0
 122 0000 80B5     		push	{r7, lr}
 123              		.cfi_def_cfa_offset 8
 124              		.cfi_offset 7, -8
 125              		.cfi_offset 14, -4
 126 0002 00AF     		add	r7, sp, #0
 127              		.cfi_def_cfa_register 7
 141:.\Generated_Source\PSoC5/audio_isr.c ****     /* Disable this interrupt. */
 142:.\Generated_Source\PSoC5/audio_isr.c ****     audio_isr_Disable();
 128              		.loc 1 142 0
 129 0004 FFF7FEFF 		bl	audio_isr_Disable
 143:.\Generated_Source\PSoC5/audio_isr.c **** 
 144:.\Generated_Source\PSoC5/audio_isr.c ****     /* Set the ISR to point to the passive one. */
 145:.\Generated_Source\PSoC5/audio_isr.c ****     audio_isr_SetVector(&IntDefaultHandler);
 130              		.loc 1 145 0
 131 0008 0148     		ldr	r0, .L6
 132 000a FFF7FEFF 		bl	audio_isr_SetVector
 146:.\Generated_Source\PSoC5/audio_isr.c **** }
 133              		.loc 1 146 0
 134 000e 80BD     		pop	{r7, pc}
 135              	.L7:
 136              		.align	2
 137              	.L6:
 138 0010 00000000 		.word	IntDefaultHandler
 139              		.cfi_endproc
ARM GAS  C:\Users\student\AppData\Local\Temp\cclMKz6y.s 			page 6


 140              	.LFE2:
 141              		.size	audio_isr_Stop, .-audio_isr_Stop
 142              		.section	.text.audio_isr_Interrupt,"ax",%progbits
 143              		.align	2
 144              		.global	audio_isr_Interrupt
 145              		.thumb
 146              		.thumb_func
 147              		.type	audio_isr_Interrupt, %function
 148              	audio_isr_Interrupt:
 149              	.LFB3:
 147:.\Generated_Source\PSoC5/audio_isr.c **** 
 148:.\Generated_Source\PSoC5/audio_isr.c **** 
 149:.\Generated_Source\PSoC5/audio_isr.c **** /*******************************************************************************
 150:.\Generated_Source\PSoC5/audio_isr.c **** * Function Name: audio_isr_Interrupt
 151:.\Generated_Source\PSoC5/audio_isr.c **** ********************************************************************************
 152:.\Generated_Source\PSoC5/audio_isr.c **** *
 153:.\Generated_Source\PSoC5/audio_isr.c **** * Summary:
 154:.\Generated_Source\PSoC5/audio_isr.c **** *   The default Interrupt Service Routine for audio_isr.
 155:.\Generated_Source\PSoC5/audio_isr.c **** *
 156:.\Generated_Source\PSoC5/audio_isr.c **** *   Add custom code between the coments to keep the next version of this file
 157:.\Generated_Source\PSoC5/audio_isr.c **** *   from over writting your code.
 158:.\Generated_Source\PSoC5/audio_isr.c **** *
 159:.\Generated_Source\PSoC5/audio_isr.c **** * Parameters:  
 160:.\Generated_Source\PSoC5/audio_isr.c **** *
 161:.\Generated_Source\PSoC5/audio_isr.c **** * Return:
 162:.\Generated_Source\PSoC5/audio_isr.c **** *   None
 163:.\Generated_Source\PSoC5/audio_isr.c **** *
 164:.\Generated_Source\PSoC5/audio_isr.c **** *******************************************************************************/
 165:.\Generated_Source\PSoC5/audio_isr.c **** CY_ISR(audio_isr_Interrupt)
 166:.\Generated_Source\PSoC5/audio_isr.c **** {
 150              		.loc 1 166 0
 151              		.cfi_startproc
 152              		@ args = 0, pretend = 0, frame = 8
 153              		@ frame_needed = 1, uses_anonymous_args = 0
 154 0000 80B5     		push	{r7, lr}
 155              		.cfi_def_cfa_offset 8
 156              		.cfi_offset 7, -8
 157              		.cfi_offset 14, -4
 158 0002 82B0     		sub	sp, sp, #8
 159              		.cfi_def_cfa_offset 16
 160 0004 00AF     		add	r7, sp, #0
 161              		.cfi_def_cfa_register 7
 167:.\Generated_Source\PSoC5/audio_isr.c ****     #ifdef audio_isr_INTERRUPT_INTERRUPT_CALLBACK
 168:.\Generated_Source\PSoC5/audio_isr.c ****         audio_isr_Interrupt_InterruptCallback();
 169:.\Generated_Source\PSoC5/audio_isr.c ****     #endif /* audio_isr_INTERRUPT_INTERRUPT_CALLBACK */ 
 170:.\Generated_Source\PSoC5/audio_isr.c **** 
 171:.\Generated_Source\PSoC5/audio_isr.c ****     /*  Place your Interrupt code here. */
 172:.\Generated_Source\PSoC5/audio_isr.c ****     /* `#START audio_isr_Interrupt` */
 173:.\Generated_Source\PSoC5/audio_isr.c ****     Timer_1_ReadStatusRegister();
 162              		.loc 1 173 0
 163 0006 FFF7FEFF 		bl	Timer_1_ReadStatusRegister
 174:.\Generated_Source\PSoC5/audio_isr.c ****     TIMER_1_ISR_PIN_Write(~(TIMER_1_ISR_PIN_Read()));
 164              		.loc 1 174 0
 165 000a FFF7FEFF 		bl	TIMER_1_ISR_PIN_Read
 166 000e 0346     		mov	r3, r0
 167 0010 DB43     		mvns	r3, r3
 168 0012 DBB2     		uxtb	r3, r3
ARM GAS  C:\Users\student\AppData\Local\Temp\cclMKz6y.s 			page 7


 169 0014 1846     		mov	r0, r3
 170 0016 FFF7FEFF 		bl	TIMER_1_ISR_PIN_Write
 175:.\Generated_Source\PSoC5/audio_isr.c ****     c4_table_idx = (c4_table_idx >= c4_num_vals) ? 0 : c4_table_idx;
 171              		.loc 1 175 0
 172 001a 0F4B     		ldr	r3, .L11
 173 001c 1A68     		ldr	r2, [r3]
 174 001e 0F4B     		ldr	r3, .L11+4
 175 0020 1B68     		ldr	r3, [r3]
 176 0022 9A42     		cmp	r2, r3
 177 0024 02DA     		bge	.L9
 178              		.loc 1 175 0 is_stmt 0 discriminator 1
 179 0026 0C4B     		ldr	r3, .L11
 180 0028 1B68     		ldr	r3, [r3]
 181 002a 00E0     		b	.L10
 182              	.L9:
 183              		.loc 1 175 0 discriminator 2
 184 002c 0023     		movs	r3, #0
 185              	.L10:
 186              		.loc 1 175 0 discriminator 4
 187 002e 0A4A     		ldr	r2, .L11
 188 0030 1360     		str	r3, [r2]
 176:.\Generated_Source\PSoC5/audio_isr.c ****     int val = c4_sustain[c4_table_idx];
 189              		.loc 1 176 0 is_stmt 1 discriminator 4
 190 0032 094B     		ldr	r3, .L11
 191 0034 1B68     		ldr	r3, [r3]
 192 0036 0A4A     		ldr	r2, .L11+8
 193 0038 52F82330 		ldr	r3, [r2, r3, lsl #2]
 194 003c 7B60     		str	r3, [r7, #4]
 177:.\Generated_Source\PSoC5/audio_isr.c ****     VDAC8_1_SetValue(val);
 195              		.loc 1 177 0 discriminator 4
 196 003e 7B68     		ldr	r3, [r7, #4]
 197 0040 DBB2     		uxtb	r3, r3
 198 0042 1846     		mov	r0, r3
 199 0044 FFF7FEFF 		bl	VDAC8_1_SetValue
 178:.\Generated_Source\PSoC5/audio_isr.c ****     c4_table_idx++;
 200              		.loc 1 178 0 discriminator 4
 201 0048 034B     		ldr	r3, .L11
 202 004a 1B68     		ldr	r3, [r3]
 203 004c 0133     		adds	r3, r3, #1
 204 004e 024A     		ldr	r2, .L11
 205 0050 1360     		str	r3, [r2]
 179:.\Generated_Source\PSoC5/audio_isr.c **** 
 180:.\Generated_Source\PSoC5/audio_isr.c ****     
 181:.\Generated_Source\PSoC5/audio_isr.c ****     /* `#END` */
 182:.\Generated_Source\PSoC5/audio_isr.c **** }
 206              		.loc 1 182 0 discriminator 4
 207 0052 0837     		adds	r7, r7, #8
 208              		.cfi_def_cfa_offset 8
 209 0054 BD46     		mov	sp, r7
 210              		.cfi_def_cfa_register 13
 211              		@ sp needed
 212 0056 80BD     		pop	{r7, pc}
 213              	.L12:
 214              		.align	2
 215              	.L11:
 216 0058 00000000 		.word	c4_table_idx
 217 005c 00000000 		.word	c4_num_vals
ARM GAS  C:\Users\student\AppData\Local\Temp\cclMKz6y.s 			page 8


 218 0060 00000000 		.word	c4_sustain
 219              		.cfi_endproc
 220              	.LFE3:
 221              		.size	audio_isr_Interrupt, .-audio_isr_Interrupt
 222              		.section	.text.audio_isr_SetVector,"ax",%progbits
 223              		.align	2
 224              		.global	audio_isr_SetVector
 225              		.thumb
 226              		.thumb_func
 227              		.type	audio_isr_SetVector, %function
 228              	audio_isr_SetVector:
 229              	.LFB4:
 183:.\Generated_Source\PSoC5/audio_isr.c **** 
 184:.\Generated_Source\PSoC5/audio_isr.c **** 
 185:.\Generated_Source\PSoC5/audio_isr.c **** /*******************************************************************************
 186:.\Generated_Source\PSoC5/audio_isr.c **** * Function Name: audio_isr_SetVector
 187:.\Generated_Source\PSoC5/audio_isr.c **** ********************************************************************************
 188:.\Generated_Source\PSoC5/audio_isr.c **** *
 189:.\Generated_Source\PSoC5/audio_isr.c **** * Summary:
 190:.\Generated_Source\PSoC5/audio_isr.c **** *   Change the ISR vector for the Interrupt. Note calling audio_isr_Start
 191:.\Generated_Source\PSoC5/audio_isr.c **** *   will override any effect this method would have had. To set the vector 
 192:.\Generated_Source\PSoC5/audio_isr.c **** *   before the component has been started use audio_isr_StartEx instead.
 193:.\Generated_Source\PSoC5/audio_isr.c **** * 
 194:.\Generated_Source\PSoC5/audio_isr.c **** *   When defining ISR functions, the CY_ISR and CY_ISR_PROTO macros should be 
 195:.\Generated_Source\PSoC5/audio_isr.c **** *   used to provide consistent definition across compilers:
 196:.\Generated_Source\PSoC5/audio_isr.c **** *
 197:.\Generated_Source\PSoC5/audio_isr.c **** *   Function definition example:
 198:.\Generated_Source\PSoC5/audio_isr.c **** *   CY_ISR(MyISR)
 199:.\Generated_Source\PSoC5/audio_isr.c **** *   {
 200:.\Generated_Source\PSoC5/audio_isr.c **** *   }
 201:.\Generated_Source\PSoC5/audio_isr.c **** *
 202:.\Generated_Source\PSoC5/audio_isr.c **** *   Function prototype example:
 203:.\Generated_Source\PSoC5/audio_isr.c **** *     CY_ISR_PROTO(MyISR);
 204:.\Generated_Source\PSoC5/audio_isr.c **** *
 205:.\Generated_Source\PSoC5/audio_isr.c **** * Parameters:
 206:.\Generated_Source\PSoC5/audio_isr.c **** *   address: Address of the ISR to set in the interrupt vector table.
 207:.\Generated_Source\PSoC5/audio_isr.c **** *
 208:.\Generated_Source\PSoC5/audio_isr.c **** * Return:
 209:.\Generated_Source\PSoC5/audio_isr.c **** *   None
 210:.\Generated_Source\PSoC5/audio_isr.c **** *
 211:.\Generated_Source\PSoC5/audio_isr.c **** *******************************************************************************/
 212:.\Generated_Source\PSoC5/audio_isr.c **** void audio_isr_SetVector(cyisraddress address)
 213:.\Generated_Source\PSoC5/audio_isr.c **** {
 230              		.loc 1 213 0
 231              		.cfi_startproc
 232              		@ args = 0, pretend = 0, frame = 16
 233              		@ frame_needed = 1, uses_anonymous_args = 0
 234              		@ link register save eliminated.
 235 0000 80B4     		push	{r7}
 236              		.cfi_def_cfa_offset 4
 237              		.cfi_offset 7, -4
 238 0002 85B0     		sub	sp, sp, #20
 239              		.cfi_def_cfa_offset 24
 240 0004 00AF     		add	r7, sp, #0
 241              		.cfi_def_cfa_register 7
 242 0006 7860     		str	r0, [r7, #4]
 214:.\Generated_Source\PSoC5/audio_isr.c ****     cyisraddress * ramVectorTable;
ARM GAS  C:\Users\student\AppData\Local\Temp\cclMKz6y.s 			page 9


 215:.\Generated_Source\PSoC5/audio_isr.c **** 
 216:.\Generated_Source\PSoC5/audio_isr.c ****     ramVectorTable = (cyisraddress *) *CYINT_VECT_TABLE;
 243              		.loc 1 216 0
 244 0008 054B     		ldr	r3, .L14
 245 000a 1B68     		ldr	r3, [r3]
 246 000c FB60     		str	r3, [r7, #12]
 217:.\Generated_Source\PSoC5/audio_isr.c **** 
 218:.\Generated_Source\PSoC5/audio_isr.c ****     ramVectorTable[CYINT_IRQ_BASE + (uint32)audio_isr__INTC_NUMBER] = address;
 247              		.loc 1 218 0
 248 000e FB68     		ldr	r3, [r7, #12]
 249 0010 4033     		adds	r3, r3, #64
 250 0012 7A68     		ldr	r2, [r7, #4]
 251 0014 1A60     		str	r2, [r3]
 219:.\Generated_Source\PSoC5/audio_isr.c **** }
 252              		.loc 1 219 0
 253 0016 1437     		adds	r7, r7, #20
 254              		.cfi_def_cfa_offset 4
 255 0018 BD46     		mov	sp, r7
 256              		.cfi_def_cfa_register 13
 257              		@ sp needed
 258 001a 5DF8047B 		ldr	r7, [sp], #4
 259              		.cfi_restore 7
 260              		.cfi_def_cfa_offset 0
 261 001e 7047     		bx	lr
 262              	.L15:
 263              		.align	2
 264              	.L14:
 265 0020 08ED00E0 		.word	-536810232
 266              		.cfi_endproc
 267              	.LFE4:
 268              		.size	audio_isr_SetVector, .-audio_isr_SetVector
 269              		.section	.text.audio_isr_GetVector,"ax",%progbits
 270              		.align	2
 271              		.global	audio_isr_GetVector
 272              		.thumb
 273              		.thumb_func
 274              		.type	audio_isr_GetVector, %function
 275              	audio_isr_GetVector:
 276              	.LFB5:
 220:.\Generated_Source\PSoC5/audio_isr.c **** 
 221:.\Generated_Source\PSoC5/audio_isr.c **** 
 222:.\Generated_Source\PSoC5/audio_isr.c **** /*******************************************************************************
 223:.\Generated_Source\PSoC5/audio_isr.c **** * Function Name: audio_isr_GetVector
 224:.\Generated_Source\PSoC5/audio_isr.c **** ********************************************************************************
 225:.\Generated_Source\PSoC5/audio_isr.c **** *
 226:.\Generated_Source\PSoC5/audio_isr.c **** * Summary:
 227:.\Generated_Source\PSoC5/audio_isr.c **** *   Gets the "address" of the current ISR vector for the Interrupt.
 228:.\Generated_Source\PSoC5/audio_isr.c **** *
 229:.\Generated_Source\PSoC5/audio_isr.c **** * Parameters:
 230:.\Generated_Source\PSoC5/audio_isr.c **** *   None
 231:.\Generated_Source\PSoC5/audio_isr.c **** *
 232:.\Generated_Source\PSoC5/audio_isr.c **** * Return:
 233:.\Generated_Source\PSoC5/audio_isr.c **** *   Address of the ISR in the interrupt vector table.
 234:.\Generated_Source\PSoC5/audio_isr.c **** *
 235:.\Generated_Source\PSoC5/audio_isr.c **** *******************************************************************************/
 236:.\Generated_Source\PSoC5/audio_isr.c **** cyisraddress audio_isr_GetVector(void)
 237:.\Generated_Source\PSoC5/audio_isr.c **** {
ARM GAS  C:\Users\student\AppData\Local\Temp\cclMKz6y.s 			page 10


 277              		.loc 1 237 0
 278              		.cfi_startproc
 279              		@ args = 0, pretend = 0, frame = 8
 280              		@ frame_needed = 1, uses_anonymous_args = 0
 281              		@ link register save eliminated.
 282 0000 80B4     		push	{r7}
 283              		.cfi_def_cfa_offset 4
 284              		.cfi_offset 7, -4
 285 0002 83B0     		sub	sp, sp, #12
 286              		.cfi_def_cfa_offset 16
 287 0004 00AF     		add	r7, sp, #0
 288              		.cfi_def_cfa_register 7
 238:.\Generated_Source\PSoC5/audio_isr.c ****     cyisraddress * ramVectorTable;
 239:.\Generated_Source\PSoC5/audio_isr.c **** 
 240:.\Generated_Source\PSoC5/audio_isr.c ****     ramVectorTable = (cyisraddress *) *CYINT_VECT_TABLE;
 289              		.loc 1 240 0
 290 0006 054B     		ldr	r3, .L18
 291 0008 1B68     		ldr	r3, [r3]
 292 000a 7B60     		str	r3, [r7, #4]
 241:.\Generated_Source\PSoC5/audio_isr.c **** 
 242:.\Generated_Source\PSoC5/audio_isr.c ****     return ramVectorTable[CYINT_IRQ_BASE + (uint32)audio_isr__INTC_NUMBER];
 293              		.loc 1 242 0
 294 000c 7B68     		ldr	r3, [r7, #4]
 295 000e 1B6C     		ldr	r3, [r3, #64]
 243:.\Generated_Source\PSoC5/audio_isr.c **** }
 296              		.loc 1 243 0
 297 0010 1846     		mov	r0, r3
 298 0012 0C37     		adds	r7, r7, #12
 299              		.cfi_def_cfa_offset 4
 300 0014 BD46     		mov	sp, r7
 301              		.cfi_def_cfa_register 13
 302              		@ sp needed
 303 0016 5DF8047B 		ldr	r7, [sp], #4
 304              		.cfi_restore 7
 305              		.cfi_def_cfa_offset 0
 306 001a 7047     		bx	lr
 307              	.L19:
 308              		.align	2
 309              	.L18:
 310 001c 08ED00E0 		.word	-536810232
 311              		.cfi_endproc
 312              	.LFE5:
 313              		.size	audio_isr_GetVector, .-audio_isr_GetVector
 314              		.section	.text.audio_isr_SetPriority,"ax",%progbits
 315              		.align	2
 316              		.global	audio_isr_SetPriority
 317              		.thumb
 318              		.thumb_func
 319              		.type	audio_isr_SetPriority, %function
 320              	audio_isr_SetPriority:
 321              	.LFB6:
 244:.\Generated_Source\PSoC5/audio_isr.c **** 
 245:.\Generated_Source\PSoC5/audio_isr.c **** 
 246:.\Generated_Source\PSoC5/audio_isr.c **** /*******************************************************************************
 247:.\Generated_Source\PSoC5/audio_isr.c **** * Function Name: audio_isr_SetPriority
 248:.\Generated_Source\PSoC5/audio_isr.c **** ********************************************************************************
 249:.\Generated_Source\PSoC5/audio_isr.c **** *
ARM GAS  C:\Users\student\AppData\Local\Temp\cclMKz6y.s 			page 11


 250:.\Generated_Source\PSoC5/audio_isr.c **** * Summary:
 251:.\Generated_Source\PSoC5/audio_isr.c **** *   Sets the Priority of the Interrupt. 
 252:.\Generated_Source\PSoC5/audio_isr.c **** *
 253:.\Generated_Source\PSoC5/audio_isr.c **** *   Note calling audio_isr_Start or audio_isr_StartEx will 
 254:.\Generated_Source\PSoC5/audio_isr.c **** *   override any effect this API would have had. This API should only be called
 255:.\Generated_Source\PSoC5/audio_isr.c **** *   after audio_isr_Start or audio_isr_StartEx has been called. 
 256:.\Generated_Source\PSoC5/audio_isr.c **** *   To set the initial priority for the component, use the Design-Wide Resources
 257:.\Generated_Source\PSoC5/audio_isr.c **** *   Interrupt Editor.
 258:.\Generated_Source\PSoC5/audio_isr.c **** *
 259:.\Generated_Source\PSoC5/audio_isr.c **** *   Note This API has no effect on Non-maskable interrupt NMI).
 260:.\Generated_Source\PSoC5/audio_isr.c **** *
 261:.\Generated_Source\PSoC5/audio_isr.c **** * Parameters:
 262:.\Generated_Source\PSoC5/audio_isr.c **** *   priority: Priority of the interrupt, 0 being the highest priority
 263:.\Generated_Source\PSoC5/audio_isr.c **** *             PSoC 3 and PSoC 5LP: Priority is from 0 to 7.
 264:.\Generated_Source\PSoC5/audio_isr.c **** *             PSoC 4: Priority is from 0 to 3.
 265:.\Generated_Source\PSoC5/audio_isr.c **** *
 266:.\Generated_Source\PSoC5/audio_isr.c **** * Return:
 267:.\Generated_Source\PSoC5/audio_isr.c **** *   None
 268:.\Generated_Source\PSoC5/audio_isr.c **** *
 269:.\Generated_Source\PSoC5/audio_isr.c **** *******************************************************************************/
 270:.\Generated_Source\PSoC5/audio_isr.c **** void audio_isr_SetPriority(uint8 priority)
 271:.\Generated_Source\PSoC5/audio_isr.c **** {
 322              		.loc 1 271 0
 323              		.cfi_startproc
 324              		@ args = 0, pretend = 0, frame = 8
 325              		@ frame_needed = 1, uses_anonymous_args = 0
 326              		@ link register save eliminated.
 327 0000 80B4     		push	{r7}
 328              		.cfi_def_cfa_offset 4
 329              		.cfi_offset 7, -4
 330 0002 83B0     		sub	sp, sp, #12
 331              		.cfi_def_cfa_offset 16
 332 0004 00AF     		add	r7, sp, #0
 333              		.cfi_def_cfa_register 7
 334 0006 0346     		mov	r3, r0
 335 0008 FB71     		strb	r3, [r7, #7]
 272:.\Generated_Source\PSoC5/audio_isr.c ****     *audio_isr_INTC_PRIOR = priority << 5;
 336              		.loc 1 272 0
 337 000a 054A     		ldr	r2, .L21
 338 000c FB79     		ldrb	r3, [r7, #7]
 339 000e 5B01     		lsls	r3, r3, #5
 340 0010 DBB2     		uxtb	r3, r3
 341 0012 1370     		strb	r3, [r2]
 273:.\Generated_Source\PSoC5/audio_isr.c **** }
 342              		.loc 1 273 0
 343 0014 0C37     		adds	r7, r7, #12
 344              		.cfi_def_cfa_offset 4
 345 0016 BD46     		mov	sp, r7
 346              		.cfi_def_cfa_register 13
 347              		@ sp needed
 348 0018 5DF8047B 		ldr	r7, [sp], #4
 349              		.cfi_restore 7
 350              		.cfi_def_cfa_offset 0
 351 001c 7047     		bx	lr
 352              	.L22:
 353 001e 00BF     		.align	2
 354              	.L21:
ARM GAS  C:\Users\student\AppData\Local\Temp\cclMKz6y.s 			page 12


 355 0020 00E400E0 		.word	-536812544
 356              		.cfi_endproc
 357              	.LFE6:
 358              		.size	audio_isr_SetPriority, .-audio_isr_SetPriority
 359              		.section	.text.audio_isr_GetPriority,"ax",%progbits
 360              		.align	2
 361              		.global	audio_isr_GetPriority
 362              		.thumb
 363              		.thumb_func
 364              		.type	audio_isr_GetPriority, %function
 365              	audio_isr_GetPriority:
 366              	.LFB7:
 274:.\Generated_Source\PSoC5/audio_isr.c **** 
 275:.\Generated_Source\PSoC5/audio_isr.c **** 
 276:.\Generated_Source\PSoC5/audio_isr.c **** /*******************************************************************************
 277:.\Generated_Source\PSoC5/audio_isr.c **** * Function Name: audio_isr_GetPriority
 278:.\Generated_Source\PSoC5/audio_isr.c **** ********************************************************************************
 279:.\Generated_Source\PSoC5/audio_isr.c **** *
 280:.\Generated_Source\PSoC5/audio_isr.c **** * Summary:
 281:.\Generated_Source\PSoC5/audio_isr.c **** *   Gets the Priority of the Interrupt.
 282:.\Generated_Source\PSoC5/audio_isr.c **** *
 283:.\Generated_Source\PSoC5/audio_isr.c **** * Parameters:
 284:.\Generated_Source\PSoC5/audio_isr.c **** *   None
 285:.\Generated_Source\PSoC5/audio_isr.c **** *
 286:.\Generated_Source\PSoC5/audio_isr.c **** * Return:
 287:.\Generated_Source\PSoC5/audio_isr.c **** *   Priority of the interrupt, 0 being the highest priority
 288:.\Generated_Source\PSoC5/audio_isr.c **** *    PSoC 3 and PSoC 5LP: Priority is from 0 to 7.
 289:.\Generated_Source\PSoC5/audio_isr.c **** *    PSoC 4: Priority is from 0 to 3.
 290:.\Generated_Source\PSoC5/audio_isr.c **** *
 291:.\Generated_Source\PSoC5/audio_isr.c **** *******************************************************************************/
 292:.\Generated_Source\PSoC5/audio_isr.c **** uint8 audio_isr_GetPriority(void)
 293:.\Generated_Source\PSoC5/audio_isr.c **** {
 367              		.loc 1 293 0
 368              		.cfi_startproc
 369              		@ args = 0, pretend = 0, frame = 8
 370              		@ frame_needed = 1, uses_anonymous_args = 0
 371              		@ link register save eliminated.
 372 0000 80B4     		push	{r7}
 373              		.cfi_def_cfa_offset 4
 374              		.cfi_offset 7, -4
 375 0002 83B0     		sub	sp, sp, #12
 376              		.cfi_def_cfa_offset 16
 377 0004 00AF     		add	r7, sp, #0
 378              		.cfi_def_cfa_register 7
 294:.\Generated_Source\PSoC5/audio_isr.c ****     uint8 priority;
 295:.\Generated_Source\PSoC5/audio_isr.c **** 
 296:.\Generated_Source\PSoC5/audio_isr.c **** 
 297:.\Generated_Source\PSoC5/audio_isr.c ****     priority = *audio_isr_INTC_PRIOR >> 5;
 379              		.loc 1 297 0
 380 0006 064B     		ldr	r3, .L25
 381 0008 1B78     		ldrb	r3, [r3]
 382 000a DBB2     		uxtb	r3, r3
 383 000c 5B09     		lsrs	r3, r3, #5
 384 000e FB71     		strb	r3, [r7, #7]
 298:.\Generated_Source\PSoC5/audio_isr.c **** 
 299:.\Generated_Source\PSoC5/audio_isr.c ****     return priority;
 385              		.loc 1 299 0
ARM GAS  C:\Users\student\AppData\Local\Temp\cclMKz6y.s 			page 13


 386 0010 FB79     		ldrb	r3, [r7, #7]	@ zero_extendqisi2
 300:.\Generated_Source\PSoC5/audio_isr.c **** }
 387              		.loc 1 300 0
 388 0012 1846     		mov	r0, r3
 389 0014 0C37     		adds	r7, r7, #12
 390              		.cfi_def_cfa_offset 4
 391 0016 BD46     		mov	sp, r7
 392              		.cfi_def_cfa_register 13
 393              		@ sp needed
 394 0018 5DF8047B 		ldr	r7, [sp], #4
 395              		.cfi_restore 7
 396              		.cfi_def_cfa_offset 0
 397 001c 7047     		bx	lr
 398              	.L26:
 399 001e 00BF     		.align	2
 400              	.L25:
 401 0020 00E400E0 		.word	-536812544
 402              		.cfi_endproc
 403              	.LFE7:
 404              		.size	audio_isr_GetPriority, .-audio_isr_GetPriority
 405              		.section	.text.audio_isr_Enable,"ax",%progbits
 406              		.align	2
 407              		.global	audio_isr_Enable
 408              		.thumb
 409              		.thumb_func
 410              		.type	audio_isr_Enable, %function
 411              	audio_isr_Enable:
 412              	.LFB8:
 301:.\Generated_Source\PSoC5/audio_isr.c **** 
 302:.\Generated_Source\PSoC5/audio_isr.c **** 
 303:.\Generated_Source\PSoC5/audio_isr.c **** /*******************************************************************************
 304:.\Generated_Source\PSoC5/audio_isr.c **** * Function Name: audio_isr_Enable
 305:.\Generated_Source\PSoC5/audio_isr.c **** ********************************************************************************
 306:.\Generated_Source\PSoC5/audio_isr.c **** *
 307:.\Generated_Source\PSoC5/audio_isr.c **** * Summary:
 308:.\Generated_Source\PSoC5/audio_isr.c **** *   Enables the interrupt to the interrupt controller. Do not call this function
 309:.\Generated_Source\PSoC5/audio_isr.c **** *   unless ISR_Start() has been called or the functionality of the ISR_Start() 
 310:.\Generated_Source\PSoC5/audio_isr.c **** *   function, which sets the vector and the priority, has been called.
 311:.\Generated_Source\PSoC5/audio_isr.c **** *
 312:.\Generated_Source\PSoC5/audio_isr.c **** * Parameters:
 313:.\Generated_Source\PSoC5/audio_isr.c **** *   None
 314:.\Generated_Source\PSoC5/audio_isr.c **** *
 315:.\Generated_Source\PSoC5/audio_isr.c **** * Return:
 316:.\Generated_Source\PSoC5/audio_isr.c **** *   None
 317:.\Generated_Source\PSoC5/audio_isr.c **** *
 318:.\Generated_Source\PSoC5/audio_isr.c **** *******************************************************************************/
 319:.\Generated_Source\PSoC5/audio_isr.c **** void audio_isr_Enable(void)
 320:.\Generated_Source\PSoC5/audio_isr.c **** {
 413              		.loc 1 320 0
 414              		.cfi_startproc
 415              		@ args = 0, pretend = 0, frame = 0
 416              		@ frame_needed = 1, uses_anonymous_args = 0
 417              		@ link register save eliminated.
 418 0000 80B4     		push	{r7}
 419              		.cfi_def_cfa_offset 4
 420              		.cfi_offset 7, -4
 421 0002 00AF     		add	r7, sp, #0
ARM GAS  C:\Users\student\AppData\Local\Temp\cclMKz6y.s 			page 14


 422              		.cfi_def_cfa_register 7
 321:.\Generated_Source\PSoC5/audio_isr.c ****     /* Enable the general interrupt. */
 322:.\Generated_Source\PSoC5/audio_isr.c ****     *audio_isr_INTC_SET_EN = audio_isr__INTC_MASK;
 423              		.loc 1 322 0
 424 0004 034B     		ldr	r3, .L28
 425 0006 0122     		movs	r2, #1
 426 0008 1A60     		str	r2, [r3]
 323:.\Generated_Source\PSoC5/audio_isr.c **** }
 427              		.loc 1 323 0
 428 000a BD46     		mov	sp, r7
 429              		.cfi_def_cfa_register 13
 430              		@ sp needed
 431 000c 5DF8047B 		ldr	r7, [sp], #4
 432              		.cfi_restore 7
 433              		.cfi_def_cfa_offset 0
 434 0010 7047     		bx	lr
 435              	.L29:
 436 0012 00BF     		.align	2
 437              	.L28:
 438 0014 00E100E0 		.word	-536813312
 439              		.cfi_endproc
 440              	.LFE8:
 441              		.size	audio_isr_Enable, .-audio_isr_Enable
 442              		.section	.text.audio_isr_GetState,"ax",%progbits
 443              		.align	2
 444              		.global	audio_isr_GetState
 445              		.thumb
 446              		.thumb_func
 447              		.type	audio_isr_GetState, %function
 448              	audio_isr_GetState:
 449              	.LFB9:
 324:.\Generated_Source\PSoC5/audio_isr.c **** 
 325:.\Generated_Source\PSoC5/audio_isr.c **** 
 326:.\Generated_Source\PSoC5/audio_isr.c **** /*******************************************************************************
 327:.\Generated_Source\PSoC5/audio_isr.c **** * Function Name: audio_isr_GetState
 328:.\Generated_Source\PSoC5/audio_isr.c **** ********************************************************************************
 329:.\Generated_Source\PSoC5/audio_isr.c **** *
 330:.\Generated_Source\PSoC5/audio_isr.c **** * Summary:
 331:.\Generated_Source\PSoC5/audio_isr.c **** *   Gets the state (enabled, disabled) of the Interrupt.
 332:.\Generated_Source\PSoC5/audio_isr.c **** *
 333:.\Generated_Source\PSoC5/audio_isr.c **** * Parameters:
 334:.\Generated_Source\PSoC5/audio_isr.c **** *   None
 335:.\Generated_Source\PSoC5/audio_isr.c **** *
 336:.\Generated_Source\PSoC5/audio_isr.c **** * Return:
 337:.\Generated_Source\PSoC5/audio_isr.c **** *   1 if enabled, 0 if disabled.
 338:.\Generated_Source\PSoC5/audio_isr.c **** *
 339:.\Generated_Source\PSoC5/audio_isr.c **** *******************************************************************************/
 340:.\Generated_Source\PSoC5/audio_isr.c **** uint8 audio_isr_GetState(void)
 341:.\Generated_Source\PSoC5/audio_isr.c **** {
 450              		.loc 1 341 0
 451              		.cfi_startproc
 452              		@ args = 0, pretend = 0, frame = 0
 453              		@ frame_needed = 1, uses_anonymous_args = 0
 454              		@ link register save eliminated.
 455 0000 80B4     		push	{r7}
 456              		.cfi_def_cfa_offset 4
 457              		.cfi_offset 7, -4
ARM GAS  C:\Users\student\AppData\Local\Temp\cclMKz6y.s 			page 15


 458 0002 00AF     		add	r7, sp, #0
 459              		.cfi_def_cfa_register 7
 342:.\Generated_Source\PSoC5/audio_isr.c ****     /* Get the state of the general interrupt. */
 343:.\Generated_Source\PSoC5/audio_isr.c ****     return ((*audio_isr_INTC_SET_EN & (uint32)audio_isr__INTC_MASK) != 0u) ? 1u:0u;
 460              		.loc 1 343 0
 461 0004 054B     		ldr	r3, .L32
 462 0006 1B68     		ldr	r3, [r3]
 463 0008 DBB2     		uxtb	r3, r3
 464 000a 03F00103 		and	r3, r3, #1
 465 000e DBB2     		uxtb	r3, r3
 344:.\Generated_Source\PSoC5/audio_isr.c **** }
 466              		.loc 1 344 0
 467 0010 1846     		mov	r0, r3
 468 0012 BD46     		mov	sp, r7
 469              		.cfi_def_cfa_register 13
 470              		@ sp needed
 471 0014 5DF8047B 		ldr	r7, [sp], #4
 472              		.cfi_restore 7
 473              		.cfi_def_cfa_offset 0
 474 0018 7047     		bx	lr
 475              	.L33:
 476 001a 00BF     		.align	2
 477              	.L32:
 478 001c 00E100E0 		.word	-536813312
 479              		.cfi_endproc
 480              	.LFE9:
 481              		.size	audio_isr_GetState, .-audio_isr_GetState
 482              		.section	.text.audio_isr_Disable,"ax",%progbits
 483              		.align	2
 484              		.global	audio_isr_Disable
 485              		.thumb
 486              		.thumb_func
 487              		.type	audio_isr_Disable, %function
 488              	audio_isr_Disable:
 489              	.LFB10:
 345:.\Generated_Source\PSoC5/audio_isr.c **** 
 346:.\Generated_Source\PSoC5/audio_isr.c **** 
 347:.\Generated_Source\PSoC5/audio_isr.c **** /*******************************************************************************
 348:.\Generated_Source\PSoC5/audio_isr.c **** * Function Name: audio_isr_Disable
 349:.\Generated_Source\PSoC5/audio_isr.c **** ********************************************************************************
 350:.\Generated_Source\PSoC5/audio_isr.c **** *
 351:.\Generated_Source\PSoC5/audio_isr.c **** * Summary:
 352:.\Generated_Source\PSoC5/audio_isr.c **** *   Disables the Interrupt in the interrupt controller.
 353:.\Generated_Source\PSoC5/audio_isr.c **** *
 354:.\Generated_Source\PSoC5/audio_isr.c **** * Parameters:
 355:.\Generated_Source\PSoC5/audio_isr.c **** *   None
 356:.\Generated_Source\PSoC5/audio_isr.c **** *
 357:.\Generated_Source\PSoC5/audio_isr.c **** * Return:
 358:.\Generated_Source\PSoC5/audio_isr.c **** *   None
 359:.\Generated_Source\PSoC5/audio_isr.c **** *
 360:.\Generated_Source\PSoC5/audio_isr.c **** *******************************************************************************/
 361:.\Generated_Source\PSoC5/audio_isr.c **** void audio_isr_Disable(void)
 362:.\Generated_Source\PSoC5/audio_isr.c **** {
 490              		.loc 1 362 0
 491              		.cfi_startproc
 492              		@ args = 0, pretend = 0, frame = 0
 493              		@ frame_needed = 1, uses_anonymous_args = 0
ARM GAS  C:\Users\student\AppData\Local\Temp\cclMKz6y.s 			page 16


 494              		@ link register save eliminated.
 495 0000 80B4     		push	{r7}
 496              		.cfi_def_cfa_offset 4
 497              		.cfi_offset 7, -4
 498 0002 00AF     		add	r7, sp, #0
 499              		.cfi_def_cfa_register 7
 363:.\Generated_Source\PSoC5/audio_isr.c ****     /* Disable the general interrupt. */
 364:.\Generated_Source\PSoC5/audio_isr.c ****     *audio_isr_INTC_CLR_EN = audio_isr__INTC_MASK;
 500              		.loc 1 364 0
 501 0004 034B     		ldr	r3, .L35
 502 0006 0122     		movs	r2, #1
 503 0008 1A60     		str	r2, [r3]
 365:.\Generated_Source\PSoC5/audio_isr.c **** }
 504              		.loc 1 365 0
 505 000a BD46     		mov	sp, r7
 506              		.cfi_def_cfa_register 13
 507              		@ sp needed
 508 000c 5DF8047B 		ldr	r7, [sp], #4
 509              		.cfi_restore 7
 510              		.cfi_def_cfa_offset 0
 511 0010 7047     		bx	lr
 512              	.L36:
 513 0012 00BF     		.align	2
 514              	.L35:
 515 0014 80E100E0 		.word	-536813184
 516              		.cfi_endproc
 517              	.LFE10:
 518              		.size	audio_isr_Disable, .-audio_isr_Disable
 519              		.section	.text.audio_isr_SetPending,"ax",%progbits
 520              		.align	2
 521              		.global	audio_isr_SetPending
 522              		.thumb
 523              		.thumb_func
 524              		.type	audio_isr_SetPending, %function
 525              	audio_isr_SetPending:
 526              	.LFB11:
 366:.\Generated_Source\PSoC5/audio_isr.c **** 
 367:.\Generated_Source\PSoC5/audio_isr.c **** 
 368:.\Generated_Source\PSoC5/audio_isr.c **** /*******************************************************************************
 369:.\Generated_Source\PSoC5/audio_isr.c **** * Function Name: audio_isr_SetPending
 370:.\Generated_Source\PSoC5/audio_isr.c **** ********************************************************************************
 371:.\Generated_Source\PSoC5/audio_isr.c **** *
 372:.\Generated_Source\PSoC5/audio_isr.c **** * Summary:
 373:.\Generated_Source\PSoC5/audio_isr.c **** *   Causes the Interrupt to enter the pending state, a software method of
 374:.\Generated_Source\PSoC5/audio_isr.c **** *   generating the interrupt.
 375:.\Generated_Source\PSoC5/audio_isr.c **** *
 376:.\Generated_Source\PSoC5/audio_isr.c **** * Parameters:
 377:.\Generated_Source\PSoC5/audio_isr.c **** *   None
 378:.\Generated_Source\PSoC5/audio_isr.c **** *
 379:.\Generated_Source\PSoC5/audio_isr.c **** * Return:
 380:.\Generated_Source\PSoC5/audio_isr.c **** *   None
 381:.\Generated_Source\PSoC5/audio_isr.c **** *
 382:.\Generated_Source\PSoC5/audio_isr.c **** * Side Effects:
 383:.\Generated_Source\PSoC5/audio_isr.c **** *   If interrupts are enabled and the interrupt is set up properly, the ISR is
 384:.\Generated_Source\PSoC5/audio_isr.c **** *   entered (depending on the priority of this interrupt and other pending 
 385:.\Generated_Source\PSoC5/audio_isr.c **** *   interrupts).
 386:.\Generated_Source\PSoC5/audio_isr.c **** *
ARM GAS  C:\Users\student\AppData\Local\Temp\cclMKz6y.s 			page 17


 387:.\Generated_Source\PSoC5/audio_isr.c **** *******************************************************************************/
 388:.\Generated_Source\PSoC5/audio_isr.c **** void audio_isr_SetPending(void)
 389:.\Generated_Source\PSoC5/audio_isr.c **** {
 527              		.loc 1 389 0
 528              		.cfi_startproc
 529              		@ args = 0, pretend = 0, frame = 0
 530              		@ frame_needed = 1, uses_anonymous_args = 0
 531              		@ link register save eliminated.
 532 0000 80B4     		push	{r7}
 533              		.cfi_def_cfa_offset 4
 534              		.cfi_offset 7, -4
 535 0002 00AF     		add	r7, sp, #0
 536              		.cfi_def_cfa_register 7
 390:.\Generated_Source\PSoC5/audio_isr.c ****     *audio_isr_INTC_SET_PD = audio_isr__INTC_MASK;
 537              		.loc 1 390 0
 538 0004 034B     		ldr	r3, .L38
 539 0006 0122     		movs	r2, #1
 540 0008 1A60     		str	r2, [r3]
 391:.\Generated_Source\PSoC5/audio_isr.c **** }
 541              		.loc 1 391 0
 542 000a BD46     		mov	sp, r7
 543              		.cfi_def_cfa_register 13
 544              		@ sp needed
 545 000c 5DF8047B 		ldr	r7, [sp], #4
 546              		.cfi_restore 7
 547              		.cfi_def_cfa_offset 0
 548 0010 7047     		bx	lr
 549              	.L39:
 550 0012 00BF     		.align	2
 551              	.L38:
 552 0014 00E200E0 		.word	-536813056
 553              		.cfi_endproc
 554              	.LFE11:
 555              		.size	audio_isr_SetPending, .-audio_isr_SetPending
 556              		.section	.text.audio_isr_ClearPending,"ax",%progbits
 557              		.align	2
 558              		.global	audio_isr_ClearPending
 559              		.thumb
 560              		.thumb_func
 561              		.type	audio_isr_ClearPending, %function
 562              	audio_isr_ClearPending:
 563              	.LFB12:
 392:.\Generated_Source\PSoC5/audio_isr.c **** 
 393:.\Generated_Source\PSoC5/audio_isr.c **** 
 394:.\Generated_Source\PSoC5/audio_isr.c **** /*******************************************************************************
 395:.\Generated_Source\PSoC5/audio_isr.c **** * Function Name: audio_isr_ClearPending
 396:.\Generated_Source\PSoC5/audio_isr.c **** ********************************************************************************
 397:.\Generated_Source\PSoC5/audio_isr.c **** *
 398:.\Generated_Source\PSoC5/audio_isr.c **** * Summary:
 399:.\Generated_Source\PSoC5/audio_isr.c **** *   Clears a pending interrupt in the interrupt controller.
 400:.\Generated_Source\PSoC5/audio_isr.c **** *
 401:.\Generated_Source\PSoC5/audio_isr.c **** *   Note Some interrupt sources are clear-on-read and require the block 
 402:.\Generated_Source\PSoC5/audio_isr.c **** *   interrupt/status register to be read/cleared with the appropriate block API 
 403:.\Generated_Source\PSoC5/audio_isr.c **** *   (GPIO, UART, and so on). Otherwise the ISR will continue to remain in 
 404:.\Generated_Source\PSoC5/audio_isr.c **** *   pending state even though the interrupt itself is cleared using this API.
 405:.\Generated_Source\PSoC5/audio_isr.c **** *
 406:.\Generated_Source\PSoC5/audio_isr.c **** * Parameters:
ARM GAS  C:\Users\student\AppData\Local\Temp\cclMKz6y.s 			page 18


 407:.\Generated_Source\PSoC5/audio_isr.c **** *   None
 408:.\Generated_Source\PSoC5/audio_isr.c **** *
 409:.\Generated_Source\PSoC5/audio_isr.c **** * Return:
 410:.\Generated_Source\PSoC5/audio_isr.c **** *   None
 411:.\Generated_Source\PSoC5/audio_isr.c **** *
 412:.\Generated_Source\PSoC5/audio_isr.c **** *******************************************************************************/
 413:.\Generated_Source\PSoC5/audio_isr.c **** void audio_isr_ClearPending(void)
 414:.\Generated_Source\PSoC5/audio_isr.c **** {
 564              		.loc 1 414 0
 565              		.cfi_startproc
 566              		@ args = 0, pretend = 0, frame = 0
 567              		@ frame_needed = 1, uses_anonymous_args = 0
 568              		@ link register save eliminated.
 569 0000 80B4     		push	{r7}
 570              		.cfi_def_cfa_offset 4
 571              		.cfi_offset 7, -4
 572 0002 00AF     		add	r7, sp, #0
 573              		.cfi_def_cfa_register 7
 415:.\Generated_Source\PSoC5/audio_isr.c ****     *audio_isr_INTC_CLR_PD = audio_isr__INTC_MASK;
 574              		.loc 1 415 0
 575 0004 034B     		ldr	r3, .L41
 576 0006 0122     		movs	r2, #1
 577 0008 1A60     		str	r2, [r3]
 416:.\Generated_Source\PSoC5/audio_isr.c **** }
 578              		.loc 1 416 0
 579 000a BD46     		mov	sp, r7
 580              		.cfi_def_cfa_register 13
 581              		@ sp needed
 582 000c 5DF8047B 		ldr	r7, [sp], #4
 583              		.cfi_restore 7
 584              		.cfi_def_cfa_offset 0
 585 0010 7047     		bx	lr
 586              	.L42:
 587 0012 00BF     		.align	2
 588              	.L41:
 589 0014 80E200E0 		.word	-536812928
 590              		.cfi_endproc
 591              	.LFE12:
 592              		.size	audio_isr_ClearPending, .-audio_isr_ClearPending
 593              		.text
 594              	.Letext0:
 595              		.file 2 "Generated_Source\\PSoC5/cytypes.h"
 596              		.file 3 "./wav_tables.h"