ARM GAS  C:\Users\student\AppData\Local\Temp\ccFtVqcr.s 			page 1


   1              		.syntax unified
   2              		.cpu cortex-m3
   3              		.fpu softvfp
   4              		.eabi_attribute 20, 1
   5              		.eabi_attribute 21, 1
   6              		.eabi_attribute 23, 3
   7              		.eabi_attribute 24, 1
   8              		.eabi_attribute 25, 1
   9              		.eabi_attribute 26, 1
  10              		.eabi_attribute 30, 6
  11              		.eabi_attribute 34, 1
  12              		.eabi_attribute 18, 4
  13              		.thumb
  14              		.file	"cyfitter_cfg.c"
  15              		.text
  16              	.Ltext0:
  17              		.cfi_sections	.debug_frame
  18              		.section	.text.CYMEMZERO,"ax",%progbits
  19              		.align	2
  20              		.thumb
  21              		.thumb_func
  22              		.type	CYMEMZERO, %function
  23              	CYMEMZERO:
  24              	.LFB0:
  25              		.file 1 ".\\Generated_Source\\PSoC5\\cyfitter_cfg.c"
   1:.\Generated_Source\PSoC5/cyfitter_cfg.c **** /*******************************************************************************
   2:.\Generated_Source\PSoC5/cyfitter_cfg.c **** * File Name: cyfitter_cfg.c
   3:.\Generated_Source\PSoC5/cyfitter_cfg.c **** * 
   4:.\Generated_Source\PSoC5/cyfitter_cfg.c **** * PSoC Creator  3.3 CP3
   5:.\Generated_Source\PSoC5/cyfitter_cfg.c **** *
   6:.\Generated_Source\PSoC5/cyfitter_cfg.c **** * Description:
   7:.\Generated_Source\PSoC5/cyfitter_cfg.c **** * This file contains device initialization code.
   8:.\Generated_Source\PSoC5/cyfitter_cfg.c **** * Except for the user defined sections in CyClockStartupError(), this file should not be modified.
   9:.\Generated_Source\PSoC5/cyfitter_cfg.c **** * This file is automatically generated by PSoC Creator.
  10:.\Generated_Source\PSoC5/cyfitter_cfg.c **** *
  11:.\Generated_Source\PSoC5/cyfitter_cfg.c **** ********************************************************************************
  12:.\Generated_Source\PSoC5/cyfitter_cfg.c **** * Copyright (c) 2007-2016 Cypress Semiconductor.  All rights reserved.
  13:.\Generated_Source\PSoC5/cyfitter_cfg.c **** * You may use this file only in accordance with the license, terms, conditions, 
  14:.\Generated_Source\PSoC5/cyfitter_cfg.c **** * disclaimers, and limitations in the end user license agreement accompanying 
  15:.\Generated_Source\PSoC5/cyfitter_cfg.c **** * the software package with which this file was provided.
  16:.\Generated_Source\PSoC5/cyfitter_cfg.c **** ********************************************************************************/
  17:.\Generated_Source\PSoC5/cyfitter_cfg.c **** 
  18:.\Generated_Source\PSoC5/cyfitter_cfg.c **** #include <string.h>
  19:.\Generated_Source\PSoC5/cyfitter_cfg.c **** #include "cytypes.h"
  20:.\Generated_Source\PSoC5/cyfitter_cfg.c **** #include "cydevice_trm.h"
  21:.\Generated_Source\PSoC5/cyfitter_cfg.c **** #include "cyfitter.h"
  22:.\Generated_Source\PSoC5/cyfitter_cfg.c **** #include "CyLib.h"
  23:.\Generated_Source\PSoC5/cyfitter_cfg.c **** #include "cyfitter_cfg.h"
  24:.\Generated_Source\PSoC5/cyfitter_cfg.c **** 
  25:.\Generated_Source\PSoC5/cyfitter_cfg.c **** #define CY_NEED_CYCLOCKSTARTUPERROR 1
  26:.\Generated_Source\PSoC5/cyfitter_cfg.c **** 
  27:.\Generated_Source\PSoC5/cyfitter_cfg.c **** 
  28:.\Generated_Source\PSoC5/cyfitter_cfg.c **** #if defined(__GNUC__) || defined(__ARMCC_VERSION)
  29:.\Generated_Source\PSoC5/cyfitter_cfg.c ****     #define CYPACKED 
  30:.\Generated_Source\PSoC5/cyfitter_cfg.c ****     #define CYPACKED_ATTR __attribute__ ((packed))
  31:.\Generated_Source\PSoC5/cyfitter_cfg.c ****     #define CYALIGNED __attribute__ ((aligned))
  32:.\Generated_Source\PSoC5/cyfitter_cfg.c ****     #define CY_CFG_UNUSED __attribute__ ((unused))
ARM GAS  C:\Users\student\AppData\Local\Temp\ccFtVqcr.s 			page 2


  33:.\Generated_Source\PSoC5/cyfitter_cfg.c ****     #ifndef CY_CFG_SECTION
  34:.\Generated_Source\PSoC5/cyfitter_cfg.c ****         #define CY_CFG_SECTION __attribute__ ((section(".psocinit")))
  35:.\Generated_Source\PSoC5/cyfitter_cfg.c ****     #endif
  36:.\Generated_Source\PSoC5/cyfitter_cfg.c ****     
  37:.\Generated_Source\PSoC5/cyfitter_cfg.c ****     #if defined(__ARMCC_VERSION)
  38:.\Generated_Source\PSoC5/cyfitter_cfg.c ****         #define CY_CFG_MEMORY_BARRIER() __memory_changed()
  39:.\Generated_Source\PSoC5/cyfitter_cfg.c ****     #else
  40:.\Generated_Source\PSoC5/cyfitter_cfg.c ****         #define CY_CFG_MEMORY_BARRIER() __sync_synchronize()
  41:.\Generated_Source\PSoC5/cyfitter_cfg.c ****     #endif
  42:.\Generated_Source\PSoC5/cyfitter_cfg.c ****     
  43:.\Generated_Source\PSoC5/cyfitter_cfg.c **** #elif defined(__ICCARM__)
  44:.\Generated_Source\PSoC5/cyfitter_cfg.c ****     #include <intrinsics.h>
  45:.\Generated_Source\PSoC5/cyfitter_cfg.c **** 
  46:.\Generated_Source\PSoC5/cyfitter_cfg.c ****     #define CYPACKED __packed
  47:.\Generated_Source\PSoC5/cyfitter_cfg.c ****     #define CYPACKED_ATTR 
  48:.\Generated_Source\PSoC5/cyfitter_cfg.c ****     #define CYALIGNED _Pragma("data_alignment=4")
  49:.\Generated_Source\PSoC5/cyfitter_cfg.c ****     #define CY_CFG_UNUSED _Pragma("diag_suppress=Pe177")
  50:.\Generated_Source\PSoC5/cyfitter_cfg.c ****     #define CY_CFG_SECTION _Pragma("location=\".psocinit\"")
  51:.\Generated_Source\PSoC5/cyfitter_cfg.c ****     
  52:.\Generated_Source\PSoC5/cyfitter_cfg.c ****     #define CY_CFG_MEMORY_BARRIER() __DMB()
  53:.\Generated_Source\PSoC5/cyfitter_cfg.c ****     
  54:.\Generated_Source\PSoC5/cyfitter_cfg.c **** #else
  55:.\Generated_Source\PSoC5/cyfitter_cfg.c ****     #error Unsupported toolchain
  56:.\Generated_Source\PSoC5/cyfitter_cfg.c **** #endif
  57:.\Generated_Source\PSoC5/cyfitter_cfg.c **** 
  58:.\Generated_Source\PSoC5/cyfitter_cfg.c **** 
  59:.\Generated_Source\PSoC5/cyfitter_cfg.c **** CY_CFG_UNUSED
  60:.\Generated_Source\PSoC5/cyfitter_cfg.c **** static void CYMEMZERO(void *s, size_t n);
  61:.\Generated_Source\PSoC5/cyfitter_cfg.c **** CY_CFG_UNUSED
  62:.\Generated_Source\PSoC5/cyfitter_cfg.c **** static void CYMEMZERO(void *s, size_t n)
  63:.\Generated_Source\PSoC5/cyfitter_cfg.c **** {
  26              		.loc 1 63 0
  27              		.cfi_startproc
  28              		@ args = 0, pretend = 0, frame = 8
  29              		@ frame_needed = 1, uses_anonymous_args = 0
  30 0000 80B5     		push	{r7, lr}
  31              		.cfi_def_cfa_offset 8
  32              		.cfi_offset 7, -8
  33              		.cfi_offset 14, -4
  34 0002 82B0     		sub	sp, sp, #8
  35              		.cfi_def_cfa_offset 16
  36 0004 00AF     		add	r7, sp, #0
  37              		.cfi_def_cfa_register 7
  38 0006 7860     		str	r0, [r7, #4]
  39 0008 3960     		str	r1, [r7]
  64:.\Generated_Source\PSoC5/cyfitter_cfg.c **** 	(void)memset(s, 0, n);
  40              		.loc 1 64 0
  41 000a 7868     		ldr	r0, [r7, #4]
  42 000c 0021     		movs	r1, #0
  43 000e 3A68     		ldr	r2, [r7]
  44 0010 FFF7FEFF 		bl	memset
  65:.\Generated_Source\PSoC5/cyfitter_cfg.c **** }
  45              		.loc 1 65 0
  46 0014 0837     		adds	r7, r7, #8
  47              		.cfi_def_cfa_offset 8
  48 0016 BD46     		mov	sp, r7
  49              		.cfi_def_cfa_register 13
ARM GAS  C:\Users\student\AppData\Local\Temp\ccFtVqcr.s 			page 3


  50              		@ sp needed
  51 0018 80BD     		pop	{r7, pc}
  52              		.cfi_endproc
  53              	.LFE0:
  54              		.size	CYMEMZERO, .-CYMEMZERO
  55 001a 00BF     		.section	.text.CYCONFIGCPY,"ax",%progbits
  56              		.align	2
  57              		.thumb
  58              		.thumb_func
  59              		.type	CYCONFIGCPY, %function
  60              	CYCONFIGCPY:
  61              	.LFB1:
  66:.\Generated_Source\PSoC5/cyfitter_cfg.c **** CY_CFG_UNUSED
  67:.\Generated_Source\PSoC5/cyfitter_cfg.c **** static void CYCONFIGCPY(void *dest, const void *src, size_t n);
  68:.\Generated_Source\PSoC5/cyfitter_cfg.c **** CY_CFG_UNUSED
  69:.\Generated_Source\PSoC5/cyfitter_cfg.c **** static void CYCONFIGCPY(void *dest, const void *src, size_t n)
  70:.\Generated_Source\PSoC5/cyfitter_cfg.c **** {
  62              		.loc 1 70 0
  63              		.cfi_startproc
  64              		@ args = 0, pretend = 0, frame = 16
  65              		@ frame_needed = 1, uses_anonymous_args = 0
  66 0000 80B5     		push	{r7, lr}
  67              		.cfi_def_cfa_offset 8
  68              		.cfi_offset 7, -8
  69              		.cfi_offset 14, -4
  70 0002 84B0     		sub	sp, sp, #16
  71              		.cfi_def_cfa_offset 24
  72 0004 00AF     		add	r7, sp, #0
  73              		.cfi_def_cfa_register 7
  74 0006 F860     		str	r0, [r7, #12]
  75 0008 B960     		str	r1, [r7, #8]
  76 000a 7A60     		str	r2, [r7, #4]
  71:.\Generated_Source\PSoC5/cyfitter_cfg.c **** 	(void)memcpy(dest, src, n);
  77              		.loc 1 71 0
  78 000c F868     		ldr	r0, [r7, #12]
  79 000e B968     		ldr	r1, [r7, #8]
  80 0010 7A68     		ldr	r2, [r7, #4]
  81 0012 FFF7FEFF 		bl	memcpy
  72:.\Generated_Source\PSoC5/cyfitter_cfg.c **** }
  82              		.loc 1 72 0
  83 0016 1037     		adds	r7, r7, #16
  84              		.cfi_def_cfa_offset 8
  85 0018 BD46     		mov	sp, r7
  86              		.cfi_def_cfa_register 13
  87              		@ sp needed
  88 001a 80BD     		pop	{r7, pc}
  89              		.cfi_endproc
  90              	.LFE1:
  91              		.size	CYCONFIGCPY, .-CYCONFIGCPY
  92              		.section	.text.CYCONFIGCPYCODE,"ax",%progbits
  93              		.align	2
  94              		.thumb
  95              		.thumb_func
  96              		.type	CYCONFIGCPYCODE, %function
  97              	CYCONFIGCPYCODE:
  98              	.LFB2:
  73:.\Generated_Source\PSoC5/cyfitter_cfg.c **** CY_CFG_UNUSED
ARM GAS  C:\Users\student\AppData\Local\Temp\ccFtVqcr.s 			page 4


  74:.\Generated_Source\PSoC5/cyfitter_cfg.c **** static void CYCONFIGCPYCODE(void *dest, const void *src, size_t n);
  75:.\Generated_Source\PSoC5/cyfitter_cfg.c **** CY_CFG_UNUSED
  76:.\Generated_Source\PSoC5/cyfitter_cfg.c **** static void CYCONFIGCPYCODE(void *dest, const void *src, size_t n)
  77:.\Generated_Source\PSoC5/cyfitter_cfg.c **** {
  99              		.loc 1 77 0
 100              		.cfi_startproc
 101              		@ args = 0, pretend = 0, frame = 16
 102              		@ frame_needed = 1, uses_anonymous_args = 0
 103 0000 80B5     		push	{r7, lr}
 104              		.cfi_def_cfa_offset 8
 105              		.cfi_offset 7, -8
 106              		.cfi_offset 14, -4
 107 0002 84B0     		sub	sp, sp, #16
 108              		.cfi_def_cfa_offset 24
 109 0004 00AF     		add	r7, sp, #0
 110              		.cfi_def_cfa_register 7
 111 0006 F860     		str	r0, [r7, #12]
 112 0008 B960     		str	r1, [r7, #8]
 113 000a 7A60     		str	r2, [r7, #4]
  78:.\Generated_Source\PSoC5/cyfitter_cfg.c **** 	(void)memcpy(dest, src, n);
 114              		.loc 1 78 0
 115 000c F868     		ldr	r0, [r7, #12]
 116 000e B968     		ldr	r1, [r7, #8]
 117 0010 7A68     		ldr	r2, [r7, #4]
 118 0012 FFF7FEFF 		bl	memcpy
  79:.\Generated_Source\PSoC5/cyfitter_cfg.c **** }
 119              		.loc 1 79 0
 120 0016 1037     		adds	r7, r7, #16
 121              		.cfi_def_cfa_offset 8
 122 0018 BD46     		mov	sp, r7
 123              		.cfi_def_cfa_register 13
 124              		@ sp needed
 125 001a 80BD     		pop	{r7, pc}
 126              		.cfi_endproc
 127              	.LFE2:
 128              		.size	CYCONFIGCPYCODE, .-CYCONFIGCPYCODE
 129              		.section	.text.CyClockStartupError,"ax",%progbits
 130              		.align	2
 131              		.thumb
 132              		.thumb_func
 133              		.type	CyClockStartupError, %function
 134              	CyClockStartupError:
 135              	.LFB3:
  80:.\Generated_Source\PSoC5/cyfitter_cfg.c **** 
  81:.\Generated_Source\PSoC5/cyfitter_cfg.c **** 
  82:.\Generated_Source\PSoC5/cyfitter_cfg.c **** 
  83:.\Generated_Source\PSoC5/cyfitter_cfg.c **** /* Clock startup error codes                                                   */
  84:.\Generated_Source\PSoC5/cyfitter_cfg.c **** #define CYCLOCKSTART_NO_ERROR    0u
  85:.\Generated_Source\PSoC5/cyfitter_cfg.c **** #define CYCLOCKSTART_XTAL_ERROR  1u
  86:.\Generated_Source\PSoC5/cyfitter_cfg.c **** #define CYCLOCKSTART_32KHZ_ERROR 2u
  87:.\Generated_Source\PSoC5/cyfitter_cfg.c **** #define CYCLOCKSTART_PLL_ERROR   3u
  88:.\Generated_Source\PSoC5/cyfitter_cfg.c **** 
  89:.\Generated_Source\PSoC5/cyfitter_cfg.c **** #ifdef CY_NEED_CYCLOCKSTARTUPERROR
  90:.\Generated_Source\PSoC5/cyfitter_cfg.c **** /*******************************************************************************
  91:.\Generated_Source\PSoC5/cyfitter_cfg.c **** * Function Name: CyClockStartupError
  92:.\Generated_Source\PSoC5/cyfitter_cfg.c **** ********************************************************************************
  93:.\Generated_Source\PSoC5/cyfitter_cfg.c **** * Summary:
ARM GAS  C:\Users\student\AppData\Local\Temp\ccFtVqcr.s 			page 5


  94:.\Generated_Source\PSoC5/cyfitter_cfg.c **** *  If an error is encountered during clock configuration (crystal startup error,
  95:.\Generated_Source\PSoC5/cyfitter_cfg.c **** *  PLL lock error, etc.), the system will end up here.  Unless reimplemented by
  96:.\Generated_Source\PSoC5/cyfitter_cfg.c **** *  the customer, this function will stop in an infinite loop.
  97:.\Generated_Source\PSoC5/cyfitter_cfg.c **** *
  98:.\Generated_Source\PSoC5/cyfitter_cfg.c **** * Parameters:
  99:.\Generated_Source\PSoC5/cyfitter_cfg.c **** *   void
 100:.\Generated_Source\PSoC5/cyfitter_cfg.c **** *
 101:.\Generated_Source\PSoC5/cyfitter_cfg.c **** * Return:
 102:.\Generated_Source\PSoC5/cyfitter_cfg.c **** *   void
 103:.\Generated_Source\PSoC5/cyfitter_cfg.c **** *
 104:.\Generated_Source\PSoC5/cyfitter_cfg.c **** *******************************************************************************/
 105:.\Generated_Source\PSoC5/cyfitter_cfg.c **** CY_CFG_UNUSED
 106:.\Generated_Source\PSoC5/cyfitter_cfg.c **** static void CyClockStartupError(uint8 errorCode);
 107:.\Generated_Source\PSoC5/cyfitter_cfg.c **** CY_CFG_UNUSED
 108:.\Generated_Source\PSoC5/cyfitter_cfg.c **** static void CyClockStartupError(uint8 errorCode)
 109:.\Generated_Source\PSoC5/cyfitter_cfg.c **** {
 136              		.loc 1 109 0
 137              		.cfi_startproc
 138              		@ args = 0, pretend = 0, frame = 8
 139              		@ frame_needed = 1, uses_anonymous_args = 0
 140              		@ link register save eliminated.
 141 0000 80B4     		push	{r7}
 142              		.cfi_def_cfa_offset 4
 143              		.cfi_offset 7, -4
 144 0002 83B0     		sub	sp, sp, #12
 145              		.cfi_def_cfa_offset 16
 146 0004 00AF     		add	r7, sp, #0
 147              		.cfi_def_cfa_register 7
 148 0006 0346     		mov	r3, r0
 149 0008 FB71     		strb	r3, [r7, #7]
 150              	.L5:
 110:.\Generated_Source\PSoC5/cyfitter_cfg.c ****     /* To remove the compiler warning if errorCode not used.                */
 111:.\Generated_Source\PSoC5/cyfitter_cfg.c ****     errorCode = errorCode;
 112:.\Generated_Source\PSoC5/cyfitter_cfg.c **** 
 113:.\Generated_Source\PSoC5/cyfitter_cfg.c ****     /* `#START CyClockStartupError` */
 114:.\Generated_Source\PSoC5/cyfitter_cfg.c **** 
 115:.\Generated_Source\PSoC5/cyfitter_cfg.c ****     /* If we have a clock startup error (bad MHz crystal, PLL lock, etc.),  */
 116:.\Generated_Source\PSoC5/cyfitter_cfg.c ****     /* we will end up here to allow the customer to implement something to  */
 117:.\Generated_Source\PSoC5/cyfitter_cfg.c ****     /* deal with the clock condition.                                       */
 118:.\Generated_Source\PSoC5/cyfitter_cfg.c **** 
 119:.\Generated_Source\PSoC5/cyfitter_cfg.c ****     /* `#END` */
 120:.\Generated_Source\PSoC5/cyfitter_cfg.c **** 
 121:.\Generated_Source\PSoC5/cyfitter_cfg.c ****     /* If nothing else, stop here since the clocks have not started         */
 122:.\Generated_Source\PSoC5/cyfitter_cfg.c ****     /* correctly.                                                           */
 123:.\Generated_Source\PSoC5/cyfitter_cfg.c ****     while(1) {}
 151              		.loc 1 123 0 discriminator 1
 152 000a FEE7     		b	.L5
 153              		.cfi_endproc
 154              	.LFE3:
 155              		.size	CyClockStartupError, .-CyClockStartupError
 156              		.section	.text.cfg_write_bytes32,"ax",%progbits
 157              		.align	2
 158              		.thumb
 159              		.thumb_func
 160              		.type	cfg_write_bytes32, %function
 161              	cfg_write_bytes32:
 162              	.LFB4:
ARM GAS  C:\Users\student\AppData\Local\Temp\ccFtVqcr.s 			page 6


 124:.\Generated_Source\PSoC5/cyfitter_cfg.c **** }
 125:.\Generated_Source\PSoC5/cyfitter_cfg.c **** #endif
 126:.\Generated_Source\PSoC5/cyfitter_cfg.c **** 
 127:.\Generated_Source\PSoC5/cyfitter_cfg.c **** #define CY_CFG_BASE_ADDR_COUNT 19u
 128:.\Generated_Source\PSoC5/cyfitter_cfg.c **** CYPACKED typedef struct
 129:.\Generated_Source\PSoC5/cyfitter_cfg.c **** {
 130:.\Generated_Source\PSoC5/cyfitter_cfg.c **** 	uint8 offset;
 131:.\Generated_Source\PSoC5/cyfitter_cfg.c **** 	uint8 value;
 132:.\Generated_Source\PSoC5/cyfitter_cfg.c **** } CYPACKED_ATTR cy_cfg_addrvalue_t;
 133:.\Generated_Source\PSoC5/cyfitter_cfg.c **** 
 134:.\Generated_Source\PSoC5/cyfitter_cfg.c **** #define cy_cfg_addr_table ((const uint32 CYFAR *)0x48000000u)
 135:.\Generated_Source\PSoC5/cyfitter_cfg.c **** #define cy_cfg_data_table ((const cy_cfg_addrvalue_t CYFAR *)0x4800004Cu)
 136:.\Generated_Source\PSoC5/cyfitter_cfg.c **** 
 137:.\Generated_Source\PSoC5/cyfitter_cfg.c **** /* IOPINS0_0 Address: CYREG_PRT0_DM0 Size (bytes): 8 */
 138:.\Generated_Source\PSoC5/cyfitter_cfg.c **** #define BS_IOPINS0_0_VAL ((const uint8 CYFAR *)0x48000134u)
 139:.\Generated_Source\PSoC5/cyfitter_cfg.c **** 
 140:.\Generated_Source\PSoC5/cyfitter_cfg.c **** /* IOPINS0_1 Address: CYREG_PRT1_DM0 Size (bytes): 8 */
 141:.\Generated_Source\PSoC5/cyfitter_cfg.c **** #define BS_IOPINS0_1_VAL ((const uint8 CYFAR *)0x4800013Cu)
 142:.\Generated_Source\PSoC5/cyfitter_cfg.c **** 
 143:.\Generated_Source\PSoC5/cyfitter_cfg.c **** /* IOPINS0_2 Address: CYREG_PRT2_DM0 Size (bytes): 8 */
 144:.\Generated_Source\PSoC5/cyfitter_cfg.c **** #define BS_IOPINS0_2_VAL ((const uint8 CYFAR *)0x48000144u)
 145:.\Generated_Source\PSoC5/cyfitter_cfg.c **** 
 146:.\Generated_Source\PSoC5/cyfitter_cfg.c **** /* IOPINS0_6 Address: CYREG_PRT6_DM0 Size (bytes): 8 */
 147:.\Generated_Source\PSoC5/cyfitter_cfg.c **** #define BS_IOPINS0_6_VAL ((const uint8 CYFAR *)0x4800014Cu)
 148:.\Generated_Source\PSoC5/cyfitter_cfg.c **** 
 149:.\Generated_Source\PSoC5/cyfitter_cfg.c **** /* CYDEV_CLKDIST_ACFG0_CFG0 Address: CYREG_CLKDIST_ACFG0_CFG0 Size (bytes): 4 */
 150:.\Generated_Source\PSoC5/cyfitter_cfg.c **** #define BS_CYDEV_CLKDIST_ACFG0_CFG0_VAL ((const uint8 CYFAR *)0x48000154u)
 151:.\Generated_Source\PSoC5/cyfitter_cfg.c **** 
 152:.\Generated_Source\PSoC5/cyfitter_cfg.c **** 
 153:.\Generated_Source\PSoC5/cyfitter_cfg.c **** /*******************************************************************************
 154:.\Generated_Source\PSoC5/cyfitter_cfg.c **** * Function Name: cfg_write_bytes32
 155:.\Generated_Source\PSoC5/cyfitter_cfg.c **** ********************************************************************************
 156:.\Generated_Source\PSoC5/cyfitter_cfg.c **** * Summary:
 157:.\Generated_Source\PSoC5/cyfitter_cfg.c **** *  This function is used for setting up the chip configuration areas that
 158:.\Generated_Source\PSoC5/cyfitter_cfg.c **** *  contain relatively sparse data.
 159:.\Generated_Source\PSoC5/cyfitter_cfg.c **** *
 160:.\Generated_Source\PSoC5/cyfitter_cfg.c **** * Parameters:
 161:.\Generated_Source\PSoC5/cyfitter_cfg.c **** *   void
 162:.\Generated_Source\PSoC5/cyfitter_cfg.c **** *
 163:.\Generated_Source\PSoC5/cyfitter_cfg.c **** * Return:
 164:.\Generated_Source\PSoC5/cyfitter_cfg.c **** *   void
 165:.\Generated_Source\PSoC5/cyfitter_cfg.c **** *
 166:.\Generated_Source\PSoC5/cyfitter_cfg.c **** *******************************************************************************/
 167:.\Generated_Source\PSoC5/cyfitter_cfg.c **** static void cfg_write_bytes32(const uint32 addr_table[], const cy_cfg_addrvalue_t data_table[]);
 168:.\Generated_Source\PSoC5/cyfitter_cfg.c **** static void cfg_write_bytes32(const uint32 addr_table[], const cy_cfg_addrvalue_t data_table[])
 169:.\Generated_Source\PSoC5/cyfitter_cfg.c **** {
 163              		.loc 1 169 0
 164              		.cfi_startproc
 165              		@ args = 0, pretend = 0, frame = 24
 166              		@ frame_needed = 1, uses_anonymous_args = 0
 167              		@ link register save eliminated.
 168 0000 80B4     		push	{r7}
 169              		.cfi_def_cfa_offset 4
 170              		.cfi_offset 7, -4
 171 0002 87B0     		sub	sp, sp, #28
 172              		.cfi_def_cfa_offset 32
 173 0004 00AF     		add	r7, sp, #0
ARM GAS  C:\Users\student\AppData\Local\Temp\ccFtVqcr.s 			page 7


 174              		.cfi_def_cfa_register 7
 175 0006 7860     		str	r0, [r7, #4]
 176 0008 3960     		str	r1, [r7]
 170:.\Generated_Source\PSoC5/cyfitter_cfg.c **** 	/* For 32-bit little-endian architectures */
 171:.\Generated_Source\PSoC5/cyfitter_cfg.c **** 	uint32 i, j = 0u;
 177              		.loc 1 171 0
 178 000a 0023     		movs	r3, #0
 179 000c 3B61     		str	r3, [r7, #16]
 172:.\Generated_Source\PSoC5/cyfitter_cfg.c **** 	for (i = 0u; i < CY_CFG_BASE_ADDR_COUNT; i++)
 180              		.loc 1 172 0
 181 000e 0023     		movs	r3, #0
 182 0010 7B61     		str	r3, [r7, #20]
 183 0012 27E0     		b	.L7
 184              	.L10:
 185              	.LBB2:
 173:.\Generated_Source\PSoC5/cyfitter_cfg.c **** 	{
 174:.\Generated_Source\PSoC5/cyfitter_cfg.c **** 		uint32 baseAddr = addr_table[i];
 186              		.loc 1 174 0
 187 0014 7B69     		ldr	r3, [r7, #20]
 188 0016 9B00     		lsls	r3, r3, #2
 189 0018 7A68     		ldr	r2, [r7, #4]
 190 001a 1344     		add	r3, r3, r2
 191 001c 1B68     		ldr	r3, [r3]
 192 001e BB60     		str	r3, [r7, #8]
 175:.\Generated_Source\PSoC5/cyfitter_cfg.c **** 		uint8 count = (uint8)baseAddr;
 193              		.loc 1 175 0
 194 0020 BB68     		ldr	r3, [r7, #8]
 195 0022 FB73     		strb	r3, [r7, #15]
 176:.\Generated_Source\PSoC5/cyfitter_cfg.c **** 		baseAddr &= 0xFFFFFF00u;
 196              		.loc 1 176 0
 197 0024 BB68     		ldr	r3, [r7, #8]
 198 0026 23F0FF03 		bic	r3, r3, #255
 199 002a BB60     		str	r3, [r7, #8]
 177:.\Generated_Source\PSoC5/cyfitter_cfg.c **** 		while (count != 0u)
 200              		.loc 1 177 0
 201 002c 14E0     		b	.L8
 202              	.L9:
 178:.\Generated_Source\PSoC5/cyfitter_cfg.c **** 		{
 179:.\Generated_Source\PSoC5/cyfitter_cfg.c **** 			CY_SET_XTND_REG8((void CYFAR *)(baseAddr + data_table[j].offset), data_table[j].value);
 203              		.loc 1 179 0
 204 002e 3B69     		ldr	r3, [r7, #16]
 205 0030 5B00     		lsls	r3, r3, #1
 206 0032 3A68     		ldr	r2, [r7]
 207 0034 1344     		add	r3, r3, r2
 208 0036 1B78     		ldrb	r3, [r3]	@ zero_extendqisi2
 209 0038 1A46     		mov	r2, r3
 210 003a BB68     		ldr	r3, [r7, #8]
 211 003c 1344     		add	r3, r3, r2
 212 003e 1946     		mov	r1, r3
 213 0040 3B69     		ldr	r3, [r7, #16]
 214 0042 5B00     		lsls	r3, r3, #1
 215 0044 3A68     		ldr	r2, [r7]
 216 0046 1344     		add	r3, r3, r2
 217 0048 5B78     		ldrb	r3, [r3, #1]	@ zero_extendqisi2
 218 004a 0B70     		strb	r3, [r1]
 180:.\Generated_Source\PSoC5/cyfitter_cfg.c **** 			j++;
 219              		.loc 1 180 0
ARM GAS  C:\Users\student\AppData\Local\Temp\ccFtVqcr.s 			page 8


 220 004c 3B69     		ldr	r3, [r7, #16]
 221 004e 0133     		adds	r3, r3, #1
 222 0050 3B61     		str	r3, [r7, #16]
 181:.\Generated_Source\PSoC5/cyfitter_cfg.c **** 			count--;
 223              		.loc 1 181 0
 224 0052 FB7B     		ldrb	r3, [r7, #15]	@ zero_extendqisi2
 225 0054 013B     		subs	r3, r3, #1
 226 0056 FB73     		strb	r3, [r7, #15]
 227              	.L8:
 177:.\Generated_Source\PSoC5/cyfitter_cfg.c **** 		{
 228              		.loc 1 177 0
 229 0058 FB7B     		ldrb	r3, [r7, #15]	@ zero_extendqisi2
 230 005a 002B     		cmp	r3, #0
 231 005c E7D1     		bne	.L9
 232              	.LBE2:
 172:.\Generated_Source\PSoC5/cyfitter_cfg.c **** 	{
 233              		.loc 1 172 0 discriminator 2
 234 005e 7B69     		ldr	r3, [r7, #20]
 235 0060 0133     		adds	r3, r3, #1
 236 0062 7B61     		str	r3, [r7, #20]
 237              	.L7:
 172:.\Generated_Source\PSoC5/cyfitter_cfg.c **** 	{
 238              		.loc 1 172 0 is_stmt 0 discriminator 1
 239 0064 7B69     		ldr	r3, [r7, #20]
 240 0066 122B     		cmp	r3, #18
 241 0068 D4D9     		bls	.L10
 182:.\Generated_Source\PSoC5/cyfitter_cfg.c **** 		}
 183:.\Generated_Source\PSoC5/cyfitter_cfg.c **** 	}
 184:.\Generated_Source\PSoC5/cyfitter_cfg.c **** }
 242              		.loc 1 184 0 is_stmt 1
 243 006a 1C37     		adds	r7, r7, #28
 244              		.cfi_def_cfa_offset 4
 245 006c BD46     		mov	sp, r7
 246              		.cfi_def_cfa_register 13
 247              		@ sp needed
 248 006e 5DF8047B 		ldr	r7, [sp], #4
 249              		.cfi_restore 7
 250              		.cfi_def_cfa_offset 0
 251 0072 7047     		bx	lr
 252              		.cfi_endproc
 253              	.LFE4:
 254              		.size	cfg_write_bytes32, .-cfg_write_bytes32
 255              		.section	.text.ClockSetup,"ax",%progbits
 256              		.align	2
 257              		.thumb
 258              		.thumb_func
 259              		.type	ClockSetup, %function
 260              	ClockSetup:
 261              	.LFB5:
 185:.\Generated_Source\PSoC5/cyfitter_cfg.c **** 
 186:.\Generated_Source\PSoC5/cyfitter_cfg.c **** /*******************************************************************************
 187:.\Generated_Source\PSoC5/cyfitter_cfg.c **** * Function Name: ClockSetup
 188:.\Generated_Source\PSoC5/cyfitter_cfg.c **** ********************************************************************************
 189:.\Generated_Source\PSoC5/cyfitter_cfg.c **** *
 190:.\Generated_Source\PSoC5/cyfitter_cfg.c **** * Summary:
 191:.\Generated_Source\PSoC5/cyfitter_cfg.c **** *  Performs the initialization of all of the clocks in the device based on the
 192:.\Generated_Source\PSoC5/cyfitter_cfg.c **** *  settings in the Clock tab of the DWR.  This includes enabling the requested
ARM GAS  C:\Users\student\AppData\Local\Temp\ccFtVqcr.s 			page 9


 193:.\Generated_Source\PSoC5/cyfitter_cfg.c **** *  clocks and setting the necessary dividers to produce the desired frequency. 
 194:.\Generated_Source\PSoC5/cyfitter_cfg.c **** *
 195:.\Generated_Source\PSoC5/cyfitter_cfg.c **** * Parameters:
 196:.\Generated_Source\PSoC5/cyfitter_cfg.c **** *  void
 197:.\Generated_Source\PSoC5/cyfitter_cfg.c **** *
 198:.\Generated_Source\PSoC5/cyfitter_cfg.c **** * Return:
 199:.\Generated_Source\PSoC5/cyfitter_cfg.c **** *  void
 200:.\Generated_Source\PSoC5/cyfitter_cfg.c **** *
 201:.\Generated_Source\PSoC5/cyfitter_cfg.c **** *******************************************************************************/
 202:.\Generated_Source\PSoC5/cyfitter_cfg.c **** static void ClockSetup(void);
 203:.\Generated_Source\PSoC5/cyfitter_cfg.c **** static void ClockSetup(void)
 204:.\Generated_Source\PSoC5/cyfitter_cfg.c **** {
 262              		.loc 1 204 0
 263              		.cfi_startproc
 264              		@ args = 0, pretend = 0, frame = 8
 265              		@ frame_needed = 1, uses_anonymous_args = 0
 266 0000 80B5     		push	{r7, lr}
 267              		.cfi_def_cfa_offset 8
 268              		.cfi_offset 7, -8
 269              		.cfi_offset 14, -4
 270 0002 82B0     		sub	sp, sp, #8
 271              		.cfi_def_cfa_offset 16
 272 0004 00AF     		add	r7, sp, #0
 273              		.cfi_def_cfa_register 7
 205:.\Generated_Source\PSoC5/cyfitter_cfg.c **** 	uint32 timeout;
 206:.\Generated_Source\PSoC5/cyfitter_cfg.c **** 	uint8 pllLock;
 207:.\Generated_Source\PSoC5/cyfitter_cfg.c **** 
 208:.\Generated_Source\PSoC5/cyfitter_cfg.c **** 
 209:.\Generated_Source\PSoC5/cyfitter_cfg.c **** 	/* Configure Digital Clocks based on settings from Clock DWR */
 210:.\Generated_Source\PSoC5/cyfitter_cfg.c **** 	CY_SET_XTND_REG16((void CYFAR *)(CYREG_CLKDIST_DCFG0_CFG0), 0x0000u);
 274              		.loc 1 210 0
 275 0006 3C4B     		ldr	r3, .L16
 276 0008 0022     		movs	r2, #0
 277 000a 1A80     		strh	r2, [r3]	@ movhi
 211:.\Generated_Source\PSoC5/cyfitter_cfg.c **** 	CY_SET_XTND_REG8((void CYFAR *)(CYREG_CLKDIST_DCFG0_CFG0 + 0x2u), 0x50u);
 278              		.loc 1 211 0
 279 000c 3B4B     		ldr	r3, .L16+4
 280 000e 5022     		movs	r2, #80
 281 0010 1A70     		strb	r2, [r3]
 212:.\Generated_Source\PSoC5/cyfitter_cfg.c **** 
 213:.\Generated_Source\PSoC5/cyfitter_cfg.c **** 	/* Configure Analog Clocks based on settings from Clock DWR */
 214:.\Generated_Source\PSoC5/cyfitter_cfg.c **** 	CYCONFIGCPY((void CYFAR *)(CYREG_CLKDIST_ACFG0_CFG0), (const void CYFAR *)(BS_CYDEV_CLKDIST_ACFG0_
 282              		.loc 1 214 0
 283 0012 3B48     		ldr	r0, .L16+8
 284 0014 3B49     		ldr	r1, .L16+12
 285 0016 0422     		movs	r2, #4
 286 0018 FFF7FEFF 		bl	CYCONFIGCPY
 215:.\Generated_Source\PSoC5/cyfitter_cfg.c **** 
 216:.\Generated_Source\PSoC5/cyfitter_cfg.c **** 	/* Configure ILO based on settings from Clock DWR */
 217:.\Generated_Source\PSoC5/cyfitter_cfg.c **** 	CY_SET_XTND_REG8((void CYFAR *)(CYREG_SLOWCLK_ILO_CR0), 0x02u);
 287              		.loc 1 217 0
 288 001c 3A4B     		ldr	r3, .L16+16
 289 001e 0222     		movs	r2, #2
 290 0020 1A70     		strb	r2, [r3]
 218:.\Generated_Source\PSoC5/cyfitter_cfg.c **** 	CY_SET_XTND_REG8((void CYFAR *)(CYREG_CLKDIST_CR), 0x08u);
 291              		.loc 1 218 0
 292 0022 4FF04023 		mov	r3, #1073758208
ARM GAS  C:\Users\student\AppData\Local\Temp\ccFtVqcr.s 			page 10


 293 0026 0822     		movs	r2, #8
 294 0028 1A70     		strb	r2, [r3]
 219:.\Generated_Source\PSoC5/cyfitter_cfg.c **** 
 220:.\Generated_Source\PSoC5/cyfitter_cfg.c **** 	/* Configure IMO based on settings from Clock DWR */
 221:.\Generated_Source\PSoC5/cyfitter_cfg.c **** 	CY_SET_XTND_REG8((void CYFAR *)(CYREG_FASTCLK_IMO_CR), 0x03u);
 295              		.loc 1 221 0
 296 002a 384B     		ldr	r3, .L16+20
 297 002c 0322     		movs	r2, #3
 298 002e 1A70     		strb	r2, [r3]
 222:.\Generated_Source\PSoC5/cyfitter_cfg.c **** 	CY_SET_XTND_REG8((void CYFAR *)(CYREG_IMO_TR1), (CY_GET_XTND_REG8((void CYFAR *)CYREG_FLSHID_CUST_
 299              		.loc 1 222 0
 300 0030 374B     		ldr	r3, .L16+24
 301 0032 384A     		ldr	r2, .L16+28
 302 0034 1278     		ldrb	r2, [r2]
 303 0036 D2B2     		uxtb	r2, r2
 304 0038 1A70     		strb	r2, [r3]
 223:.\Generated_Source\PSoC5/cyfitter_cfg.c **** 
 224:.\Generated_Source\PSoC5/cyfitter_cfg.c **** 	/* Configure PLL based on settings from Clock DWR */
 225:.\Generated_Source\PSoC5/cyfitter_cfg.c **** 	CY_SET_XTND_REG16((void CYFAR *)(CYREG_FASTCLK_PLL_P), 0x0008u);
 305              		.loc 1 225 0
 306 003a 374B     		ldr	r3, .L16+32
 307 003c 0822     		movs	r2, #8
 308 003e 1A80     		strh	r2, [r3]	@ movhi
 226:.\Generated_Source\PSoC5/cyfitter_cfg.c **** 	CY_SET_XTND_REG16((void CYFAR *)(CYREG_FASTCLK_PLL_CFG0), 0x1251u);
 309              		.loc 1 226 0
 310 0040 364B     		ldr	r3, .L16+36
 311 0042 41F25122 		movw	r2, #4689
 312 0046 1A80     		strh	r2, [r3]	@ movhi
 227:.\Generated_Source\PSoC5/cyfitter_cfg.c **** 	/* Wait up to 250us for the PLL to lock */
 228:.\Generated_Source\PSoC5/cyfitter_cfg.c **** 	pllLock = 0u;
 313              		.loc 1 228 0
 314 0048 0023     		movs	r3, #0
 315 004a FB70     		strb	r3, [r7, #3]
 229:.\Generated_Source\PSoC5/cyfitter_cfg.c **** 	for (timeout = 250u / 10u; (timeout > 0u) && (pllLock != 0x03u); timeout--)
 316              		.loc 1 229 0
 317 004c 1923     		movs	r3, #25
 318 004e 7B60     		str	r3, [r7, #4]
 319 0050 14E0     		b	.L12
 320              	.L14:
 230:.\Generated_Source\PSoC5/cyfitter_cfg.c **** 	{ 
 231:.\Generated_Source\PSoC5/cyfitter_cfg.c **** 		pllLock = 0x03u & ((uint8)((uint8)pllLock << 1) | ((CY_GET_XTND_REG8((void CYFAR *)CYREG_FASTCLK_
 321              		.loc 1 231 0 discriminator 4
 322 0052 FB78     		ldrb	r3, [r7, #3]
 323 0054 5B00     		lsls	r3, r3, #1
 324 0056 DAB2     		uxtb	r2, r3
 325 0058 314B     		ldr	r3, .L16+40
 326 005a 1B78     		ldrb	r3, [r3]
 327 005c DBB2     		uxtb	r3, r3
 328 005e 03F00103 		and	r3, r3, #1
 329 0062 DBB2     		uxtb	r3, r3
 330 0064 1343     		orrs	r3, r3, r2
 331 0066 DBB2     		uxtb	r3, r3
 332 0068 03F00303 		and	r3, r3, #3
 333 006c FB70     		strb	r3, [r7, #3]
 232:.\Generated_Source\PSoC5/cyfitter_cfg.c **** 		CyDelayCycles(10u * 48u); /* Delay 10us based on 48MHz clock */
 334              		.loc 1 232 0 discriminator 4
 335 006e 4FF4F070 		mov	r0, #480
ARM GAS  C:\Users\student\AppData\Local\Temp\ccFtVqcr.s 			page 11


 336 0072 FFF7FEFF 		bl	CyDelayCycles
 229:.\Generated_Source\PSoC5/cyfitter_cfg.c **** 	for (timeout = 250u / 10u; (timeout > 0u) && (pllLock != 0x03u); timeout--)
 337              		.loc 1 229 0 discriminator 4
 338 0076 7B68     		ldr	r3, [r7, #4]
 339 0078 013B     		subs	r3, r3, #1
 340 007a 7B60     		str	r3, [r7, #4]
 341              	.L12:
 229:.\Generated_Source\PSoC5/cyfitter_cfg.c **** 	for (timeout = 250u / 10u; (timeout > 0u) && (pllLock != 0x03u); timeout--)
 342              		.loc 1 229 0 is_stmt 0 discriminator 1
 343 007c 7B68     		ldr	r3, [r7, #4]
 344 007e 002B     		cmp	r3, #0
 345 0080 02D0     		beq	.L13
 229:.\Generated_Source\PSoC5/cyfitter_cfg.c **** 	for (timeout = 250u / 10u; (timeout > 0u) && (pllLock != 0x03u); timeout--)
 346              		.loc 1 229 0 discriminator 3
 347 0082 FB78     		ldrb	r3, [r7, #3]	@ zero_extendqisi2
 348 0084 032B     		cmp	r3, #3
 349 0086 E4D1     		bne	.L14
 350              	.L13:
 233:.\Generated_Source\PSoC5/cyfitter_cfg.c **** 	}
 234:.\Generated_Source\PSoC5/cyfitter_cfg.c **** 	/* If we ran out of time the PLL didn't lock so go to the error function */
 235:.\Generated_Source\PSoC5/cyfitter_cfg.c **** 	if (timeout == 0u)
 351              		.loc 1 235 0 is_stmt 1
 352 0088 7B68     		ldr	r3, [r7, #4]
 353 008a 002B     		cmp	r3, #0
 354 008c 02D1     		bne	.L15
 236:.\Generated_Source\PSoC5/cyfitter_cfg.c **** 	{
 237:.\Generated_Source\PSoC5/cyfitter_cfg.c **** 		CyClockStartupError(CYCLOCKSTART_PLL_ERROR);
 355              		.loc 1 237 0
 356 008e 0320     		movs	r0, #3
 357 0090 FFF7FEFF 		bl	CyClockStartupError
 358              	.L15:
 238:.\Generated_Source\PSoC5/cyfitter_cfg.c **** 	}
 239:.\Generated_Source\PSoC5/cyfitter_cfg.c **** 
 240:.\Generated_Source\PSoC5/cyfitter_cfg.c **** 	/* Configure Bus/Master Clock based on settings from Clock DWR */
 241:.\Generated_Source\PSoC5/cyfitter_cfg.c **** 	CY_SET_XTND_REG16((void CYFAR *)(CYREG_CLKDIST_MSTR0), 0x0100u);
 359              		.loc 1 241 0
 360 0094 234B     		ldr	r3, .L16+44
 361 0096 4FF48072 		mov	r2, #256
 362 009a 1A80     		strh	r2, [r3]	@ movhi
 242:.\Generated_Source\PSoC5/cyfitter_cfg.c **** 	CY_SET_XTND_REG8((void CYFAR *)(CYREG_CLKDIST_MSTR0), 0x07u);
 363              		.loc 1 242 0
 364 009c 214B     		ldr	r3, .L16+44
 365 009e 0722     		movs	r2, #7
 366 00a0 1A70     		strb	r2, [r3]
 243:.\Generated_Source\PSoC5/cyfitter_cfg.c **** 	CY_SET_XTND_REG8((void CYFAR *)(CYREG_CLKDIST_BCFG0), 0x00u);
 367              		.loc 1 243 0
 368 00a2 214B     		ldr	r3, .L16+48
 369 00a4 0022     		movs	r2, #0
 370 00a6 1A70     		strb	r2, [r3]
 244:.\Generated_Source\PSoC5/cyfitter_cfg.c **** 	CY_SET_XTND_REG8((void CYFAR *)(CYREG_CLKDIST_BCFG2), 0x48u);
 371              		.loc 1 244 0
 372 00a8 204B     		ldr	r3, .L16+52
 373 00aa 4822     		movs	r2, #72
 374 00ac 1A70     		strb	r2, [r3]
 245:.\Generated_Source\PSoC5/cyfitter_cfg.c **** 	CY_SET_XTND_REG8((void CYFAR *)(CYREG_CLKDIST_MSTR0), 0x00u);
 375              		.loc 1 245 0
 376 00ae 1D4B     		ldr	r3, .L16+44
ARM GAS  C:\Users\student\AppData\Local\Temp\ccFtVqcr.s 			page 12


 377 00b0 0022     		movs	r2, #0
 378 00b2 1A70     		strb	r2, [r3]
 246:.\Generated_Source\PSoC5/cyfitter_cfg.c **** 	CY_SET_XTND_REG8((void CYFAR *)(CYREG_CLKDIST_LD), 0x02u);
 379              		.loc 1 246 0
 380 00b4 1E4B     		ldr	r3, .L16+56
 381 00b6 0222     		movs	r2, #2
 382 00b8 1A70     		strb	r2, [r3]
 247:.\Generated_Source\PSoC5/cyfitter_cfg.c **** 	CY_SET_XTND_REG8((void CYFAR *)(CYREG_CLKDIST_DLY1), 0x04u);
 383              		.loc 1 247 0
 384 00ba 1E4B     		ldr	r3, .L16+60
 385 00bc 0422     		movs	r2, #4
 386 00be 1A70     		strb	r2, [r3]
 248:.\Generated_Source\PSoC5/cyfitter_cfg.c **** 
 249:.\Generated_Source\PSoC5/cyfitter_cfg.c **** 	CY_SET_XTND_REG8((void CYFAR *)(CYREG_PM_ACT_CFG2), ((CY_GET_XTND_REG8((void CYFAR *)CYREG_PM_ACT_
 387              		.loc 1 249 0
 388 00c0 1D4A     		ldr	r2, .L16+64
 389 00c2 1D4B     		ldr	r3, .L16+64
 390 00c4 1B78     		ldrb	r3, [r3]
 391 00c6 DBB2     		uxtb	r3, r3
 392 00c8 43F00103 		orr	r3, r3, #1
 393 00cc DBB2     		uxtb	r3, r3
 394 00ce 1370     		strb	r3, [r2]
 250:.\Generated_Source\PSoC5/cyfitter_cfg.c **** 	CY_SET_XTND_REG8((void CYFAR *)(CYREG_PM_ACT_CFG1), ((CY_GET_XTND_REG8((void CYFAR *)CYREG_PM_ACT_
 395              		.loc 1 250 0
 396 00d0 1A4A     		ldr	r2, .L16+68
 397 00d2 1A4B     		ldr	r3, .L16+68
 398 00d4 1B78     		ldrb	r3, [r3]
 399 00d6 DBB2     		uxtb	r3, r3
 400 00d8 43F00103 		orr	r3, r3, #1
 401 00dc DBB2     		uxtb	r3, r3
 402 00de 1370     		strb	r3, [r2]
 251:.\Generated_Source\PSoC5/cyfitter_cfg.c **** 	CY_SET_XTND_REG8((void CYFAR *)(CYREG_PM_ACT_CFG0), ((CY_GET_XTND_REG8((void CYFAR *)CYREG_PM_ACT_
 403              		.loc 1 251 0
 404 00e0 174A     		ldr	r2, .L16+72
 405 00e2 174B     		ldr	r3, .L16+72
 406 00e4 1B78     		ldrb	r3, [r3]
 407 00e6 DBB2     		uxtb	r3, r3
 408 00e8 63F07F03 		orn	r3, r3, #127
 409 00ec DBB2     		uxtb	r3, r3
 410 00ee 1370     		strb	r3, [r2]
 252:.\Generated_Source\PSoC5/cyfitter_cfg.c **** }
 411              		.loc 1 252 0
 412 00f0 0837     		adds	r7, r7, #8
 413              		.cfi_def_cfa_offset 8
 414 00f2 BD46     		mov	sp, r7
 415              		.cfi_def_cfa_register 13
 416              		@ sp needed
 417 00f4 80BD     		pop	{r7, pc}
 418              	.L17:
 419 00f6 00BF     		.align	2
 420              	.L16:
 421 00f8 80400040 		.word	1073758336
 422 00fc 82400040 		.word	1073758338
 423 0100 00410040 		.word	1073758464
 424 0104 54010048 		.word	1207959892
 425 0108 00430040 		.word	1073758976
 426 010c 00420040 		.word	1073758720
ARM GAS  C:\Users\student\AppData\Local\Temp\ccFtVqcr.s 			page 13


 427 0110 A1460040 		.word	1073759905
 428 0114 08010049 		.word	1224737032
 429 0118 22420040 		.word	1073758754
 430 011c 20420040 		.word	1073758752
 431 0120 25420040 		.word	1073758757
 432 0124 04400040 		.word	1073758212
 433 0128 06400040 		.word	1073758214
 434 012c 08400040 		.word	1073758216
 435 0130 01400040 		.word	1073758209
 436 0134 0B400040 		.word	1073758219
 437 0138 A2430040 		.word	1073759138
 438 013c A1430040 		.word	1073759137
 439 0140 A0430040 		.word	1073759136
 440              		.cfi_endproc
 441              	.LFE5:
 442              		.size	ClockSetup, .-ClockSetup
 443              		.section	.text.AnalogSetDefault,"ax",%progbits
 444              		.align	2
 445              		.thumb
 446              		.thumb_func
 447              		.type	AnalogSetDefault, %function
 448              	AnalogSetDefault:
 449              	.LFB6:
 253:.\Generated_Source\PSoC5/cyfitter_cfg.c **** 
 254:.\Generated_Source\PSoC5/cyfitter_cfg.c **** 
 255:.\Generated_Source\PSoC5/cyfitter_cfg.c **** /* Analog API Functions */
 256:.\Generated_Source\PSoC5/cyfitter_cfg.c **** 
 257:.\Generated_Source\PSoC5/cyfitter_cfg.c **** 
 258:.\Generated_Source\PSoC5/cyfitter_cfg.c **** /*******************************************************************************
 259:.\Generated_Source\PSoC5/cyfitter_cfg.c **** * Function Name: AnalogSetDefault
 260:.\Generated_Source\PSoC5/cyfitter_cfg.c **** ********************************************************************************
 261:.\Generated_Source\PSoC5/cyfitter_cfg.c **** *
 262:.\Generated_Source\PSoC5/cyfitter_cfg.c **** * Summary:
 263:.\Generated_Source\PSoC5/cyfitter_cfg.c **** *  Sets up the analog portions of the chip to default values based on chip
 264:.\Generated_Source\PSoC5/cyfitter_cfg.c **** *  configuration options from the project.
 265:.\Generated_Source\PSoC5/cyfitter_cfg.c **** *
 266:.\Generated_Source\PSoC5/cyfitter_cfg.c **** * Parameters:
 267:.\Generated_Source\PSoC5/cyfitter_cfg.c **** *  void
 268:.\Generated_Source\PSoC5/cyfitter_cfg.c **** *
 269:.\Generated_Source\PSoC5/cyfitter_cfg.c **** * Return:
 270:.\Generated_Source\PSoC5/cyfitter_cfg.c **** *  void
 271:.\Generated_Source\PSoC5/cyfitter_cfg.c **** *
 272:.\Generated_Source\PSoC5/cyfitter_cfg.c **** *******************************************************************************/
 273:.\Generated_Source\PSoC5/cyfitter_cfg.c **** static void AnalogSetDefault(void);
 274:.\Generated_Source\PSoC5/cyfitter_cfg.c **** static void AnalogSetDefault(void)
 275:.\Generated_Source\PSoC5/cyfitter_cfg.c **** {
 450              		.loc 1 275 0
 451              		.cfi_startproc
 452              		@ args = 0, pretend = 0, frame = 8
 453              		@ frame_needed = 1, uses_anonymous_args = 0
 454              		@ link register save eliminated.
 455 0000 80B4     		push	{r7}
 456              		.cfi_def_cfa_offset 4
 457              		.cfi_offset 7, -4
 458 0002 83B0     		sub	sp, sp, #12
 459              		.cfi_def_cfa_offset 16
 460 0004 00AF     		add	r7, sp, #0
ARM GAS  C:\Users\student\AppData\Local\Temp\ccFtVqcr.s 			page 14


 461              		.cfi_def_cfa_register 7
 276:.\Generated_Source\PSoC5/cyfitter_cfg.c **** 	uint8 bg_xover_inl_trim = CY_GET_XTND_REG8((void CYFAR *)(CYREG_FLSHID_MFG_CFG_BG_XOVER_INL_TRIM +
 462              		.loc 1 276 0
 463 0006 114B     		ldr	r3, .L19
 464 0008 1B78     		ldrb	r3, [r3]
 465 000a FB71     		strb	r3, [r7, #7]
 277:.\Generated_Source\PSoC5/cyfitter_cfg.c **** 	CY_SET_XTND_REG8((void CYFAR *)(CYREG_BG_DFT0), (bg_xover_inl_trim & 0x07u));
 466              		.loc 1 277 0
 467 000c 104A     		ldr	r2, .L19+4
 468 000e FB79     		ldrb	r3, [r7, #7]
 469 0010 03F00703 		and	r3, r3, #7
 470 0014 DBB2     		uxtb	r3, r3
 471 0016 1370     		strb	r3, [r2]
 278:.\Generated_Source\PSoC5/cyfitter_cfg.c **** 	CY_SET_XTND_REG8((void CYFAR *)(CYREG_BG_DFT1), ((bg_xover_inl_trim >> 4) & 0x0Fu));
 472              		.loc 1 278 0
 473 0018 0E4A     		ldr	r2, .L19+8
 474 001a FB79     		ldrb	r3, [r7, #7]	@ zero_extendqisi2
 475 001c 1B09     		lsrs	r3, r3, #4
 476 001e DBB2     		uxtb	r3, r3
 477 0020 1370     		strb	r3, [r2]
 279:.\Generated_Source\PSoC5/cyfitter_cfg.c **** 	CY_SET_XTND_REG8((void CYFAR *)CYREG_PRT0_AG, 0x01u);
 478              		.loc 1 279 0
 479 0022 0D4B     		ldr	r3, .L19+12
 480 0024 0122     		movs	r2, #1
 481 0026 1A70     		strb	r2, [r3]
 280:.\Generated_Source\PSoC5/cyfitter_cfg.c **** 	CY_SET_XTND_REG8((void CYFAR *)CYREG_PRT1_AMUX, 0x40u);
 482              		.loc 1 280 0
 483 0028 0C4B     		ldr	r3, .L19+16
 484 002a 4022     		movs	r2, #64
 485 002c 1A70     		strb	r2, [r3]
 281:.\Generated_Source\PSoC5/cyfitter_cfg.c **** 	CY_SET_XTND_REG8((void CYFAR *)CYREG_DAC1_SW3, 0x01u);
 486              		.loc 1 281 0
 487 002e 0C4B     		ldr	r3, .L19+20
 488 0030 0122     		movs	r2, #1
 489 0032 1A70     		strb	r2, [r3]
 282:.\Generated_Source\PSoC5/cyfitter_cfg.c **** 	CY_SET_XTND_REG8((void CYFAR *)CYREG_DSM0_SW0, 0x10u);
 490              		.loc 1 282 0
 491 0034 0B4B     		ldr	r3, .L19+24
 492 0036 1022     		movs	r2, #16
 493 0038 1A70     		strb	r2, [r3]
 283:.\Generated_Source\PSoC5/cyfitter_cfg.c **** 	CY_SET_XTND_REG8((void CYFAR *)CYREG_PUMP_CR0, 0x44u);
 494              		.loc 1 283 0
 495 003a 0B4B     		ldr	r3, .L19+28
 496 003c 4422     		movs	r2, #68
 497 003e 1A70     		strb	r2, [r3]
 284:.\Generated_Source\PSoC5/cyfitter_cfg.c **** }
 498              		.loc 1 284 0
 499 0040 0C37     		adds	r7, r7, #12
 500              		.cfi_def_cfa_offset 4
 501 0042 BD46     		mov	sp, r7
 502              		.cfi_def_cfa_register 13
 503              		@ sp needed
 504 0044 5DF8047B 		ldr	r7, [sp], #4
 505              		.cfi_restore 7
 506              		.cfi_def_cfa_offset 0
 507 0048 7047     		bx	lr
 508              	.L20:
ARM GAS  C:\Users\student\AppData\Local\Temp\ccFtVqcr.s 			page 15


 509 004a 00BF     		.align	2
 510              	.L19:
 511 004c CF010049 		.word	1224737231
 512 0050 6E580040 		.word	1073764462
 513 0054 6F580040 		.word	1073764463
 514 0058 0D510040 		.word	1073762573
 515 005c 1C510040 		.word	1073762588
 516 0060 8B5A0040 		.word	1073765003
 517 0064 005B0040 		.word	1073765120
 518 0068 76580040 		.word	1073764470
 519              		.cfi_endproc
 520              	.LFE6:
 521              		.size	AnalogSetDefault, .-AnalogSetDefault
 522              		.section	.text.SetAnalogRoutingPumps,"ax",%progbits
 523              		.align	2
 524              		.global	SetAnalogRoutingPumps
 525              		.thumb
 526              		.thumb_func
 527              		.type	SetAnalogRoutingPumps, %function
 528              	SetAnalogRoutingPumps:
 529              	.LFB7:
 285:.\Generated_Source\PSoC5/cyfitter_cfg.c **** 
 286:.\Generated_Source\PSoC5/cyfitter_cfg.c **** 
 287:.\Generated_Source\PSoC5/cyfitter_cfg.c **** /*******************************************************************************
 288:.\Generated_Source\PSoC5/cyfitter_cfg.c **** * Function Name: SetAnalogRoutingPumps
 289:.\Generated_Source\PSoC5/cyfitter_cfg.c **** ********************************************************************************
 290:.\Generated_Source\PSoC5/cyfitter_cfg.c **** *
 291:.\Generated_Source\PSoC5/cyfitter_cfg.c **** * Summary:
 292:.\Generated_Source\PSoC5/cyfitter_cfg.c **** * Enables or disables the analog pumps feeding analog routing switches.
 293:.\Generated_Source\PSoC5/cyfitter_cfg.c **** * Intended to be called at startup, based on the Vdda system configuration;
 294:.\Generated_Source\PSoC5/cyfitter_cfg.c **** * may be called during operation when the user informs us that the Vdda voltage
 295:.\Generated_Source\PSoC5/cyfitter_cfg.c **** * crossed the pump threshold.
 296:.\Generated_Source\PSoC5/cyfitter_cfg.c **** *
 297:.\Generated_Source\PSoC5/cyfitter_cfg.c **** * Parameters:
 298:.\Generated_Source\PSoC5/cyfitter_cfg.c **** *  enabled - 1 to enable the pumps, 0 to disable the pumps
 299:.\Generated_Source\PSoC5/cyfitter_cfg.c **** *
 300:.\Generated_Source\PSoC5/cyfitter_cfg.c **** * Return:
 301:.\Generated_Source\PSoC5/cyfitter_cfg.c **** *  void
 302:.\Generated_Source\PSoC5/cyfitter_cfg.c **** *
 303:.\Generated_Source\PSoC5/cyfitter_cfg.c **** *******************************************************************************/
 304:.\Generated_Source\PSoC5/cyfitter_cfg.c **** void SetAnalogRoutingPumps(uint8 enabled)
 305:.\Generated_Source\PSoC5/cyfitter_cfg.c **** {
 530              		.loc 1 305 0
 531              		.cfi_startproc
 532              		@ args = 0, pretend = 0, frame = 16
 533              		@ frame_needed = 1, uses_anonymous_args = 0
 534              		@ link register save eliminated.
 535 0000 80B4     		push	{r7}
 536              		.cfi_def_cfa_offset 4
 537              		.cfi_offset 7, -4
 538 0002 85B0     		sub	sp, sp, #20
 539              		.cfi_def_cfa_offset 24
 540 0004 00AF     		add	r7, sp, #0
 541              		.cfi_def_cfa_register 7
 542 0006 0346     		mov	r3, r0
 543 0008 FB71     		strb	r3, [r7, #7]
 306:.\Generated_Source\PSoC5/cyfitter_cfg.c **** 	uint8 regValue = CY_GET_XTND_REG8((void CYFAR *)CYREG_PUMP_CR0);
ARM GAS  C:\Users\student\AppData\Local\Temp\ccFtVqcr.s 			page 16


 544              		.loc 1 306 0
 545 000a 0B4B     		ldr	r3, .L24
 546 000c 1B78     		ldrb	r3, [r3]
 547 000e FB73     		strb	r3, [r7, #15]
 307:.\Generated_Source\PSoC5/cyfitter_cfg.c **** 	if (enabled != 0u)
 548              		.loc 1 307 0
 549 0010 FB79     		ldrb	r3, [r7, #7]	@ zero_extendqisi2
 550 0012 002B     		cmp	r3, #0
 551 0014 04D0     		beq	.L22
 308:.\Generated_Source\PSoC5/cyfitter_cfg.c **** 	{
 309:.\Generated_Source\PSoC5/cyfitter_cfg.c **** 		regValue |= 0x22u;
 552              		.loc 1 309 0
 553 0016 FB7B     		ldrb	r3, [r7, #15]
 554 0018 43F02203 		orr	r3, r3, #34
 555 001c FB73     		strb	r3, [r7, #15]
 556 001e 03E0     		b	.L23
 557              	.L22:
 310:.\Generated_Source\PSoC5/cyfitter_cfg.c **** 	}
 311:.\Generated_Source\PSoC5/cyfitter_cfg.c **** 	else
 312:.\Generated_Source\PSoC5/cyfitter_cfg.c **** 	{
 313:.\Generated_Source\PSoC5/cyfitter_cfg.c **** 		regValue &= (uint8)~0x22u;
 558              		.loc 1 313 0
 559 0020 FB7B     		ldrb	r3, [r7, #15]
 560 0022 23F02203 		bic	r3, r3, #34
 561 0026 FB73     		strb	r3, [r7, #15]
 562              	.L23:
 314:.\Generated_Source\PSoC5/cyfitter_cfg.c **** 	}
 315:.\Generated_Source\PSoC5/cyfitter_cfg.c **** 	CY_SET_XTND_REG8((void CYFAR *)CYREG_PUMP_CR0, regValue);
 563              		.loc 1 315 0
 564 0028 034A     		ldr	r2, .L24
 565 002a FB7B     		ldrb	r3, [r7, #15]
 566 002c 1370     		strb	r3, [r2]
 316:.\Generated_Source\PSoC5/cyfitter_cfg.c **** }
 567              		.loc 1 316 0
 568 002e 1437     		adds	r7, r7, #20
 569              		.cfi_def_cfa_offset 4
 570 0030 BD46     		mov	sp, r7
 571              		.cfi_def_cfa_register 13
 572              		@ sp needed
 573 0032 5DF8047B 		ldr	r7, [sp], #4
 574              		.cfi_restore 7
 575              		.cfi_def_cfa_offset 0
 576 0036 7047     		bx	lr
 577              	.L25:
 578              		.align	2
 579              	.L24:
 580 0038 76580040 		.word	1073764470
 581              		.cfi_endproc
 582              	.LFE7:
 583              		.size	SetAnalogRoutingPumps, .-SetAnalogRoutingPumps
 584              		.global	ADC_DelSig_AMux__addrTable
 585              		.section	.rodata
 586              		.align	2
 587              		.type	ADC_DelSig_AMux__addrTable, %object
 588              		.size	ADC_DelSig_AMux__addrTable, 8
 589              	ADC_DelSig_AMux__addrTable:
 590 0000 035B0040 		.word	1073765123
ARM GAS  C:\Users\student\AppData\Local\Temp\ccFtVqcr.s 			page 17


 591 0004 24430040 		.word	1073759012
 592              		.global	ADC_DelSig_AMux__maskTable
 593              		.align	2
 594              		.type	ADC_DelSig_AMux__maskTable, %object
 595              		.size	ADC_DelSig_AMux__maskTable, 2
 596              	ADC_DelSig_AMux__maskTable:
 597 0008 40       		.byte	64
 598 0009 00       		.byte	0
 599              		.section	.text.ADC_DelSig_AMux_Set,"ax",%progbits
 600              		.align	2
 601              		.global	ADC_DelSig_AMux_Set
 602              		.thumb
 603              		.thumb_func
 604              		.type	ADC_DelSig_AMux_Set, %function
 605              	ADC_DelSig_AMux_Set:
 606              	.LFB8:
 317:.\Generated_Source\PSoC5/cyfitter_cfg.c **** 
 318:.\Generated_Source\PSoC5/cyfitter_cfg.c **** #define CY_AMUX_UNUSED CYREG_BOOST_SR
 319:.\Generated_Source\PSoC5/cyfitter_cfg.c **** /* This is an implementation detail of the AMux. Code that depends on it may be
 320:.\Generated_Source\PSoC5/cyfitter_cfg.c ****    incompatible with other versions of PSoC Creator. */
 321:.\Generated_Source\PSoC5/cyfitter_cfg.c **** uint8 CYXDATA * const CYCODE ADC_DelSig_AMux__addrTable[2] = {
 322:.\Generated_Source\PSoC5/cyfitter_cfg.c **** 	(uint8 CYXDATA *)CYREG_DSM0_SW3, 
 323:.\Generated_Source\PSoC5/cyfitter_cfg.c **** 	(uint8 CYXDATA *)CY_AMUX_UNUSED, 
 324:.\Generated_Source\PSoC5/cyfitter_cfg.c **** };
 325:.\Generated_Source\PSoC5/cyfitter_cfg.c **** 
 326:.\Generated_Source\PSoC5/cyfitter_cfg.c **** /* This is an implementation detail of the AMux. Code that depends on it may be
 327:.\Generated_Source\PSoC5/cyfitter_cfg.c ****    incompatible with other versions of PSoC Creator. */
 328:.\Generated_Source\PSoC5/cyfitter_cfg.c **** const uint8 CYCODE ADC_DelSig_AMux__maskTable[2] = {
 329:.\Generated_Source\PSoC5/cyfitter_cfg.c **** 	0x40u, 
 330:.\Generated_Source\PSoC5/cyfitter_cfg.c **** 	0x00u, 
 331:.\Generated_Source\PSoC5/cyfitter_cfg.c **** };
 332:.\Generated_Source\PSoC5/cyfitter_cfg.c **** 
 333:.\Generated_Source\PSoC5/cyfitter_cfg.c **** /*******************************************************************************
 334:.\Generated_Source\PSoC5/cyfitter_cfg.c **** * Function Name: ADC_DelSig_AMux_Set
 335:.\Generated_Source\PSoC5/cyfitter_cfg.c **** ********************************************************************************
 336:.\Generated_Source\PSoC5/cyfitter_cfg.c **** * Summary:
 337:.\Generated_Source\PSoC5/cyfitter_cfg.c **** *  This function is used to set a particular channel as active on the AMux.
 338:.\Generated_Source\PSoC5/cyfitter_cfg.c **** *
 339:.\Generated_Source\PSoC5/cyfitter_cfg.c **** * Parameters:  
 340:.\Generated_Source\PSoC5/cyfitter_cfg.c **** *   channel - The mux channel input to set as active
 341:.\Generated_Source\PSoC5/cyfitter_cfg.c **** *
 342:.\Generated_Source\PSoC5/cyfitter_cfg.c **** * Return:
 343:.\Generated_Source\PSoC5/cyfitter_cfg.c **** *   void
 344:.\Generated_Source\PSoC5/cyfitter_cfg.c **** *
 345:.\Generated_Source\PSoC5/cyfitter_cfg.c **** *******************************************************************************/
 346:.\Generated_Source\PSoC5/cyfitter_cfg.c **** void ADC_DelSig_AMux_Set(uint8 channel)
 347:.\Generated_Source\PSoC5/cyfitter_cfg.c **** {
 607              		.loc 1 347 0
 608              		.cfi_startproc
 609              		@ args = 0, pretend = 0, frame = 8
 610              		@ frame_needed = 1, uses_anonymous_args = 0
 611              		@ link register save eliminated.
 612 0000 80B4     		push	{r7}
 613              		.cfi_def_cfa_offset 4
 614              		.cfi_offset 7, -4
 615 0002 83B0     		sub	sp, sp, #12
 616              		.cfi_def_cfa_offset 16
ARM GAS  C:\Users\student\AppData\Local\Temp\ccFtVqcr.s 			page 18


 617 0004 00AF     		add	r7, sp, #0
 618              		.cfi_def_cfa_register 7
 619 0006 0346     		mov	r3, r0
 620 0008 FB71     		strb	r3, [r7, #7]
 348:.\Generated_Source\PSoC5/cyfitter_cfg.c **** 	if (channel < 2)
 621              		.loc 1 348 0
 622 000a FB79     		ldrb	r3, [r7, #7]	@ zero_extendqisi2
 623 000c 012B     		cmp	r3, #1
 624 000e 0ED8     		bhi	.L26
 349:.\Generated_Source\PSoC5/cyfitter_cfg.c **** 	{
 350:.\Generated_Source\PSoC5/cyfitter_cfg.c **** 		*ADC_DelSig_AMux__addrTable[channel] |= ADC_DelSig_AMux__maskTable[channel];
 625              		.loc 1 350 0
 626 0010 FB79     		ldrb	r3, [r7, #7]	@ zero_extendqisi2
 627 0012 094A     		ldr	r2, .L28
 628 0014 52F82330 		ldr	r3, [r2, r3, lsl #2]
 629 0018 FA79     		ldrb	r2, [r7, #7]	@ zero_extendqisi2
 630 001a 0749     		ldr	r1, .L28
 631 001c 51F82220 		ldr	r2, [r1, r2, lsl #2]
 632 0020 1178     		ldrb	r1, [r2]	@ zero_extendqisi2
 633 0022 FA79     		ldrb	r2, [r7, #7]	@ zero_extendqisi2
 634 0024 0548     		ldr	r0, .L28+4
 635 0026 825C     		ldrb	r2, [r0, r2]	@ zero_extendqisi2
 636 0028 0A43     		orrs	r2, r2, r1
 637 002a D2B2     		uxtb	r2, r2
 638 002c 1A70     		strb	r2, [r3]
 639              	.L26:
 351:.\Generated_Source\PSoC5/cyfitter_cfg.c **** 	}
 352:.\Generated_Source\PSoC5/cyfitter_cfg.c **** }
 640              		.loc 1 352 0
 641 002e 0C37     		adds	r7, r7, #12
 642              		.cfi_def_cfa_offset 4
 643 0030 BD46     		mov	sp, r7
 644              		.cfi_def_cfa_register 13
 645              		@ sp needed
 646 0032 5DF8047B 		ldr	r7, [sp], #4
 647              		.cfi_restore 7
 648              		.cfi_def_cfa_offset 0
 649 0036 7047     		bx	lr
 650              	.L29:
 651              		.align	2
 652              	.L28:
 653 0038 00000000 		.word	ADC_DelSig_AMux__addrTable
 654 003c 00000000 		.word	ADC_DelSig_AMux__maskTable
 655              		.cfi_endproc
 656              	.LFE8:
 657              		.size	ADC_DelSig_AMux_Set, .-ADC_DelSig_AMux_Set
 658              		.section	.text.ADC_DelSig_AMux_Unset,"ax",%progbits
 659              		.align	2
 660              		.global	ADC_DelSig_AMux_Unset
 661              		.thumb
 662              		.thumb_func
 663              		.type	ADC_DelSig_AMux_Unset, %function
 664              	ADC_DelSig_AMux_Unset:
 665              	.LFB9:
 353:.\Generated_Source\PSoC5/cyfitter_cfg.c **** 
 354:.\Generated_Source\PSoC5/cyfitter_cfg.c **** /*******************************************************************************
 355:.\Generated_Source\PSoC5/cyfitter_cfg.c **** * Function Name: ADC_DelSig_AMux_Unset
ARM GAS  C:\Users\student\AppData\Local\Temp\ccFtVqcr.s 			page 19


 356:.\Generated_Source\PSoC5/cyfitter_cfg.c **** ********************************************************************************
 357:.\Generated_Source\PSoC5/cyfitter_cfg.c **** * Summary:
 358:.\Generated_Source\PSoC5/cyfitter_cfg.c **** *  This function is used to clear a particular channel from being active on the
 359:.\Generated_Source\PSoC5/cyfitter_cfg.c **** *  AMux.
 360:.\Generated_Source\PSoC5/cyfitter_cfg.c **** *
 361:.\Generated_Source\PSoC5/cyfitter_cfg.c **** * Parameters:  
 362:.\Generated_Source\PSoC5/cyfitter_cfg.c **** *   channel - The mux channel input to mark inactive
 363:.\Generated_Source\PSoC5/cyfitter_cfg.c **** *
 364:.\Generated_Source\PSoC5/cyfitter_cfg.c **** * Return:
 365:.\Generated_Source\PSoC5/cyfitter_cfg.c **** *   void
 366:.\Generated_Source\PSoC5/cyfitter_cfg.c **** *
 367:.\Generated_Source\PSoC5/cyfitter_cfg.c **** *******************************************************************************/
 368:.\Generated_Source\PSoC5/cyfitter_cfg.c **** void ADC_DelSig_AMux_Unset(uint8 channel)
 369:.\Generated_Source\PSoC5/cyfitter_cfg.c **** {
 666              		.loc 1 369 0
 667              		.cfi_startproc
 668              		@ args = 0, pretend = 0, frame = 8
 669              		@ frame_needed = 1, uses_anonymous_args = 0
 670              		@ link register save eliminated.
 671 0000 80B4     		push	{r7}
 672              		.cfi_def_cfa_offset 4
 673              		.cfi_offset 7, -4
 674 0002 83B0     		sub	sp, sp, #12
 675              		.cfi_def_cfa_offset 16
 676 0004 00AF     		add	r7, sp, #0
 677              		.cfi_def_cfa_register 7
 678 0006 0346     		mov	r3, r0
 679 0008 FB71     		strb	r3, [r7, #7]
 370:.\Generated_Source\PSoC5/cyfitter_cfg.c **** 	if (channel < 2)
 680              		.loc 1 370 0
 681 000a FB79     		ldrb	r3, [r7, #7]	@ zero_extendqisi2
 682 000c 012B     		cmp	r3, #1
 683 000e 10D8     		bhi	.L30
 371:.\Generated_Source\PSoC5/cyfitter_cfg.c **** 	{
 372:.\Generated_Source\PSoC5/cyfitter_cfg.c **** 		*ADC_DelSig_AMux__addrTable[channel] &= (uint8)~ADC_DelSig_AMux__maskTable[channel];
 684              		.loc 1 372 0
 685 0010 FB79     		ldrb	r3, [r7, #7]	@ zero_extendqisi2
 686 0012 0A4A     		ldr	r2, .L32
 687 0014 52F82330 		ldr	r3, [r2, r3, lsl #2]
 688 0018 FA79     		ldrb	r2, [r7, #7]	@ zero_extendqisi2
 689 001a 0849     		ldr	r1, .L32
 690 001c 51F82220 		ldr	r2, [r1, r2, lsl #2]
 691 0020 1178     		ldrb	r1, [r2]	@ zero_extendqisi2
 692 0022 FA79     		ldrb	r2, [r7, #7]	@ zero_extendqisi2
 693 0024 0648     		ldr	r0, .L32+4
 694 0026 825C     		ldrb	r2, [r0, r2]	@ zero_extendqisi2
 695 0028 D243     		mvns	r2, r2
 696 002a D2B2     		uxtb	r2, r2
 697 002c 0A40     		ands	r2, r2, r1
 698 002e D2B2     		uxtb	r2, r2
 699 0030 1A70     		strb	r2, [r3]
 700              	.L30:
 373:.\Generated_Source\PSoC5/cyfitter_cfg.c **** 	}
 374:.\Generated_Source\PSoC5/cyfitter_cfg.c **** }
 701              		.loc 1 374 0
 702 0032 0C37     		adds	r7, r7, #12
 703              		.cfi_def_cfa_offset 4
ARM GAS  C:\Users\student\AppData\Local\Temp\ccFtVqcr.s 			page 20


 704 0034 BD46     		mov	sp, r7
 705              		.cfi_def_cfa_register 13
 706              		@ sp needed
 707 0036 5DF8047B 		ldr	r7, [sp], #4
 708              		.cfi_restore 7
 709              		.cfi_def_cfa_offset 0
 710 003a 7047     		bx	lr
 711              	.L33:
 712              		.align	2
 713              	.L32:
 714 003c 00000000 		.word	ADC_DelSig_AMux__addrTable
 715 0040 00000000 		.word	ADC_DelSig_AMux__maskTable
 716              		.cfi_endproc
 717              	.LFE9:
 718              		.size	ADC_DelSig_AMux_Unset, .-ADC_DelSig_AMux_Unset
 719              		.section	.text.cyfitter_cfg,"ax",%progbits
 720              		.align	2
 721              		.global	cyfitter_cfg
 722              		.thumb
 723              		.thumb_func
 724              		.type	cyfitter_cfg, %function
 725              	cyfitter_cfg:
 726              	.LFB10:
 375:.\Generated_Source\PSoC5/cyfitter_cfg.c **** 
 376:.\Generated_Source\PSoC5/cyfitter_cfg.c **** 
 377:.\Generated_Source\PSoC5/cyfitter_cfg.c **** 
 378:.\Generated_Source\PSoC5/cyfitter_cfg.c **** /*******************************************************************************
 379:.\Generated_Source\PSoC5/cyfitter_cfg.c **** * Function Name: cyfitter_cfg
 380:.\Generated_Source\PSoC5/cyfitter_cfg.c **** ********************************************************************************
 381:.\Generated_Source\PSoC5/cyfitter_cfg.c **** * Summary:
 382:.\Generated_Source\PSoC5/cyfitter_cfg.c **** *  This function is called by the start-up code for the selected device. It
 383:.\Generated_Source\PSoC5/cyfitter_cfg.c **** *  performs all of the necessary device configuration based on the design
 384:.\Generated_Source\PSoC5/cyfitter_cfg.c **** *  settings.  This includes settings from the Design Wide Resources (DWR) such
 385:.\Generated_Source\PSoC5/cyfitter_cfg.c **** *  as Clocks and Pins as well as any component configuration that is necessary.
 386:.\Generated_Source\PSoC5/cyfitter_cfg.c **** *
 387:.\Generated_Source\PSoC5/cyfitter_cfg.c **** * Parameters:  
 388:.\Generated_Source\PSoC5/cyfitter_cfg.c **** *   void
 389:.\Generated_Source\PSoC5/cyfitter_cfg.c **** *
 390:.\Generated_Source\PSoC5/cyfitter_cfg.c **** * Return:
 391:.\Generated_Source\PSoC5/cyfitter_cfg.c **** *   void
 392:.\Generated_Source\PSoC5/cyfitter_cfg.c **** *
 393:.\Generated_Source\PSoC5/cyfitter_cfg.c **** *******************************************************************************/
 394:.\Generated_Source\PSoC5/cyfitter_cfg.c **** 
 395:.\Generated_Source\PSoC5/cyfitter_cfg.c **** void cyfitter_cfg(void)
 396:.\Generated_Source\PSoC5/cyfitter_cfg.c **** {
 727              		.loc 1 396 0
 728              		.cfi_startproc
 729              		@ args = 0, pretend = 0, frame = 8
 730              		@ frame_needed = 1, uses_anonymous_args = 0
 731 0000 80B5     		push	{r7, lr}
 732              		.cfi_def_cfa_offset 8
 733              		.cfi_offset 7, -8
 734              		.cfi_offset 14, -4
 735 0002 82B0     		sub	sp, sp, #8
 736              		.cfi_def_cfa_offset 16
 737 0004 00AF     		add	r7, sp, #0
 738              		.cfi_def_cfa_register 7
ARM GAS  C:\Users\student\AppData\Local\Temp\ccFtVqcr.s 			page 21


 397:.\Generated_Source\PSoC5/cyfitter_cfg.c **** #ifdef CYGlobalIntDisable
 398:.\Generated_Source\PSoC5/cyfitter_cfg.c **** 	/* Disable interrupts by default. Let user enable if/when they want. */
 399:.\Generated_Source\PSoC5/cyfitter_cfg.c **** 	CYGlobalIntDisable
 739              		.loc 1 399 0
 740              	@ 399 ".\Generated_Source\PSoC5\cyfitter_cfg.c" 1
 741 0006 72B6     		CPSID   i
 742              	@ 0 "" 2
 400:.\Generated_Source\PSoC5/cyfitter_cfg.c **** #endif
 401:.\Generated_Source\PSoC5/cyfitter_cfg.c **** 
 402:.\Generated_Source\PSoC5/cyfitter_cfg.c **** 	/* Enable/Disable Debug functionality based on settings from System DWR */
 403:.\Generated_Source\PSoC5/cyfitter_cfg.c **** 	CY_SET_XTND_REG8((void CYFAR *)CYREG_MLOGIC_DEBUG, (CY_GET_XTND_REG8((void CYFAR *)CYREG_MLOGIC_DE
 743              		.loc 1 403 0
 744              		.thumb
 745 0008 3D4A     		ldr	r2, .L37
 746 000a 3D4B     		ldr	r3, .L37
 747 000c 1B78     		ldrb	r3, [r3]
 748 000e DBB2     		uxtb	r3, r3
 749 0010 43F00403 		orr	r3, r3, #4
 750 0014 DBB2     		uxtb	r3, r3
 751 0016 1370     		strb	r3, [r2]
 752              	.LBB3:
 404:.\Generated_Source\PSoC5/cyfitter_cfg.c **** 
 405:.\Generated_Source\PSoC5/cyfitter_cfg.c **** 	{
 406:.\Generated_Source\PSoC5/cyfitter_cfg.c **** 
 407:.\Generated_Source\PSoC5/cyfitter_cfg.c **** 		CYPACKED typedef struct {
 408:.\Generated_Source\PSoC5/cyfitter_cfg.c **** 			void CYFAR *address;
 409:.\Generated_Source\PSoC5/cyfitter_cfg.c **** 			uint16 size;
 410:.\Generated_Source\PSoC5/cyfitter_cfg.c **** 		} CYPACKED_ATTR cfg_memset_t;
 411:.\Generated_Source\PSoC5/cyfitter_cfg.c **** 
 412:.\Generated_Source\PSoC5/cyfitter_cfg.c **** 		static const cfg_memset_t CYCODE cfg_memset_list [] = {
 413:.\Generated_Source\PSoC5/cyfitter_cfg.c **** 			/* address, size */
 414:.\Generated_Source\PSoC5/cyfitter_cfg.c **** 			{(void CYFAR *)(CYREG_PRT3_DR), 48u},
 415:.\Generated_Source\PSoC5/cyfitter_cfg.c **** 			{(void CYFAR *)(CYREG_PRT12_DR), 16u},
 416:.\Generated_Source\PSoC5/cyfitter_cfg.c **** 			{(void CYFAR *)(CYREG_PRT15_DR), 16u},
 417:.\Generated_Source\PSoC5/cyfitter_cfg.c **** 			{(void CYFAR *)(CYDEV_UCFG_B0_P0_U0_BASE), 4096u},
 418:.\Generated_Source\PSoC5/cyfitter_cfg.c **** 			{(void CYFAR *)(CYDEV_UCFG_B1_P2_U0_BASE), 2048u},
 419:.\Generated_Source\PSoC5/cyfitter_cfg.c **** 			{(void CYFAR *)(CYDEV_UCFG_DSI0_BASE), 2560u},
 420:.\Generated_Source\PSoC5/cyfitter_cfg.c **** 			{(void CYFAR *)(CYDEV_UCFG_DSI12_BASE), 512u},
 421:.\Generated_Source\PSoC5/cyfitter_cfg.c **** 			{(void CYFAR *)(CYREG_BCTL0_MDCLK_EN), 32u},
 422:.\Generated_Source\PSoC5/cyfitter_cfg.c **** 		};
 423:.\Generated_Source\PSoC5/cyfitter_cfg.c **** 
 424:.\Generated_Source\PSoC5/cyfitter_cfg.c **** 		uint8 CYDATA i;
 425:.\Generated_Source\PSoC5/cyfitter_cfg.c **** 
 426:.\Generated_Source\PSoC5/cyfitter_cfg.c **** 		/* Zero out critical memory blocks before beginning configuration */
 427:.\Generated_Source\PSoC5/cyfitter_cfg.c **** 		for (i = 0u; i < (sizeof(cfg_memset_list)/sizeof(cfg_memset_list[0])); i++)
 753              		.loc 1 427 0
 754 0018 0023     		movs	r3, #0
 755 001a FB71     		strb	r3, [r7, #7]
 756 001c 13E0     		b	.L35
 757              	.L36:
 758              	.LBB4:
 428:.\Generated_Source\PSoC5/cyfitter_cfg.c **** 		{
 429:.\Generated_Source\PSoC5/cyfitter_cfg.c **** 			const cfg_memset_t CYCODE * CYDATA ms = &cfg_memset_list[i];
 759              		.loc 1 429 0 discriminator 3
 760 001e FA79     		ldrb	r2, [r7, #7]	@ zero_extendqisi2
 761 0020 1346     		mov	r3, r2
 762 0022 5B00     		lsls	r3, r3, #1
ARM GAS  C:\Users\student\AppData\Local\Temp\ccFtVqcr.s 			page 22


 763 0024 1344     		add	r3, r3, r2
 764 0026 5B00     		lsls	r3, r3, #1
 765 0028 364A     		ldr	r2, .L37+4
 766 002a 1344     		add	r3, r3, r2
 767 002c 3B60     		str	r3, [r7]
 430:.\Generated_Source\PSoC5/cyfitter_cfg.c **** 			CYMEMZERO(ms->address, (size_t)(uint32)(ms->size));
 768              		.loc 1 430 0 discriminator 3
 769 002e 3B68     		ldr	r3, [r7]
 770 0030 1A68     		ldr	r2, [r3]	@ unaligned
 771 0032 3B68     		ldr	r3, [r7]
 772 0034 9B88     		ldrh	r3, [r3, #4]	@ unaligned
 773 0036 9BB2     		uxth	r3, r3
 774 0038 1046     		mov	r0, r2
 775 003a 1946     		mov	r1, r3
 776 003c FFF7FEFF 		bl	CYMEMZERO
 777              	.LBE4:
 427:.\Generated_Source\PSoC5/cyfitter_cfg.c **** 		{
 778              		.loc 1 427 0 discriminator 3
 779 0040 FB79     		ldrb	r3, [r7, #7]	@ zero_extendqisi2
 780 0042 0133     		adds	r3, r3, #1
 781 0044 FB71     		strb	r3, [r7, #7]
 782              	.L35:
 427:.\Generated_Source\PSoC5/cyfitter_cfg.c **** 		{
 783              		.loc 1 427 0 is_stmt 0 discriminator 1
 784 0046 FB79     		ldrb	r3, [r7, #7]	@ zero_extendqisi2
 785 0048 072B     		cmp	r3, #7
 786 004a E8D9     		bls	.L36
 431:.\Generated_Source\PSoC5/cyfitter_cfg.c **** 		}
 432:.\Generated_Source\PSoC5/cyfitter_cfg.c **** 
 433:.\Generated_Source\PSoC5/cyfitter_cfg.c **** 		cfg_write_bytes32(cy_cfg_addr_table, cy_cfg_data_table);
 787              		.loc 1 433 0 is_stmt 1
 788 004c 4FF09040 		mov	r0, #1207959552
 789 0050 2D49     		ldr	r1, .L37+8
 790 0052 FFF7FEFF 		bl	cfg_write_bytes32
 434:.\Generated_Source\PSoC5/cyfitter_cfg.c **** 
 435:.\Generated_Source\PSoC5/cyfitter_cfg.c **** 		/* Perform normal device configuration. Order is not critical for these items. */
 436:.\Generated_Source\PSoC5/cyfitter_cfg.c **** 		CY_SET_XTND_REG8((void CYFAR *)(CYREG_DSM0_CR3), 0x0Au);
 791              		.loc 1 436 0
 792 0056 2D4B     		ldr	r3, .L37+12
 793 0058 0A22     		movs	r2, #10
 794 005a 1A70     		strb	r2, [r3]
 437:.\Generated_Source\PSoC5/cyfitter_cfg.c **** 
 438:.\Generated_Source\PSoC5/cyfitter_cfg.c **** 		/* Enable digital routing */
 439:.\Generated_Source\PSoC5/cyfitter_cfg.c **** 		CY_SET_XTND_REG8((void CYFAR *)CYREG_BCTL0_BANK_CTL, CY_GET_XTND_REG8((void CYFAR *)CYREG_BCTL0_B
 795              		.loc 1 439 0
 796 005c 2C4A     		ldr	r2, .L37+16
 797 005e 2C4B     		ldr	r3, .L37+16
 798 0060 1B78     		ldrb	r3, [r3]
 799 0062 DBB2     		uxtb	r3, r3
 800 0064 43F00203 		orr	r3, r3, #2
 801 0068 DBB2     		uxtb	r3, r3
 802 006a 1370     		strb	r3, [r2]
 440:.\Generated_Source\PSoC5/cyfitter_cfg.c **** 		CY_SET_XTND_REG8((void CYFAR *)CYREG_BCTL1_BANK_CTL, CY_GET_XTND_REG8((void CYFAR *)CYREG_BCTL1_B
 803              		.loc 1 440 0
 804 006c 294A     		ldr	r2, .L37+20
 805 006e 294B     		ldr	r3, .L37+20
 806 0070 1B78     		ldrb	r3, [r3]
ARM GAS  C:\Users\student\AppData\Local\Temp\ccFtVqcr.s 			page 23


 807 0072 DBB2     		uxtb	r3, r3
 808 0074 43F00203 		orr	r3, r3, #2
 809 0078 DBB2     		uxtb	r3, r3
 810 007a 1370     		strb	r3, [r2]
 441:.\Generated_Source\PSoC5/cyfitter_cfg.c **** 
 442:.\Generated_Source\PSoC5/cyfitter_cfg.c **** 		/* Enable UDB array */
 443:.\Generated_Source\PSoC5/cyfitter_cfg.c **** 		CY_SET_XTND_REG8((void CYFAR *)CYREG_PM_ACT_CFG0, CY_GET_XTND_REG8((void CYFAR *)CYREG_PM_ACT_CFG
 811              		.loc 1 443 0
 812 007c 264A     		ldr	r2, .L37+24
 813 007e 264B     		ldr	r3, .L37+24
 814 0080 1B78     		ldrb	r3, [r3]
 815 0082 DBB2     		uxtb	r3, r3
 816 0084 43F04003 		orr	r3, r3, #64
 817 0088 DBB2     		uxtb	r3, r3
 818 008a 1370     		strb	r3, [r2]
 444:.\Generated_Source\PSoC5/cyfitter_cfg.c **** 		CY_SET_XTND_REG8((void CYFAR *)CYREG_PM_AVAIL_CR2, CY_GET_XTND_REG8((void CYFAR *)CYREG_PM_AVAIL_
 819              		.loc 1 444 0
 820 008c 234A     		ldr	r2, .L37+28
 821 008e 234B     		ldr	r3, .L37+28
 822 0090 1B78     		ldrb	r3, [r3]
 823 0092 DBB2     		uxtb	r3, r3
 824 0094 43F01003 		orr	r3, r3, #16
 825 0098 DBB2     		uxtb	r3, r3
 826 009a 1370     		strb	r3, [r2]
 827              	.LBE3:
 445:.\Generated_Source\PSoC5/cyfitter_cfg.c **** 	}
 446:.\Generated_Source\PSoC5/cyfitter_cfg.c **** 
 447:.\Generated_Source\PSoC5/cyfitter_cfg.c **** 
 448:.\Generated_Source\PSoC5/cyfitter_cfg.c **** 	/* Perform second pass device configuration. These items must be configured in specific order afte
 449:.\Generated_Source\PSoC5/cyfitter_cfg.c **** 	CYCONFIGCPY((void CYFAR *)(CYREG_PRT0_DM0), (const void CYFAR *)(BS_IOPINS0_0_VAL), 8u);
 828              		.loc 1 449 0
 829 009c 2048     		ldr	r0, .L37+32
 830 009e 2149     		ldr	r1, .L37+36
 831 00a0 0822     		movs	r2, #8
 832 00a2 FFF7FEFF 		bl	CYCONFIGCPY
 450:.\Generated_Source\PSoC5/cyfitter_cfg.c **** 	CYCONFIGCPY((void CYFAR *)(CYREG_PRT1_DM0), (const void CYFAR *)(BS_IOPINS0_1_VAL), 8u);
 833              		.loc 1 450 0
 834 00a6 2048     		ldr	r0, .L37+40
 835 00a8 2049     		ldr	r1, .L37+44
 836 00aa 0822     		movs	r2, #8
 837 00ac FFF7FEFF 		bl	CYCONFIGCPY
 451:.\Generated_Source\PSoC5/cyfitter_cfg.c **** 	CYCONFIGCPY((void CYFAR *)(CYREG_PRT2_DM0), (const void CYFAR *)(BS_IOPINS0_2_VAL), 8u);
 838              		.loc 1 451 0
 839 00b0 1F48     		ldr	r0, .L37+48
 840 00b2 2049     		ldr	r1, .L37+52
 841 00b4 0822     		movs	r2, #8
 842 00b6 FFF7FEFF 		bl	CYCONFIGCPY
 452:.\Generated_Source\PSoC5/cyfitter_cfg.c **** 	CYCONFIGCPY((void CYFAR *)(CYREG_PRT6_DM0), (const void CYFAR *)(BS_IOPINS0_6_VAL), 8u);
 843              		.loc 1 452 0
 844 00ba 1F48     		ldr	r0, .L37+56
 845 00bc 1F49     		ldr	r1, .L37+60
 846 00be 0822     		movs	r2, #8
 847 00c0 FFF7FEFF 		bl	CYCONFIGCPY
 453:.\Generated_Source\PSoC5/cyfitter_cfg.c **** 	/* Switch Boost to the precision bandgap reference from its internal reference */
 454:.\Generated_Source\PSoC5/cyfitter_cfg.c **** 	CY_SET_REG8((void CYXDATA *)CYREG_BOOST_CR2, (CY_GET_REG8((void CYXDATA *)CYREG_BOOST_CR2) | 0x08u
 848              		.loc 1 454 0
 849 00c4 1E4A     		ldr	r2, .L37+64
ARM GAS  C:\Users\student\AppData\Local\Temp\ccFtVqcr.s 			page 24


 850 00c6 1E4B     		ldr	r3, .L37+64
 851 00c8 1B78     		ldrb	r3, [r3]
 852 00ca DBB2     		uxtb	r3, r3
 853 00cc 43F00803 		orr	r3, r3, #8
 854 00d0 DBB2     		uxtb	r3, r3
 855 00d2 1370     		strb	r3, [r2]
 455:.\Generated_Source\PSoC5/cyfitter_cfg.c **** 
 456:.\Generated_Source\PSoC5/cyfitter_cfg.c **** 	/* Set Flash Cycles based on max possible frequency in case a glitch occurs during ClockSetup(). *
 457:.\Generated_Source\PSoC5/cyfitter_cfg.c **** 	CY_SET_XTND_REG8((void CYFAR *)(CYREG_CACHE_CC_CTL), (((CYDEV_INSTRUCT_CACHE_ENABLED) != 0) ? 0x01
 856              		.loc 1 457 0
 857 00d4 1B4B     		ldr	r3, .L37+68
 858 00d6 0122     		movs	r2, #1
 859 00d8 1A70     		strb	r2, [r3]
 458:.\Generated_Source\PSoC5/cyfitter_cfg.c **** 	/* Setup clocks based on selections from Clock DWR */
 459:.\Generated_Source\PSoC5/cyfitter_cfg.c **** 	ClockSetup();
 860              		.loc 1 459 0
 861 00da FFF7FEFF 		bl	ClockSetup
 460:.\Generated_Source\PSoC5/cyfitter_cfg.c **** 	/* Set Flash Cycles based on newly configured 24.00MHz Bus Clock. */
 461:.\Generated_Source\PSoC5/cyfitter_cfg.c **** 	CY_SET_XTND_REG8((void CYFAR *)(CYREG_CACHE_CC_CTL), (((CYDEV_INSTRUCT_CACHE_ENABLED) != 0) ? 0x81
 862              		.loc 1 461 0
 863 00de 194B     		ldr	r3, .L37+68
 864 00e0 8122     		movs	r2, #129
 865 00e2 1A70     		strb	r2, [r3]
 462:.\Generated_Source\PSoC5/cyfitter_cfg.c **** 	CY_SET_XTND_REG8((void CYFAR *)(CYREG_PANTHER_WAITPIPE), 0x01u);
 866              		.loc 1 462 0
 867 00e4 184B     		ldr	r3, .L37+72
 868 00e6 0122     		movs	r2, #1
 869 00e8 1A70     		strb	r2, [r3]
 463:.\Generated_Source\PSoC5/cyfitter_cfg.c **** 
 464:.\Generated_Source\PSoC5/cyfitter_cfg.c **** 	/* Perform basic analog initialization to defaults */
 465:.\Generated_Source\PSoC5/cyfitter_cfg.c **** 	AnalogSetDefault();
 870              		.loc 1 465 0
 871 00ea FFF7FEFF 		bl	AnalogSetDefault
 466:.\Generated_Source\PSoC5/cyfitter_cfg.c **** 
 467:.\Generated_Source\PSoC5/cyfitter_cfg.c **** 	/* Configure alternate active mode */
 468:.\Generated_Source\PSoC5/cyfitter_cfg.c **** 	CYCONFIGCPY((void CYFAR *)CYDEV_PM_STBY_BASE, (const void CYFAR *)CYDEV_PM_ACT_BASE, 14u);
 872              		.loc 1 468 0
 873 00ee 1748     		ldr	r0, .L37+76
 874 00f0 0949     		ldr	r1, .L37+24
 875 00f2 0E22     		movs	r2, #14
 876 00f4 FFF7FEFF 		bl	CYCONFIGCPY
 469:.\Generated_Source\PSoC5/cyfitter_cfg.c **** }
 877              		.loc 1 469 0
 878 00f8 0837     		adds	r7, r7, #8
 879              		.cfi_def_cfa_offset 8
 880 00fa BD46     		mov	sp, r7
 881              		.cfi_def_cfa_register 13
 882              		@ sp needed
 883 00fc 80BD     		pop	{r7, pc}
 884              	.L38:
 885 00fe 00BF     		.align	2
 886              	.L37:
 887 0100 E8460040 		.word	1073759976
 888 0104 0C000000 		.word	cfg_memset_list.4894
 889 0108 4C000048 		.word	1207959628
 890 010c 83580040 		.word	1073764483
 891 0110 03500140 		.word	1073827843
ARM GAS  C:\Users\student\AppData\Local\Temp\ccFtVqcr.s 			page 25


 892 0114 13500140 		.word	1073827859
 893 0118 A0430040 		.word	1073759136
 894 011c C2430040 		.word	1073759170
 895 0120 02510040 		.word	1073762562
 896 0124 34010048 		.word	1207959860
 897 0128 12510040 		.word	1073762578
 898 012c 3C010048 		.word	1207959868
 899 0130 22510040 		.word	1073762594
 900 0134 44010048 		.word	1207959876
 901 0138 62510040 		.word	1073762658
 902 013c 4C010048 		.word	1207959884
 903 0140 22430040 		.word	1073759010
 904 0144 00480040 		.word	1073760256
 905 0148 04000840 		.word	1074266116
 906 014c B0430040 		.word	1073759152
 907              		.cfi_endproc
 908              	.LFE10:
 909              		.size	cyfitter_cfg, .-cyfitter_cfg
 910              		.section	.rodata
 911 000a 0000     		.align	2
 912              		.type	cfg_memset_list.4894, %object
 913              		.size	cfg_memset_list.4894, 48
 914              	cfg_memset_list.4894:
 915 000c 30510040 		.word	1073762608
 916 0010 3000     		.short	48
 917 0012 C0510040 		.4byte	1073762752
 918 0016 1000     		.short	16
 919 0018 F0510040 		.word	1073762800
 920 001c 1000     		.short	16
 921 001e 00000140 		.4byte	1073807360
 922 0022 0010     		.short	4096
 923 0024 00140140 		.word	1073812480
 924 0028 0008     		.short	2048
 925 002a 00400140 		.4byte	1073823744
 926 002e 000A     		.short	2560
 927 0030 004C0140 		.word	1073826816
 928 0034 0002     		.short	512
 929 0036 00500140 		.4byte	1073827840
 930 003a 2000     		.short	32
 931              		.text
 932              	.Letext0:
 933              		.file 2 "c:\\program files (x86)\\cypress\\psoc creator\\3.3\\psoc creator\\import\\gnu\\arm\\4.9.
 934              		.file 3 ".\\Generated_Source\\PSoC5\\cytypes.h"